0000000000000000 b _ZN15rftrace_backend7backend8RETSTACK17h8f8b90fd7009d050E
0000000000005dc8 b _ZN15rftrace_backend7backend3TID17hab120662ba2fda1bE
0000000000005dd0 b _ZN3std11collections4hash3map11RandomState3new4KEYS7__getit5__KEY17heb9f4e5d657cee4cE
0000000000005df0 b _ZN3std10sys_common11thread_info11THREAD_INFO7__getit5__KEY17h6929018de980aa83E.llvm.7287165654037885573
0000000000005e10 b _ZN3std3sys6hermit17fast_thread_local5DTORS17hb1fb135228133ffcE.llvm.3677715681276609070
0000000000005e20 b _ZN3std9panicking18update_panic_count11PANIC_COUNT7__getit5__KEY17hc969773e9ad44a95E
0000000000005e38 b _ZN3std2io5stdio12LOCAL_STDOUT7__getit5__KEY17h1e068d68ed37dcc8E
0000000000005e60 b _ZN3std2io5stdio12LOCAL_STDERR7__getit5__KEY17h9c683ce7fa8ad1ddE
00000000002002fc r anon.609feeb0019d0961b3674c277ec48ac1.29.llvm.13149078311525376609
0000000000200308 r anon.30413e6200a728a914ed73f4bb27504b.36.llvm.17290461852803229719
0000000000201240 r anon.2c163c13af15c5fdf0bee405cde884db.2.llvm.16833880891754768218
0000000000201240 r anon.5a272a93affba6ffaa6f2bb4567a69a5.7.llvm.7287165654037885573
0000000000201240 r anon.b391daa6578d51c607fdb4ceb184f089.1.llvm.12107707050745762634
00000000002018b0 r anon.dcb7f4c2bb2e45c73241e74b5e8a4acb.1.llvm.14625843843819363751
00000000002018c8 r anon.dcb7f4c2bb2e45c73241e74b5e8a4acb.2.llvm.14625843843819363751
0000000000201930 r anon.dcb7f4c2bb2e45c73241e74b5e8a4acb.6.llvm.14625843843819363751
0000000000201980 r anon.fab3156ab352e0234f68ca8ec3985eb1.0.llvm.2316953538274376082
0000000000202008 r _ZN6hermit4arch6x86_642mm6paging19virtual_to_physical4SELF17hf9c256979261f020E
00000000002058f0 r str.0
0000000000205ad0 r anon.15863400e4f89111ef4835b66beab6ad.0.llvm.12130396902648428585
0000000000205b20 r anon.70b7485a9d7917bff70ff878183c82ec.0.llvm.10718941875668461210
0000000000205b50 r anon.70b7485a9d7917bff70ff878183c82ec.1.llvm.10718941875668461210
0000000000205b60 r anon.d1b8f7e219695e4cb1fd14f23748983f.0.llvm.1288212267699613560
0000000000205be8 r anon.51a66cf18ed7ebd8d7b9d6487982b0bb.1.llvm.8046362887362845701
0000000000205c00 r anon.51a66cf18ed7ebd8d7b9d6487982b0bb.2.llvm.8046362887362845701
0000000000205c20 r anon.51a66cf18ed7ebd8d7b9d6487982b0bb.3.llvm.8046362887362845701
0000000000205c50 r anon.51a66cf18ed7ebd8d7b9d6487982b0bb.4.llvm.8046362887362845701
0000000000205d00 r anon.a4e03562c43fae18050b86a5a5033fce.3.llvm.1971543153702307095
0000000000205d68 r anon.a4e03562c43fae18050b86a5a5033fce.5.llvm.1971543153702307095
0000000000205d78 r anon.a4e03562c43fae18050b86a5a5033fce.6.llvm.1971543153702307095
0000000000205de8 r anon.a4e03562c43fae18050b86a5a5033fce.8.llvm.1971543153702307095
0000000000206fb8 r _ZN4core3str15UTF8_CHAR_WIDTH17h310661f2a313fb8fE
0000000000207b30 r _ZN4core7unicode12unicode_data15grapheme_extend17SHORT_OFFSET_RUNS17h4cdf3516552fd618E
0000000000207bac r _ZN4core7unicode12unicode_data15grapheme_extend7OFFSETS17h101b7f4ca3436084E
0000000000208da0 r str.1.809
0000000000209990 r str.0.867
00000000002d0d7b r _ZN6hermit4arch6x86_646kernel13smp_boot_code13SMP_BOOT_CODE17hdb71318273538c3aE
00000000002d68f0 r str.0.1798
00000000002d6940 r _ZN3log15LOG_LEVEL_NAMES17h837e3d40bc338547E
00000000002d6ef0 r str.0
00000000002d70d0 r _ZN4core3fmt3num14DEC_DIGITS_LUT17h258015b1f90f9707E
00000000002d70d8 r anon.85027cfe6e47dc839a63ef5d74257132.15.llvm.5378343575547295756
00000000002d71f8 r anon.b391daa6578d51c607fdb4ceb184f089.3.llvm.12107707050745762634
00000000002d7210 r anon.b391daa6578d51c607fdb4ceb184f089.4.llvm.12107707050745762634
00000000002d7228 r anon.b391daa6578d51c607fdb4ceb184f089.5.llvm.12107707050745762634
00000000002d7270 r anon.b391daa6578d51c607fdb4ceb184f089.9.llvm.12107707050745762634
00000000002d7290 r anon.b391daa6578d51c607fdb4ceb184f089.10.llvm.12107707050745762634
00000000002d72b0 r anon.b391daa6578d51c607fdb4ceb184f089.11.llvm.12107707050745762634
00000000002d72db r anon.b391daa6578d51c607fdb4ceb184f089.16.llvm.12107707050745762634
00000000002d7390 r anon.b391daa6578d51c607fdb4ceb184f089.18.llvm.12107707050745762634
00000000002d7438 r anon.b391daa6578d51c607fdb4ceb184f089.27.llvm.12107707050745762634
00000000002d7458 r anon.b391daa6578d51c607fdb4ceb184f089.28.llvm.12107707050745762634
00000000002d7470 r anon.b391daa6578d51c607fdb4ceb184f089.51.llvm.12107707050745762634
00000000002d7679 r anon.b391daa6578d51c607fdb4ceb184f089.68.llvm.12107707050745762634
00000000002d7718 r anon.b391daa6578d51c607fdb4ceb184f089.70.llvm.12107707050745762634
00000000002d7748 r anon.b391daa6578d51c607fdb4ceb184f089.73.llvm.12107707050745762634
00000000002d77b0 r anon.1c73330cf1ef6c07223dbab542dc7ed8.34.llvm.13840753740260838195
00000000002d77d8 r anon.5a272a93affba6ffaa6f2bb4567a69a5.0.llvm.7287165654037885573
00000000002d7808 r anon.5a272a93affba6ffaa6f2bb4567a69a5.5.llvm.7287165654037885573
00000000002d7890 r anon.5a272a93affba6ffaa6f2bb4567a69a5.9.llvm.7287165654037885573
00000000002d78a8 r anon.5a272a93affba6ffaa6f2bb4567a69a5.10.llvm.7287165654037885573
00000000002d78c0 r anon.5a272a93affba6ffaa6f2bb4567a69a5.11.llvm.7287165654037885573
00000000002d78d8 r anon.5a272a93affba6ffaa6f2bb4567a69a5.14.llvm.7287165654037885573
00000000002d7908 r anon.5a272a93affba6ffaa6f2bb4567a69a5.15.llvm.7287165654037885573
00000000002d7928 r anon.5a272a93affba6ffaa6f2bb4567a69a5.16.llvm.7287165654037885573
00000000002d7a10 r anon.5a272a93affba6ffaa6f2bb4567a69a5.25.llvm.7287165654037885573
00000000002d7ca0 r anon.895c7a60d83f56f79365093ac2d97f32.10.llvm.3677715681276609070
00000000002d7d48 r anon.895c7a60d83f56f79365093ac2d97f32.12.llvm.3677715681276609070
00000000002d7db0 r anon.895c7a60d83f56f79365093ac2d97f32.18.llvm.3677715681276609070
00000000002d7dd0 r anon.30413e6200a728a914ed73f4bb27504b.18.llvm.17290461852803229719
00000000002d7e20 r anon.30413e6200a728a914ed73f4bb27504b.28.llvm.17290461852803229719
00000000002d7ee8 r anon.30413e6200a728a914ed73f4bb27504b.34.llvm.17290461852803229719
00000000002d7ef6 r anon.30413e6200a728a914ed73f4bb27504b.35.llvm.17290461852803229719
00000000002d7f00 r anon.5635e542fe4de5ae13fbd529a3fb18ab.2.llvm.12372893769962894764
00000000002d7f30 r anon.5635e542fe4de5ae13fbd529a3fb18ab.3.llvm.12372893769962894764
00000000002d7f50 r anon.5635e542fe4de5ae13fbd529a3fb18ab.4.llvm.12372893769962894764
00000000002d7f80 r anon.5635e542fe4de5ae13fbd529a3fb18ab.7.llvm.12372893769962894764
00000000002d7fa0 r anon.5635e542fe4de5ae13fbd529a3fb18ab.8.llvm.12372893769962894764
00000000002d7fc0 r anon.5635e542fe4de5ae13fbd529a3fb18ab.9.llvm.12372893769962894764
00000000002d8090 r anon.5635e542fe4de5ae13fbd529a3fb18ab.11.llvm.12372893769962894764
00000000002d81c0 r anon.5635e542fe4de5ae13fbd529a3fb18ab.33.llvm.12372893769962894764
00000000002d81f8 r anon.5635e542fe4de5ae13fbd529a3fb18ab.34.llvm.12372893769962894764
00000000002d8210 r anon.5635e542fe4de5ae13fbd529a3fb18ab.35.llvm.12372893769962894764
00000000002d8228 r anon.5635e542fe4de5ae13fbd529a3fb18ab.36.llvm.12372893769962894764
00000000002d8258 r anon.5635e542fe4de5ae13fbd529a3fb18ab.37.llvm.12372893769962894764
00000000002d8270 r anon.5635e542fe4de5ae13fbd529a3fb18ab.38.llvm.12372893769962894764
00000000002d8290 r anon.5635e542fe4de5ae13fbd529a3fb18ab.39.llvm.12372893769962894764
00000000002d82a8 r anon.5635e542fe4de5ae13fbd529a3fb18ab.40.llvm.12372893769962894764
00000000002d8330 r anon.5635e542fe4de5ae13fbd529a3fb18ab.48.llvm.12372893769962894764
00000000002d8356 r anon.5635e542fe4de5ae13fbd529a3fb18ab.60.llvm.12372893769962894764
00000000002d8420 r anon.5635e542fe4de5ae13fbd529a3fb18ab.71.llvm.12372893769962894764
00000000002d8438 r anon.5635e542fe4de5ae13fbd529a3fb18ab.72.llvm.12372893769962894764
00000000002d8828 r anon.609feeb0019d0961b3674c277ec48ac1.38.llvm.13149078311525376609
00000000002d8840 r anon.609feeb0019d0961b3674c277ec48ac1.39.llvm.13149078311525376609
00000000002d8860 r anon.609feeb0019d0961b3674c277ec48ac1.40.llvm.13149078311525376609
00000000002d8890 r anon.609feeb0019d0961b3674c277ec48ac1.41.llvm.13149078311525376609
00000000002d8aa0 r anon.609feeb0019d0961b3674c277ec48ac1.62.llvm.13149078311525376609
00000000002d8c00 r anon.609feeb0019d0961b3674c277ec48ac1.78.llvm.13149078311525376609
00000000002d8c08 r anon.609feeb0019d0961b3674c277ec48ac1.79.llvm.13149078311525376609
00000000002d8c28 r anon.609feeb0019d0961b3674c277ec48ac1.80.llvm.13149078311525376609
00000000002d8c30 r anon.609feeb0019d0961b3674c277ec48ac1.81.llvm.13149078311525376609
00000000002d8da8 r anon.609feeb0019d0961b3674c277ec48ac1.113.llvm.13149078311525376609
00000000002d8dc3 r anon.609feeb0019d0961b3674c277ec48ac1.114.llvm.13149078311525376609
00000000002d91b8 r anon.26fd2f70d759a0b590c046d35939fda2.23.llvm.3138240758308555093
00000000002d9250 r anon.26fd2f70d759a0b590c046d35939fda2.25.llvm.3138240758308555093
00000000002d9280 r anon.26fd2f70d759a0b590c046d35939fda2.37.llvm.3138240758308555093
00000000002d92a9 r anon.e3f7ed2501f9ab8ee76c7a30f10d493c.4.llvm.9220543134599543135
00000000002d9340 r anon.e3f7ed2501f9ab8ee76c7a30f10d493c.6.llvm.9220543134599543135
00000000002d93c0 r anon.2c163c13af15c5fdf0bee405cde884db.4.llvm.16833880891754768218
00000000002d9480 r anon.2c163c13af15c5fdf0bee405cde884db.13.llvm.16833880891754768218
00000000002d94b0 r anon.2c163c13af15c5fdf0bee405cde884db.14.llvm.16833880891754768218
00000000002d94e8 r anon.2c163c13af15c5fdf0bee405cde884db.15.llvm.16833880891754768218
00000000002d94f8 r anon.2c163c13af15c5fdf0bee405cde884db.16.llvm.16833880891754768218
00000000002d94f8 r anon.2c163c13af15c5fdf0bee405cde884db.17.llvm.16833880891754768218
00000000002d9510 r anon.2c163c13af15c5fdf0bee405cde884db.19.llvm.16833880891754768218
00000000002d9698 r anon.2c163c13af15c5fdf0bee405cde884db.42.llvm.16833880891754768218
00000000002d96b0 r anon.2c163c13af15c5fdf0bee405cde884db.43.llvm.16833880891754768218
00000000002d98e8 r _ZN3log15LOG_LEVEL_NAMES17h7efb6ddc6c2c2e65E
00000000002d99b0 r _ZN9hashbrown3raw4sse25Group12static_empty13ALIGNED_BYTES17h19065a049009bc13E
00000000002d9b9a r anon.ed6ced33456eeb31f83e9e8980d33fb8.7.llvm.16383343937901584768
00000000002d9bb0 r anon.ed6ced33456eeb31f83e9e8980d33fb8.8.llvm.16383343937901584768
00000000002d9d28 r anon.53cd2a64e9b4ae688966d849615140ab.0.llvm.797103894661445525
00000000002d9d98 r anon.d1c0e833a53ac444acae51c77bd5b517.3.llvm.12044055619497058027
00000000002d9dc8 r anon.d1c0e833a53ac444acae51c77bd5b517.4.llvm.12044055619497058027
00000000002d9e00 r anon.d1c0e833a53ac444acae51c77bd5b517.5.llvm.12044055619497058027
00000000002d9e10 r anon.d1c0e833a53ac444acae51c77bd5b517.6.llvm.12044055619497058027
00000000002d9e80 r anon.d1c0e833a53ac444acae51c77bd5b517.8.llvm.12044055619497058027
00000000002d9f08 r anon.c618fc67c9051d3f20fe4a12e3fc80cd.1.llvm.8458147766276963171
00000000002d9f20 r anon.c618fc67c9051d3f20fe4a12e3fc80cd.3.llvm.8458147766276963171
00000000002d9ff0 r _ZN4core3fmt3num14DEC_DIGITS_LUT17h1b0f4b6b08634f12E
00000000002da0f8 r anon.7260b3e235f90e3faebc701591836940.5.llvm.11270618324331022794
00000000002da140 R _ZN4core3str15UTF8_CHAR_WIDTH17h846ec5da765af32dE
00000000002da4f8 r anon.b1031847281817a470e5a087aa2bbbce.60.llvm.16228255209884230709
00000000002da54a r anon.b1031847281817a470e5a087aa2bbbce.61.llvm.16228255209884230709
00000000002da66c r anon.b1031847281817a470e5a087aa2bbbce.62.llvm.16228255209884230709
00000000002da7a1 r anon.b1031847281817a470e5a087aa2bbbce.63.llvm.16228255209884230709
00000000002da7ed r anon.b1031847281817a470e5a087aa2bbbce.64.llvm.16228255209884230709
00000000002da89c r anon.b1031847281817a470e5a087aa2bbbce.65.llvm.16228255209884230709
00000000002daa40 r anon.cfdc8f2819f77b3f5b0b88d3b5b7d15a.11.llvm.6170417016939588170
00000000002dab38 r anon.cfdc8f2819f77b3f5b0b88d3b5b7d15a.25.llvm.6170417016939588170
00000000002dab50 r anon.cfdc8f2819f77b3f5b0b88d3b5b7d15a.26.llvm.6170417016939588170
00000000002dab68 r anon.cfdc8f2819f77b3f5b0b88d3b5b7d15a.27.llvm.6170417016939588170
00000000002dab80 r _ZN4core7unicode12unicode_data15grapheme_extend17SHORT_OFFSET_RUNS17ha86f11578bf47c50E.llvm.6170417016939588170
00000000002dabfc r _ZN4core7unicode12unicode_data15grapheme_extend7OFFSETS17hff29739188fb4c3aE.llvm.6170417016939588170
00000000002db1a0 r anon.3c41dcf4962d0ae4ae579af6b2b6938b.6.llvm.1823201007772383220
00000000002db32e r anon.25d9f492f19832654bf30f00e6a8ca4c.24.llvm.10609422131044023868
00000000002db331 r anon.25d9f492f19832654bf30f00e6a8ca4c.25.llvm.10609422131044023868
00000000002db333 r anon.25d9f492f19832654bf30f00e6a8ca4c.26.llvm.10609422131044023868
00000000002db335 r anon.25d9f492f19832654bf30f00e6a8ca4c.27.llvm.10609422131044023868
00000000002db337 r anon.25d9f492f19832654bf30f00e6a8ca4c.28.llvm.10609422131044023868
00000000002db33a r anon.25d9f492f19832654bf30f00e6a8ca4c.32.llvm.10609422131044023868
00000000002db33b r anon.25d9f492f19832654bf30f00e6a8ca4c.33.llvm.10609422131044023868
00000000002db33d r anon.25d9f492f19832654bf30f00e6a8ca4c.34.llvm.10609422131044023868
00000000002db33f r anon.25d9f492f19832654bf30f00e6a8ca4c.35.llvm.10609422131044023868
00000000002db340 r anon.25d9f492f19832654bf30f00e6a8ca4c.36.llvm.10609422131044023868
00000000002db341 r anon.25d9f492f19832654bf30f00e6a8ca4c.37.llvm.10609422131044023868
00000000002db342 r anon.25d9f492f19832654bf30f00e6a8ca4c.38.llvm.10609422131044023868
00000000002db343 r anon.25d9f492f19832654bf30f00e6a8ca4c.40.llvm.10609422131044023868
00000000002db344 r anon.25d9f492f19832654bf30f00e6a8ca4c.44.llvm.10609422131044023868
00000000002dc6f0 t _ZN5alloc7raw_vec19RawVec$LT$T$C$A$GT$7reserve17hfbb37d03a1349bb2E
00000000002dc810 t _ZN4core3ptr13drop_in_place17h2e5b1a32a449d2ccE
00000000002dc870 t _ZN22rftrace_hermit_rs_test4main17h121103c307736038E
00000000002dcc30 T main
00000000002dcc60 t _ZN3std10sys_common9backtrace28__rust_begin_short_backtrace17hc8512b282c973de1E
00000000002dccc0 t _ZN5alloc4sync12Arc$LT$T$GT$9drop_slow17h8b8f872cceb0bcafE
00000000002dcd30 t _ZN5alloc4sync12Arc$LT$T$GT$9drop_slow17ha66ddfa8c40f8c6dE
00000000002dcdd0 t _ZN3std6thread19JoinHandle$LT$T$GT$4join17hec99ed3a4200b10eE
00000000002dce80 t _ZN3std6thread5spawn17hdac01bbda3bb40d0E
00000000002dd030 t _ZN4core3ops8function6FnOnce40call_once$u7b$$u7b$vtable.shim$u7d$$u7d$17h80ad4a6029a3c5d5E
00000000002dd0c0 t _ZN4core3ptr13drop_in_place17h2e5b1a32a449d2ccE
00000000002dd120 t _ZN4core3ptr13drop_in_place17h4fab9b8503bd690cE
00000000002dd170 t _ZN3std2rt10lang_start28_$u7b$$u7b$closure$u7d$$u7d$17h68c49fbc6a9088aeE
00000000002dd1a0 t _ZN4core3ops8function6FnOnce40call_once$u7b$$u7b$vtable.shim$u7d$$u7d$17h1e5347e1974bad2aE
00000000002dd1d0 t _ZN4core3ptr13drop_in_place17h12847c06759a7025E
00000000002dd1e0 T __rust_alloc
00000000002dd1f0 T __rust_dealloc
00000000002dd200 T __rust_realloc
00000000002dd210 T __rust_alloc_zeroed
00000000002dd220 t _ZN4core3fmt3num50_$LT$impl$u20$core..fmt..Debug$u20$for$u20$u64$GT$3fmt17h175d071809807318E
00000000002dd280 t _ZN4core3ptr13drop_in_place17hb964c65b5216a30aE
00000000002dd290 t _ZN50_$LT$$RF$mut$u20$T$u20$as$u20$core..fmt..Debug$GT$3fmt17hcc63d59717c00ae1E
00000000002dd340 t _ZN60_$LT$alloc..string..String$u20$as$u20$core..fmt..Display$GT$3fmt17h8bd95b3061f7bc69E
00000000002dd370 T _ZN16rftrace_frontend8frontend6enable17haf3d845312d591fdE
00000000002dd380 T _ZN16rftrace_frontend8frontend4init17hb5e5e039f02da795E
00000000002dd580 T _ZN16rftrace_frontend8frontend17dump_full_uftrace17hb03f89f2df46247eE
00000000002de880 t _ZN16rftrace_frontend8frontend11dump_traces17h85db1daa7b48abe5E
00000000002df660 t _ZN5alloc7raw_vec19RawVec$LT$T$C$A$GT$11allocate_in17h243ab67e580e759aE
00000000002df6f0 t _ZN5alloc7raw_vec19RawVec$LT$T$C$A$GT$11allocate_in17hd0d16e8811b4f2bdE
00000000002df750 t _ZN5alloc7raw_vec19RawVec$LT$T$C$A$GT$11allocate_in28_$u7b$$u7b$closure$u7d$$u7d$17h64037acfa386307bE.llvm.18275711014265370878
00000000002df750 t _ZN5alloc7raw_vec19RawVec$LT$T$C$A$GT$11allocate_in28_$u7b$$u7b$closure$u7d$$u7d$17he0d1112b6b3bb871E.llvm.18275711014265370878
00000000002df760 t _ZN5alloc7raw_vec19RawVec$LT$T$C$A$GT$11allocate_in28_$u7b$$u7b$closure$u7d$$u7d$17h836ee47593917db3E.llvm.18275711014265370878
00000000002df760 t _ZN5alloc7raw_vec19RawVec$LT$T$C$A$GT$11allocate_in28_$u7b$$u7b$closure$u7d$$u7d$17hd8ebf187d8072d05E.llvm.18275711014265370878
00000000002df780 t _ZN5alloc7raw_vec19RawVec$LT$T$C$A$GT$7reserve17h098e4b0034c32e5fE
00000000002df830 t _ZN5alloc7raw_vec19RawVec$LT$T$C$A$GT$7reserve17he68d6ee0bf97db55E
00000000002df950 t _ZN5alloc7raw_vec19RawVec$LT$T$C$A$GT$7reserve17hf9380d2e60e5ef95E
00000000002df950 t _ZN5alloc7raw_vec19RawVec$LT$T$C$A$GT$7reserve17hff7adfae50144481E
00000000002dfa60 t _ZN3std9panicking11begin_panic17hd9afdb61d9d4c616E
00000000002dfaa0 t _ZN4core3ptr13drop_in_place17h2833a0af9a350686E
00000000002dfab0 t _ZN91_$LT$std..panicking..begin_panic..PanicPayload$LT$A$GT$$u20$as$u20$core..panic..BoxMeUp$GT$3get17h36a4e99660296179E
00000000002dfae0 t _ZN91_$LT$std..panicking..begin_panic..PanicPayload$LT$A$GT$$u20$as$u20$core..panic..BoxMeUp$GT$8take_box17h6d49f1592ae01b40E
00000000002dfb50 t _ZN36_$LT$T$u20$as$u20$core..any..Any$GT$7type_id17h987caee01c83b3b4E
00000000002dfb70 t _ZN4core3ptr13drop_in_place17he6e29d189c0aaa74E
00000000002dfbb0 t _ZN50_$LT$T$u20$as$u20$core..convert..Into$LT$U$GT$$GT$4into17h32f1032920711138E
00000000002dfc90 t _ZN3std5error5Error5cause17hdf6c55742bf1f7e8E
00000000002dfc90 t _ZN3std5error5Error6source17h986a1fa0797dadeeE
00000000002dfca0 t _ZN3std5error5Error7type_id17h4092b94166f7c78eE
00000000002dfcc0 t _ZN3std5error5Error9backtrace17hf3fe6c36e4a0360eE
00000000002dfcd0 t _ZN3std2io5Write9write_fmt17h1b631ea4cf9f3819E
00000000002dfdc0 t _ZN4core3ptr13drop_in_place17h8918b7f9852ad4e7E
00000000002dfe20 t _ZN61_$LT$alloc..vec..Vec$LT$T$GT$$u20$as$u20$core..fmt..Debug$GT$3fmt17h4ed4286db4c00b30E
00000000002dfea0 t _ZN4core3ptr13drop_in_place17h82d685057ceb68c5E
00000000002dfeb0 t _ZN42_$LT$$RF$T$u20$as$u20$core..fmt..Debug$GT$3fmt17h9aa2facedf6a1bacE
00000000002dff30 t _ZN52_$LT$$BP$const$u20$T$u20$as$u20$core..fmt..Debug$GT$3fmt17h1d9a95e12e1f4340E
00000000002dffb0 t _ZN42_$LT$$RF$T$u20$as$u20$core..fmt..Debug$GT$3fmt17h00bb1a17a064dcd3E
00000000002e0020 t _ZN42_$LT$$RF$T$u20$as$u20$core..fmt..Debug$GT$3fmt17h433129637500b38bE
00000000002e0090 t _ZN44_$LT$$RF$T$u20$as$u20$core..fmt..Display$GT$3fmt17h2542abbaf01aefd5E
00000000002e00c0 t _ZN44_$LT$$RF$T$u20$as$u20$core..fmt..Display$GT$3fmt17h9981f31b15692c3bE
00000000002e00f0 t _ZN3std2fs4File6create17h804753ebb304d5c7E
00000000002e0190 t _ZN3std2io5Write9write_all17hc9c15b8de1c37893E
00000000002e02d0 t _ZN3std2io5Write9write_fmt17h5be434391f1848e3E
00000000002e03b0 t _ZN4core3ptr13drop_in_place17hdc61d0b54855a369E
00000000002e0410 t _ZN3std2io5error5Error3new17h37c9cc8c9e119df8E
00000000002e04e0 t _ZN4core3fmt5Write10write_char17h3a1f4b9a1a6390adE
00000000002e05d0 t _ZN4core3fmt5Write10write_char17h5a676049ffd00e45E
00000000002e0700 t _ZN4core3fmt5Write9write_fmt17h89289769c570a312E
00000000002e0750 t _ZN4core3fmt5Write9write_fmt17hb91438b7ca1706aaE
00000000002e07a0 t _ZN4core3ptr13drop_in_place17h36304d72bfb49df0E
00000000002e07b0 t _ZN50_$LT$$RF$mut$u20$W$u20$as$u20$core..fmt..Write$GT$10write_char17h0ca64498bd363852E
00000000002e08c0 t _ZN50_$LT$$RF$mut$u20$W$u20$as$u20$core..fmt..Write$GT$10write_char17hc85977a2c24d07a9E
00000000002e0a10 t _ZN50_$LT$$RF$mut$u20$W$u20$as$u20$core..fmt..Write$GT$9write_fmt17h4de5ded7cc3afe67E
00000000002e0a60 t _ZN50_$LT$$RF$mut$u20$W$u20$as$u20$core..fmt..Write$GT$9write_fmt17h88df6b3b19a30580E
00000000002e0ab0 t _ZN50_$LT$$RF$mut$u20$W$u20$as$u20$core..fmt..Write$GT$9write_str17h50d25b912e9df178E
00000000002e0b50 t _ZN50_$LT$$RF$mut$u20$W$u20$as$u20$core..fmt..Write$GT$9write_str17h9e56a8c8c4f5a199E
00000000002e0bb0 t _ZN80_$LT$std..io..Write..write_fmt..Adaptor$LT$T$GT$$u20$as$u20$core..fmt..Write$GT$9write_str17h454675b4bc8c66d8E
00000000002e0c10 t _ZN80_$LT$std..io..Write..write_fmt..Adaptor$LT$T$GT$$u20$as$u20$core..fmt..Write$GT$9write_str17ha1f49d32fd0d5e75E
00000000002e0cb0 t _ZN4core5slice29_$LT$impl$u20$$u5b$T$u5d$$GT$15copy_from_slice17hfc0ac8b4bb742b70E
00000000002e0dc0 t _ZN3std2io4util4copy17hc09769c36501182cE
00000000002e0f50 t _ZN42_$LT$$RF$T$u20$as$u20$core..fmt..Debug$GT$3fmt17h7c4bfd17d0182775E
00000000002e1040 t _ZN4core3ptr13drop_in_place17h015ec92fb5453f9aE
00000000002e1310 t _ZN4core3ptr13drop_in_place17h0377d7b6762c20b9E
00000000002e1320 t _ZN4core3ptr13drop_in_place17h0f32d7e5d376e14eE
00000000002e13e0 t _ZN4core3ptr13drop_in_place17h600d69e6c4ab4690E
00000000002e1560 t _ZN4core3ptr13drop_in_place17ha2fc5bc79029f643E
00000000002e1630 t _ZN59_$LT$alloc..rc..Rc$LT$T$GT$$u20$as$u20$core..fmt..Debug$GT$3fmt17h87a983e9821bceecE
00000000002e1790 t _ZN59_$LT$alloc..rc..Rc$LT$T$GT$$u20$as$u20$core..fmt..Debug$GT$3fmt17hf59d6b5faf9ac1e8E
00000000002e18f0 t _ZN5alloc2rc11Rc$LT$T$GT$3new17h103b2eb4134bf468E
00000000002e1b00 t _ZN5alloc2rc11Rc$LT$T$GT$3new17h3f15c561f869ff2cE
00000000002e1d10 t _ZN60_$LT$alloc..string..String$u20$as$u20$core..fmt..Display$GT$3fmt17hcc4ed8404b68b45fE
00000000002e1d40 t _ZN63_$LT$I$u20$as$u20$core..iter..traits..collect..IntoIterator$GT$9into_iter17h1178c625a13c1231E
00000000002e1d60 t _ZN64_$LT$alloc..rc..Rc$LT$T$GT$$u20$as$u20$core..ops..drop..Drop$GT$4drop17h36081842120a6f12E
00000000002e2520 t _ZN64_$LT$alloc..rc..Rc$LT$T$GT$$u20$as$u20$core..ops..drop..Drop$GT$4drop17h3b48f27cdb072809E
00000000002e27d0 t _ZN64_$LT$alloc..rc..Rc$LT$T$GT$$u20$as$u20$core..ops..drop..Drop$GT$4drop17h6bb1ebc34a70853fE
00000000002e2a10 t _ZN64_$LT$alloc..rc..Rc$LT$T$GT$$u20$as$u20$core..ops..drop..Drop$GT$4drop17h8ed7bac1e684bb0aE
00000000002e2cd0 t _ZN66_$LT$core..option..Option$LT$T$GT$$u20$as$u20$core..fmt..Debug$GT$3fmt17h2b5adb56e748eb70E
00000000002e2dc0 t _ZN66_$LT$core..option..Option$LT$T$GT$$u20$as$u20$core..fmt..Debug$GT$3fmt17hc23731cf9109ea77E
00000000002e2eb0 t _ZN66_$LT$core..option..Option$LT$T$GT$$u20$as$u20$core..fmt..Debug$GT$3fmt17hc6b2e291f69eeb8aE
00000000002e2fa0 t _ZN66_$LT$core..option..Option$LT$T$GT$$u20$as$u20$core..fmt..Debug$GT$3fmt17hd0537efe7cc0671dE
00000000002e3090 t _ZN58_$LT$hermit..logging..KernelLogger$u20$as$u20$log..Log$GT$7enabled17h8be30f154254e3f5E
00000000002e30a0 t _ZN58_$LT$hermit..logging..KernelLogger$u20$as$u20$log..Log$GT$3log17h356c365c9f52c93bE
00000000002e3220 t _ZN6hermit4arch6x86_646kernel3gdt16add_current_core17hf3950b3c6e128786E
00000000002e3520 T set_current_kernel_stack
00000000002e35e0 t _ZN6hermit2mm8freelist8FreeList8allocate17h6cb21c1274f61d1fE
00000000002e3ab0 t _ZN6hermit2mm8freelist8FreeList16allocate_aligned17h927c266691bd422eE
00000000002e4090 t _ZN6hermit2mm8freelist8FreeList10deallocate17hf12d361760384a8eE
00000000002e4a10 t _ZN6hermit2mm8freelist8FreeList17print_information17hc74ab2937d30be0bE
00000000002e5090 t _ZN6hermit2mm4hole8HoleList18allocate_first_fit17hf4b463a9d272041eE
00000000002e51e0 t _ZN6hermit2mm4hole10deallocate17h2ee45b5c5db44725E
00000000002e53c0 T sys_recmutex_init
00000000002e6280 T sys_recmutex_destroy
00000000002e7b20 T sys_recmutex_lock
00000000002e7dd0 T sys_recmutex_unlock
00000000002e7fe0 t _ZN6hermit8syscalls4init17h418ec3c51672f205E
00000000002e8090 T sys_malloc
00000000002e80c0 T sys_realloc
00000000002e86d0 T sys_free
00000000002e8700 t _ZN6hermit8syscalls14__sys_shutdown17ha3d257ca00215f04E
00000000002e8730 T sys_open
00000000002e8820 T sys_close
00000000002e8900 T sys_read
00000000002e89f0 T sys_write
00000000002e8ae0 t _ZN5alloc3vec12Vec$LT$T$GT$6remove13assert_failed17hba2747cd965e2f79E
00000000002e8b60 t _ZN5alloc7raw_vec17capacity_overflow17he660aa239d5a0f5bE
00000000002e8b80 t _ZN5alloc7raw_vec19RawVec$LT$T$C$A$GT$11try_reserve17hf4c2b1229f301c9cE
00000000002e8f90 t _ZN5alloc5alloc18handle_alloc_error17hf4db3475cdf679e5E
00000000002e8fb0 t _ZN50_$LT$$RF$mut$u20$W$u20$as$u20$core..fmt..Write$GT$9write_str17h97b2e1f38b4650b4E
00000000002e9040 t _ZN50_$LT$$RF$mut$u20$W$u20$as$u20$core..fmt..Write$GT$10write_char17hca45549b5230a9dcE
00000000002e9190 t _ZN50_$LT$$RF$mut$u20$W$u20$as$u20$core..fmt..Write$GT$9write_fmt17h34eee89aea19dc97E
00000000002e9200 t _ZN4core3fmt3num52_$LT$impl$u20$core..fmt..LowerHex$u20$for$u20$u8$GT$3fmt17hacffd59f11ffd821E
00000000002e92a0 t _ZN4core3fmt3num52_$LT$impl$u20$core..fmt..UpperHex$u20$for$u20$u8$GT$3fmt17h9be8d9351b0648d1E
00000000002e9340 t _ZN4core3fmt3num53_$LT$impl$u20$core..fmt..LowerHex$u20$for$u20$u16$GT$3fmt17h7536782c38d463f3E
00000000002e93f0 t _ZN4core3fmt3num53_$LT$impl$u20$core..fmt..UpperHex$u20$for$u20$u16$GT$3fmt17h246dde50e6efe62fE
00000000002e94a0 t _ZN4core3fmt3num53_$LT$impl$u20$core..fmt..LowerHex$u20$for$u20$u32$GT$3fmt17hcf578aec703a88d9E
00000000002e9540 t _ZN4core3fmt3num53_$LT$impl$u20$core..fmt..UpperHex$u20$for$u20$u32$GT$3fmt17h9e87532fcc348450E
00000000002e95e0 t _ZN4core3fmt3num51_$LT$impl$u20$core..fmt..Binary$u20$for$u20$u64$GT$3fmt17hf5145e29d48fc7bdE
00000000002e9680 t _ZN4core3fmt3num53_$LT$impl$u20$core..fmt..LowerHex$u20$for$u20$u64$GT$3fmt17hbf090e45fbec80fcE
00000000002e9730 t _ZN4core3fmt3num53_$LT$impl$u20$core..fmt..UpperHex$u20$for$u20$u64$GT$3fmt17hb3184b38e660de71E
00000000002e97e0 t _ZN36_$LT$T$u20$as$u20$core..any..Any$GT$7type_id17h0dfdc23c223175b6E
00000000002e9800 t _ZN4core6option13expect_failed17h85f57b390b97a5c8E
00000000002e9870 t _ZN42_$LT$$RF$T$u20$as$u20$core..fmt..Debug$GT$3fmt17hb09e088693a194cfE
00000000002e9960 t _ZN4core5slice6memchr6memchr17hac944eacea6dfdd6E
00000000002e9b50 t _ZN4core3str9from_utf817h4a6ca0e85dece8edE
00000000002e9dd0 t _ZN4core3str16slice_error_fail17h564e9b569643ff9aE
00000000002ea1c0 t _ZN71_$LT$core..ops..range..Range$LT$Idx$GT$$u20$as$u20$core..fmt..Debug$GT$3fmt17hecdfa537e35f8258E
00000000002ea650 t _ZN57_$LT$core..str..Utf8Error$u20$as$u20$core..fmt..Debug$GT$3fmt17h4cf4a2a9bb9f777aE
00000000002ea720 t _ZN63_$LT$core..num..TryFromIntError$u20$as$u20$core..fmt..Debug$GT$3fmt17h66ec809f2edf932bE
00000000002ea7e0 t _ZN61_$LT$core..num..ParseIntError$u20$as$u20$core..fmt..Debug$GT$3fmt17hc7eb48f3f967f7f0E
00000000002ea880 t _ZN42_$LT$$RF$T$u20$as$u20$core..fmt..Debug$GT$3fmt17h09d1348dfb1dccb1E
00000000002ea930 t _ZN42_$LT$$RF$T$u20$as$u20$core..fmt..Debug$GT$3fmt17he4a698a4c4cb5f3fE
00000000002eab50 t _ZN4core5slice20slice_index_len_fail17h5aeaf566aa9fca06E
00000000002eabd0 t _ZN4core5slice22slice_index_order_fail17h468c62a59f48ba01E
00000000002eac50 t _ZN4core7unicode9printable5check17h4a5fb2961cae07c5E
00000000002ead80 t _ZN4core9panicking18panic_bounds_check17h65db248418e2c9d9E
00000000002eae00 t _ZN4core9panicking9panic_fmt17hccc4b1aab39c4987E
00000000002eae40 t _ZN4core9panicking5panic17h353da1b3c27f6dc2E
00000000002eaea0 t _ZN60_$LT$core..cell..BorrowError$u20$as$u20$core..fmt..Debug$GT$3fmt17hdfe9173e33674541E
00000000002eaed0 t _ZN63_$LT$core..cell..BorrowMutError$u20$as$u20$core..fmt..Debug$GT$3fmt17hb2c3a8459360a538E
00000000002eaf00 t _ZN4core6result13unwrap_failed17h085b2208f95428a4E
00000000002eafa0 t _ZN4core3fmt3num3imp51_$LT$impl$u20$core..fmt..Display$u20$for$u20$u8$GT$3fmt17h6c9e70a6c7a6524fE
00000000002eb040 t _ZN4core3fmt3num3imp52_$LT$impl$u20$core..fmt..Display$u20$for$u20$u16$GT$3fmt17h870b6c1805720687E
00000000002eb170 t _ZN4core3fmt3num3imp52_$LT$impl$u20$core..fmt..Display$u20$for$u20$i32$GT$3fmt17hdac3b920105426c1E
00000000002eb2b0 t _ZN4core3fmt3num3imp52_$LT$impl$u20$core..fmt..Display$u20$for$u20$u32$GT$3fmt17h76b16168b31ba1daE
00000000002eb3e0 t _ZN4core3fmt3num3imp52_$LT$impl$u20$core..fmt..Display$u20$for$u20$u64$GT$3fmt17hcee43d5011960ce9E
00000000002eb510 t _ZN4core3fmt3num3imp54_$LT$impl$u20$core..fmt..Display$u20$for$u20$isize$GT$3fmt17h8ca9b384ba4f4a6eE
00000000002eb650 t _ZN4core7unicode12unicode_data15grapheme_extend6lookup17h879cb1eaaa8fd7feE
00000000002eb7b0 t _ZN64_$LT$core..alloc..layout..Layout$u20$as$u20$core..fmt..Debug$GT$3fmt17hb3313287aed7f78dE
00000000002eb880 t _ZN67_$LT$core..alloc..layout..LayoutErr$u20$as$u20$core..fmt..Debug$GT$3fmt17hdea11fa36c91f4c9E
00000000002eb920 t _ZN4core3ops8function6FnOnce9call_once17h80d43728286cd881E
00000000002eb950 t _ZN4core3fmt5write17heb9cafd2f25e7ce5E
00000000002ebc00 t _ZN59_$LT$core..fmt..Arguments$u20$as$u20$core..fmt..Display$GT$3fmt17hb4927a7eced63164E
00000000002ebc60 t _ZN4core3fmt9Formatter12pad_integral17h30323183a44c270fE
00000000002ec000 t _ZN4core3fmt9Formatter12pad_integral12write_prefix17h65323bc123b7cb10E
00000000002ec070 t _ZN4core3fmt9Formatter3pad17h79d3453ba74a8c57E
00000000002ec450 t _ZN40_$LT$str$u20$as$u20$core..fmt..Debug$GT$3fmt17h3d6a08f0f6db7bc5E
00000000002ec9c0 t _ZN4core3str6traits105_$LT$impl$u20$core..slice..SliceIndex$LT$str$GT$$u20$for$u20$core..ops..range..RangeFrom$LT$usize$GT$$GT$5index28_$u7b$$u7b$closure$u7d$$u7d$17h07fe2c85591faba1E.463
00000000002eca00 t _ZN4core3str6traits101_$LT$impl$u20$core..slice..SliceIndex$LT$str$GT$$u20$for$u20$core..ops..range..Range$LT$usize$GT$$GT$5index28_$u7b$$u7b$closure$u7d$$u7d$17h69d2f44d3b116e6fE
00000000002eca40 t _ZN41_$LT$char$u20$as$u20$core..fmt..Debug$GT$3fmt17h731c995ebbbeb734E
00000000002ecd40 t _ZN43_$LT$char$u20$as$u20$core..fmt..Display$GT$3fmt17h6c55ab76d01d11ccE
00000000002ece30 t _ZN127_$LT$$LT$core..cell..RefCell$LT$T$GT$$u20$as$u20$core..fmt..Debug$GT$..fmt..BorrowedPlaceholder$u20$as$u20$core..fmt..Debug$GT$3fmt17h67e81ddca3cda47bE
00000000002ece60 t _ZN53_$LT$core..fmt..Error$u20$as$u20$core..fmt..Debug$GT$3fmt17h7286380e3b556182E
00000000002ece90 t _ZN42_$LT$$RF$T$u20$as$u20$core..fmt..Debug$GT$3fmt17h1be33c525e295a29E
00000000002ecec0 t _ZN42_$LT$$RF$T$u20$as$u20$core..fmt..Debug$GT$3fmt17h5330377aed06c7c4E
00000000002ed0e0 t _ZN42_$LT$$RF$T$u20$as$u20$core..fmt..Debug$GT$3fmt17hd71291dc99b162bfE
00000000002ed110 t _ZN68_$LT$core..fmt..builders..PadAdapter$u20$as$u20$core..fmt..Write$GT$9write_str17h98e157e58665533bE
00000000002ed520 t _ZN4core3str6traits103_$LT$impl$u20$core..slice..SliceIndex$LT$str$GT$$u20$for$u20$core..ops..range..RangeTo$LT$usize$GT$$GT$5index28_$u7b$$u7b$closure$u7d$$u7d$17h5e1ebd80ce51dd66E.626
00000000002ed550 t _ZN4core3fmt8builders11DebugStruct5field17h75a7679f4dcd3945E
00000000002ed720 t _ZN4core3fmt8builders10DebugTuple5field17hfe4832a7a6f87e85E
00000000002ed860 t _ZN4core3fmt8builders9DebugList5entry17h7645193fce48860eE
00000000002ed990 t _ZN4core3fmt5Write10write_char17hfb172217e832720eE
00000000002eda50 t _ZN4core3fmt5Write9write_fmt17h332a767a22345306E
00000000002edac0 t _ZN50_$LT$$RF$mut$u20$W$u20$as$u20$core..fmt..Write$GT$9write_str17h1dcad121bd9eb5d0E
00000000002edaf0 t _ZN50_$LT$$RF$mut$u20$W$u20$as$u20$core..fmt..Write$GT$10write_char17h7cb706fb37b72089E
00000000002edbd0 t _ZN50_$LT$$RF$mut$u20$W$u20$as$u20$core..fmt..Write$GT$9write_fmt17hbdc4d38081b37a25E
00000000002edc40 t _ZN5alloc11collections5btree3map269_$LT$impl$u20$alloc..collections..btree..node..Handle$LT$alloc..collections..btree..node..NodeRef$LT$alloc..collections..btree..node..marker..Mut$C$K$C$V$C$alloc..collections..btree..node..marker..LeafOrInternal$GT$$C$alloc..collections..btree..node..marker..KV$GT$$GT$18remove_kv_tracking17h0a408b986c3b3647E
00000000002ee360 t _ZN5alloc11collections5btree3map269_$LT$impl$u20$alloc..collections..btree..node..Handle$LT$alloc..collections..btree..node..NodeRef$LT$alloc..collections..btree..node..marker..Mut$C$K$C$V$C$alloc..collections..btree..node..marker..LeafOrInternal$GT$$C$alloc..collections..btree..node..marker..KV$GT$$GT$18remove_kv_tracking17hadf01a2753700ce1E
00000000002eeae0 t _ZN5alloc11collections5btree4node212Handle$LT$alloc..collections..btree..node..NodeRef$LT$alloc..collections..btree..node..marker..Mut$C$K$C$V$C$alloc..collections..btree..node..marker..Internal$GT$$C$alloc..collections..btree..node..marker..KV$GT$10steal_left17h93399b0e58c901c9E
00000000002eedd0 t _ZN5alloc11collections5btree4node212Handle$LT$alloc..collections..btree..node..NodeRef$LT$alloc..collections..btree..node..marker..Mut$C$K$C$V$C$alloc..collections..btree..node..marker..Internal$GT$$C$alloc..collections..btree..node..marker..KV$GT$10steal_left17h9c992387a5cd6dd4E
00000000002ef060 t _ZN5alloc11collections5btree4node212Handle$LT$alloc..collections..btree..node..NodeRef$LT$alloc..collections..btree..node..marker..Mut$C$K$C$V$C$alloc..collections..btree..node..marker..Internal$GT$$C$alloc..collections..btree..node..marker..KV$GT$11steal_right17h772a231a821bb3e3E
00000000002ef340 t _ZN5alloc11collections5btree4node212Handle$LT$alloc..collections..btree..node..NodeRef$LT$alloc..collections..btree..node..marker..Mut$C$K$C$V$C$alloc..collections..btree..node..marker..Internal$GT$$C$alloc..collections..btree..node..marker..KV$GT$11steal_right17hdef1cbd9b61c45d0E
00000000002ef5e0 t _ZN5alloc11collections5btree4node212Handle$LT$alloc..collections..btree..node..NodeRef$LT$alloc..collections..btree..node..marker..Mut$C$K$C$V$C$alloc..collections..btree..node..marker..Internal$GT$$C$alloc..collections..btree..node..marker..KV$GT$5merge17h550ad50e28d3e675E
00000000002efab0 t _ZN5alloc11collections5btree4node212Handle$LT$alloc..collections..btree..node..NodeRef$LT$alloc..collections..btree..node..marker..Mut$C$K$C$V$C$alloc..collections..btree..node..marker..Internal$GT$$C$alloc..collections..btree..node..marker..KV$GT$5merge17h745305860dc23cf0E
00000000002eff50 t _ZN5alloc11collections5btree4node40NodeRef$LT$BorrowType$C$K$C$V$C$Type$GT$4keys17h531aab55993ef18bE
00000000002eff80 t _ZN42_$LT$$RF$T$u20$as$u20$core..fmt..Debug$GT$3fmt17h342e5e0d7eb5bd32E
00000000002f0040 t _ZN42_$LT$$RF$T$u20$as$u20$core..fmt..Debug$GT$3fmt17h984f2ce2cda2e78eE
00000000002f0070 t _ZN44_$LT$$RF$T$u20$as$u20$core..fmt..Display$GT$3fmt17hb0f47befd7a68a0eE
00000000002f00a0 t _ZN5alloc11collections9vec_deque17VecDeque$LT$T$GT$4grow17h9e0faba79e79673dE
00000000002f05b0 t _ZN64_$LT$core..cell..RefMut$LT$T$GT$$u20$as$u20$core..fmt..Debug$GT$3fmt17h41d6251227ed6267E
00000000002f0680 t _ZN4core3ptr13drop_in_place17h85d16e59dd40ef9dE
00000000002f06a0 t _ZN61_$LT$core..cell..Ref$LT$T$GT$$u20$as$u20$core..fmt..Debug$GT$3fmt17h60a9304e03627f5cE
00000000002f08e0 t _ZN61_$LT$core..cell..Ref$LT$T$GT$$u20$as$u20$core..fmt..Debug$GT$3fmt17h4b4f4821e60cf21eE
00000000002f0b50 t _ZN6hermit4arch6x86_646kernel4acpi11detect_rsdp17h5809d26a88c7b0baE
00000000002f1060 t _ZN6hermit4arch6x86_646kernel4acpi9AcpiTable3map17h724f8a9ea253f842E
00000000002f11e0 t _ZN6hermit4arch6x86_646kernel4acpi18search_s5_in_table17hbb47843e3c94be2cE
00000000002f1380 t _ZN45_$LT$$LP$$RP$$u20$as$u20$core..fmt..Debug$GT$3fmt17hafadc9be412d5bcbE
00000000002f13b0 t _ZN6hermit11collections16doublylinkedlist25DoublyLinkedList$LT$T$GT$4push17h8876ad1db5f42940E
00000000002f1510 t _ZN6hermit11collections16doublylinkedlist25DoublyLinkedList$LT$T$GT$4push17hc80a17a96c47dabbE
00000000002f1890 t _ZN6hermit11collections16doublylinkedlist25DoublyLinkedList$LT$T$GT$12insert_after17h91e73a59721266d4E
00000000002f1d60 t _ZN6hermit11collections16doublylinkedlist25DoublyLinkedList$LT$T$GT$6remove17h2e450a791ec6958aE
00000000002f1ec0 t _ZN6hermit11collections16doublylinkedlist25DoublyLinkedList$LT$T$GT$6remove17h3f436e7aa3013361E
00000000002f2370 t _ZN6hermit9scheduler16PerCoreScheduler5spawn17h1461d8453719557cE
00000000002f39b0 t _ZN5alloc11collections9vec_deque17VecDeque$LT$T$GT$4grow17h8507bc08233004d5E
00000000002f3e90 t _ZN6hermit9scheduler16PerCoreScheduler4exit17h2ba1353921aad595E
00000000002f4110 t _ZN6hermit9scheduler16PerCoreScheduler9scheduler17hefdb3fa30fc644e8E
00000000002f4710 t _ZN6hermit9scheduler16PerCoreScheduler13cleanup_tasks17h8384116f05da957eE
00000000002f4b10 t _ZN5alloc11collections9vec_deque17VecDeque$LT$T$GT$4grow17he04a12285ac26a26E
00000000002f5000 t _ZN6hermit9scheduler16PerCoreScheduler13custom_wakeup17hc2d14b804a4f1e71E
00000000002f5220 t _ZN6hermit9scheduler16PerCoreScheduler10reschedule17hcb3718ffc0b60002E
00000000002f5250 t _ZN6hermit9scheduler16add_current_core17he93fc406b7554971E
00000000002f7b60 T sys_exit
00000000002f7ba0 t _ZN6hermit9scheduler16PerCoreScheduler22set_current_user_stack17h0351272de83c4670E.808
00000000002f7c00 t _ZN6hermit8syscalls5tasks10__sys_exit17h119f98337ae98410E
00000000002f7d00 T sys_abort
00000000002f7d40 T sys_spawn2
00000000002f7e70 T sys_join
00000000002f8270 t _ZN42_$LT$$RF$T$u20$as$u20$core..fmt..Debug$GT$3fmt17hec13d63dcc674384E
00000000002f8480 t _ZN6hermit4arch6x86_646kernel10virtio_net15VirtioNetDriver13get_tx_buffer17hfa69dd54d81235f0E
00000000002f8740 t _ZN6hermit4arch6x86_646kernel10virtio_net15VirtioNetDriver17receive_rx_buffer17hd2779c0d5ec9f80fE
00000000002f8840 t _ZN6hermit5synch9semaphore9Semaphore3new17h940d897301983fbdE
00000000002f93b0 t _ZN6hermit5synch9semaphore9Semaphore7acquire17hd785bf6e0df66cdaE
00000000002f9920 t _ZN6hermit5synch9semaphore9Semaphore7release17h04936ce9d9f977a2E
00000000002f9a70 t _ZN6hermit8syscalls10interfaces16SyscallInterface26get_application_parameters17had2f50b06223a5b1E
00000000002fa1c0 t _ZN6hermit8syscalls10interfaces16SyscallInterface8shutdown17h485a8abbdf6bbd96E
00000000002fa1d0 t _ZN6hermit8syscalls10interfaces16SyscallInterface15get_mac_address17haf85e8cf7174c7b6E
00000000002fa370 t _ZN6hermit8syscalls10interfaces16SyscallInterface7get_mtu17ha487f3b2ac63b625E
00000000002fa4f0 t _ZN6hermit8syscalls10interfaces16SyscallInterface10has_packet17h0eeb81e2c60b3416E
00000000002fa700 t _ZN6hermit8syscalls10interfaces16SyscallInterface13get_tx_buffer17h8dfa9e12859fbdf6E
00000000002fa890 t _ZN6hermit8syscalls10interfaces16SyscallInterface14send_tx_buffer17hfa7ae3f0e627526eE
00000000002faa70 t _ZN6hermit8syscalls10interfaces16SyscallInterface17receive_rx_buffer17hd29555dc6ad4c26cE
00000000002fac10 t _ZN6hermit8syscalls10interfaces16SyscallInterface18rx_buffer_consumed17hc4b51f2a5e884dfeE
00000000002fade0 t _ZN6hermit8syscalls10interfaces16SyscallInterface6unlink17h569e72d9dcbdc09dE
00000000002fb2d0 t _ZN6hermit8syscalls10interfaces16SyscallInterface4open17h03b3abd1465f5966E
00000000002fd130 t _ZN6hermit8syscalls10interfaces16SyscallInterface5close17h53afde45cca6bbacE
00000000002fd4d0 t _ZN6hermit8syscalls10interfaces16SyscallInterface4read17hf5802a5cb95b605aE
00000000002fd7b0 t _ZN6hermit8syscalls10interfaces16SyscallInterface5write17hc5ea9b03e36c2a5cE
00000000002fdb30 t _ZN6hermit8syscalls10interfaces16SyscallInterface5lseek17h1afe284f6a6d45f1E
00000000002fddc0 t _ZN6hermit8syscalls10interfaces16SyscallInterface4stat17h4f5dd6a5719a0cfdE
00000000002fdea0 T sys_sem_init
00000000002fed20 T sys_sem_destroy
00000000003005c0 T sys_sem_post
00000000003006a0 T sys_sem_timedwait
00000000003007e0 t _ZN42_$LT$$RF$T$u20$as$u20$core..fmt..Debug$GT$3fmt17h2c212b549b796148E
00000000003008b0 t _ZN50_$LT$$RF$mut$u20$T$u20$as$u20$core..fmt..Debug$GT$3fmt17h2891dc2ac015b526E
0000000000300c00 t _ZN6hermit4arch6x86_646kernel6virtio5Virtq15new_from_common17hacc3532c2707f3abE
00000000003025e0 t _ZN6hermit4arch6x86_646kernel6virtio5Virtq17send_non_blocking17h90ebc527f1e39cc7E
0000000000302bb0 t _ZN6hermit4arch6x86_646kernel6virtio5Virtq13send_blocking17hd7c48291ca33f42cE
0000000000303860 t _ZN6hermit4arch6x86_646kernel6virtio16VirtqDescriptors15get_empty_chain17hc71ac0b4d74b8b39E
0000000000303f10 t _ZN6hermit4arch6x86_646kernel6virtio16VirtqDescriptors6extend17h999d83a2d94c0c5bE
0000000000304020 t _ZN6hermit4arch6x86_646kernel6virtio5Virtq10add_buffer17h2bf7c28b3db10dc5E
00000000003043c0 t _ZN6hermit4arch6x86_646kernel6virtio5Virtq15buffer_consumed17he8ffb33d5f0d40b9E
0000000000304620 t _ZN6hermit4arch6x86_646kernel6virtio13map_virtiocap17h74df8ff530518142E
0000000000305420 t _ZN6hermit4arch6x86_646kernel6virtio17virtio_irqhandler17h3ef3fef4637314c9E
0000000000305720 t _ZN93_$LT$hermit..arch..x86_64..kernel..virtio..VirtioNotification$u20$as$u20$core..fmt..Debug$GT$3fmt17h01425901a04e26c9E
00000000003057f0 t _ZN50_$LT$$RF$mut$u20$W$u20$as$u20$core..fmt..Write$GT$9write_str17h9c78b474792b350bE
00000000003058f0 t _ZN50_$LT$$RF$mut$u20$W$u20$as$u20$core..fmt..Write$GT$10write_char17hbe908baf83a5871bE
0000000000305af0 t _ZN50_$LT$$RF$mut$u20$W$u20$as$u20$core..fmt..Write$GT$9write_fmt17hfb9d39c70a8ffd43E
0000000000305b60 t _ZN6hermit4arch6x86_646kernel3pic28spurious_interrupt_on_master17h76430ac983abf3fbE
0000000000305c70 t _ZN6hermit4arch6x86_646kernel3pic27spurious_interrupt_on_slave17h9998969a4dbbf17cE
0000000000305d90 t _ZN93_$LT$hermit..arch..x86_64..kernel..scheduler..TaskStacks$u20$as$u20$core..ops..drop..Drop$GT$4drop17ha1c6e85255485c61E
0000000000305ef0 t _ZN6hermit4arch6x86_646kernel9scheduler10task_entry17hd9227009e45373b6E
0000000000305f50 t _ZN6hermit9scheduler16PerCoreScheduler22get_current_user_stack17heea61b8c486ea149E
0000000000305fb0 t _ZN6hermit9scheduler16PerCoreScheduler22set_current_user_stack17h0351272de83c4670E.918
0000000000306010 t _ZN6hermit4arch6x86_646kernel9scheduler13timer_handler17hc1b3f47a879cda97E
00000000003062a0 T _start
00000000003062d0 t _ZN6hermit4arch6x86_646kernel5start8pre_init17h216e70f38ac7f6a7E
0000000000306310 t _ZN6hermit4arch6x86_646kernel6switch6switch17h157033435dbaa9f6E
0000000000306370 t _ZN6hermit2mm8map_heap17hd0fc0fa003089e54E
0000000000306950 t _ZN6hermit2mm8map_heap17hc657c63c0ba5f08eE
0000000000306fe0 t _ZN6hermit2mm8allocate17h04aab9ac23d141d2E
00000000003070b0 t _ZN6hermit2mm10deallocate17hd29329fa483e34f6E
0000000000307390 t _ZN68_$LT$hermit..syscalls..fs..FilePerms$u20$as$u20$core..fmt..Debug$GT$3fmt17hfab24bd7a4297a56E
0000000000307560 t _ZN6hermit8syscalls2fs10Filesystem10parse_path17h1a9834a67149219aE
00000000003078d0 t _ZN85_$LT$core..str..SplitN$LT$P$GT$$u20$as$u20$core..iter..traits..iterator..Iterator$GT$4next17h05cddc54e37be79aE
0000000000307a70 t _ZN68_$LT$hermit..syscalls..fs..FileError$u20$as$u20$core..fmt..Debug$GT$3fmt17ha5b04bca41257656E
0000000000307ab0 t _ZN42_$LT$$RF$T$u20$as$u20$core..fmt..Debug$GT$3fmt17h7b3059faa7634c58E
0000000000307b70 t _ZN6hermit4arch6x86_642mm11physicalmem8allocate17hed7f143c9764cd28E
0000000000307d00 t _ZN6hermit4arch6x86_642mm11physicalmem10deallocate17hfc62fd2f104e3a31E
0000000000307f10 t _ZN6hermit4arch6x86_642mm10virtualmem8allocate17h22b8eee8a230bf2dE
00000000003080a0 t _ZN6hermit4arch6x86_642mm10virtualmem16allocate_aligned17h21b5ab65e6aa20f4E
0000000000308360 t _ZN6hermit4arch6x86_642mm10virtualmem10deallocate17h1fe9bfd743f47af0E
00000000003086e0 t _ZN70_$LT$hermit..scheduler..task..TaskId$u20$as$u20$core..fmt..Display$GT$3fmt17hbcc40c9b1f2c0349E
0000000000308750 t _ZN72_$LT$hermit..scheduler..task..Priority$u20$as$u20$core..fmt..Display$GT$3fmt17hdc46f408916ed5eeE
00000000003087c0 t _ZN6hermit9scheduler4task23TaskHandlePriorityQueue4push17h63886d5809ec44d5E
0000000000308bf0 t _ZN6hermit9scheduler4task17PriorityTaskQueue4push17h64040d17fff46ceaE
0000000000308e50 t _ZN6hermit9scheduler4task17PriorityTaskQueue14pop_from_queue17hcd86eede468d8e70E
0000000000309040 t _ZN6hermit9scheduler4task16BlockedTaskQueue3add17hf5c7ca6daaf7cc4fE
0000000000309820 t _ZN6hermit9scheduler4task16BlockedTaskQueue13custom_wakeup17h77f0a551e6bdeb6aE
0000000000309ab0 t _ZN6hermit9scheduler4task16BlockedTaskQueue11wakeup_task17h597163225fc7ebe6E
0000000000309d50 t _ZN5alloc11collections5btree3map21BTreeMap$LT$K$C$V$GT$12contains_key17h2070e3f614241e50E
0000000000309df0 t _ZN5alloc11collections5btree3map21BTreeMap$LT$K$C$V$GT$3get17hf347742b2f1fdf5eE
0000000000309e90 t _ZN5alloc11collections5btree3map21BTreeMap$LT$K$C$V$GT$6insert17h54df76744477d318E
000000000030b3d0 t _ZN5alloc11collections5btree3map21BTreeMap$LT$K$C$V$GT$6insert17h6c250125be35d5a7E
000000000030c570 t _ZN42_$LT$$RF$T$u20$as$u20$core..fmt..Debug$GT$3fmt17h36862713bb527a9dE
000000000030c790 t _ZN42_$LT$$RF$T$u20$as$u20$core..fmt..Debug$GT$3fmt17h4bb0021f9f90e8cdE
000000000030c850 t _ZN42_$LT$$RF$T$u20$as$u20$core..fmt..Debug$GT$3fmt17h6b3ed838db5cf038E
000000000030ca80 t _ZN42_$LT$$RF$T$u20$as$u20$core..fmt..Debug$GT$3fmt17h6c8a09323895ed4cE
000000000030cac0 t _ZN42_$LT$$RF$T$u20$as$u20$core..fmt..Debug$GT$3fmt17h7eeb62dc7ad1037cE
000000000030cce0 t _ZN42_$LT$$RF$T$u20$as$u20$core..fmt..Debug$GT$3fmt17h83a34ce381eb9bd9E
000000000030ce50 t _ZN42_$LT$$RF$T$u20$as$u20$core..fmt..Debug$GT$3fmt17h866221b9fb759833E
000000000030ce80 t _ZN42_$LT$$RF$T$u20$as$u20$core..fmt..Debug$GT$3fmt17h98ce0f59925c1376E
000000000030cf70 t _ZN42_$LT$$RF$T$u20$as$u20$core..fmt..Debug$GT$3fmt17hcd8967b25e6c8478E
000000000030d020 t _ZN44_$LT$$RF$T$u20$as$u20$core..fmt..Display$GT$3fmt17h508e936cced904e9E
000000000030d050 t _ZN44_$LT$$RF$T$u20$as$u20$core..fmt..Display$GT$3fmt17h671eea53dd8fb86bE
000000000030d0c0 t _ZN52_$LT$$BP$mut$u20$T$u20$as$u20$core..fmt..Pointer$GT$3fmt17hbc93952b8ba83978E
000000000030d1b0 t _ZN53_$LT$$RF$mut$u20$T$u20$as$u20$core..fmt..LowerHex$GT$3fmt17h9bbcae67594e2fdbE
000000000030d250 T eoi
000000000030d290 t _ZN6hermit4arch6x86_646kernel4apic17set_oneshot_timer17h59dc4c7f7d1e16ffE
000000000030d3e0 t _ZN6hermit4arch6x86_646kernel4apic13ipi_tlb_flush17hc24345688e7cc8bfE
000000000030d4e0 t _ZN6hermit4arch6x86_646kernel19boot_processor_init17hd7dd9c1720e4845fE
0000000000316a40 t _ZN44_$LT$$RF$T$u20$as$u20$core..fmt..Display$GT$3fmt17h441aaa9c47e55f1bE
0000000000316b60 t _ZN44_$LT$$RF$T$u20$as$u20$core..fmt..Display$GT$3fmt17hb20aa7fe97a1754bE
0000000000316ce0 t _ZN6hermit4arch6x86_646kernel4apic17tlb_flush_handler17hb06b2699dd2307a8E
0000000000316e30 t _ZN6hermit4arch6x86_646kernel4apic23error_interrupt_handler17h74ba5c06944aa36dE
0000000000317190 t _ZN6hermit4arch6x86_646kernel4apic26spurious_interrupt_handler17h8bb62f7727512ed4E
00000000003172c0 t _ZN6hermit4arch6x86_646kernel4apic14wakeup_handler17h1f37b1edb3f54b0eE
00000000003175f0 t _ZN6hermit4arch6x86_646kernel4apic15init_local_apic17h4ff0f487c0373352E
0000000000317760 t _ZN6hermit4arch6x86_646kernel4apic29init_next_processor_variables17hc41adf8050670a6aE
0000000000317ca0 t _ZN6hermit9scheduler5abort17hf42a21153b5beb83E
0000000000317cc0 t _ZN6hermit4arch6x86_646kernel16print_statistics17h69fd33a0895488d6E
00000000003186a0 t _ZN44_$LT$$RF$T$u20$as$u20$core..fmt..Display$GT$3fmt17h75ff5d86ff08a844E
00000000003187d0 T sys_destroy_queue
0000000000318a00 t _ZN4core3ptr13drop_in_place17hcd1329ef04a439c0E
000000000031a180 T sys_notify
000000000031a4b0 T sys_init_queue
000000000031a950 T sys_add_queue
000000000031af80 T sys_wait
000000000031b220 t _ZN109_$LT$hermit..syscalls..interfaces..uhyve..Uhyve$u20$as$u20$hermit..syscalls..interfaces..SyscallInterface$GT$4open17h297b6da0a20a2c46E
000000000031b350 t _ZN109_$LT$hermit..syscalls..interfaces..uhyve..Uhyve$u20$as$u20$hermit..syscalls..interfaces..SyscallInterface$GT$6unlink17h029ddead9dc1f9d3E
000000000031b460 t _ZN109_$LT$hermit..syscalls..interfaces..uhyve..Uhyve$u20$as$u20$hermit..syscalls..interfaces..SyscallInterface$GT$5close17hd218d5c0de92cf0dE
000000000031b500 t _ZN109_$LT$hermit..syscalls..interfaces..uhyve..Uhyve$u20$as$u20$hermit..syscalls..interfaces..SyscallInterface$GT$26get_application_parameters17h135d7fec2d0a1989E
000000000031ba80 t _ZN109_$LT$hermit..syscalls..interfaces..uhyve..Uhyve$u20$as$u20$hermit..syscalls..interfaces..SyscallInterface$GT$8shutdown17h4ebeeddf6c4603dcE
000000000031bb20 t _ZN109_$LT$hermit..syscalls..interfaces..uhyve..Uhyve$u20$as$u20$hermit..syscalls..interfaces..SyscallInterface$GT$4read17hbf9446564e838992E
000000000031bbe0 t _ZN109_$LT$hermit..syscalls..interfaces..uhyve..Uhyve$u20$as$u20$hermit..syscalls..interfaces..SyscallInterface$GT$5write17h833a31ce6d0e5bc0E
000000000031bc90 t _ZN109_$LT$hermit..syscalls..interfaces..uhyve..Uhyve$u20$as$u20$hermit..syscalls..interfaces..SyscallInterface$GT$5lseek17hcf3ea7249f6f516fE
000000000031bd40 t _ZN6hermit8syscalls10interfaces16SyscallInterface15get_mac_address17h5e803330e114baaeE
000000000031bee0 t _ZN6hermit8syscalls10interfaces16SyscallInterface7get_mtu17h74a223f7d71fb3a2E
000000000031c060 t _ZN6hermit8syscalls10interfaces16SyscallInterface10has_packet17h1d4478e2510c4f10E
000000000031c270 t _ZN6hermit8syscalls10interfaces16SyscallInterface13get_tx_buffer17h0438dabf8f7ef9c2E
000000000031c400 t _ZN6hermit8syscalls10interfaces16SyscallInterface14send_tx_buffer17he98d4bbf221e2a31E
000000000031c5e0 t _ZN6hermit8syscalls10interfaces16SyscallInterface17receive_rx_buffer17h3979944f2c5aa55cE
000000000031c780 t _ZN6hermit8syscalls10interfaces16SyscallInterface18rx_buffer_consumed17h8ad51d0a5e075c57E
000000000031c950 t _ZN42_$LT$$RF$T$u20$as$u20$core..fmt..Debug$GT$3fmt17h9af8a03c13506712E
000000000031ca50 t _ZN42_$LT$$RF$T$u20$as$u20$core..fmt..Debug$GT$3fmt17h1910ee2217f85aebE
000000000031cb50 t _ZN42_$LT$$RF$T$u20$as$u20$core..fmt..Debug$GT$3fmt17hbd74a00eb7fad4cbE
000000000031cc50 t _ZN42_$LT$$RF$T$u20$as$u20$core..fmt..Debug$GT$3fmt17ha5aadd90291933ddE
000000000031cd50 t _ZN42_$LT$$RF$T$u20$as$u20$core..fmt..Debug$GT$3fmt17hddc4a3a575c92345E
000000000031ce20 t _ZN42_$LT$$RF$T$u20$as$u20$core..fmt..Debug$GT$3fmt17hed4b7d8c3e549927E
000000000031cf10 t _ZN42_$LT$$RF$T$u20$as$u20$core..fmt..Debug$GT$3fmt17h9abee5fb2ae85ffcE
000000000031cf40 t _ZN42_$LT$$RF$T$u20$as$u20$core..fmt..Debug$GT$3fmt17hf0c9ff0a1f7663beE
000000000031d040 t _ZN42_$LT$$RF$T$u20$as$u20$core..fmt..Debug$GT$3fmt17h6da1bfdd3b083de1E
000000000031d240 t _ZN107_$LT$hermit..arch..x86_64..kernel..fuse..Fuse$LT$T$GT$$u20$as$u20$hermit..syscalls..fs..PosixFileSystem$GT$4open17h009c6e6a3ab4b7c3E
000000000031fe50 t _ZN6hermit4arch6x86_646kernel4fuse11str_to_path17he4b39838e15f9eaeE
000000000031ff80 t _ZN85_$LT$hermit..arch..x86_64..kernel..fuse..Rsp$LT$T$GT$$u20$as$u20$core..fmt..Debug$GT$3fmt17h2c0d6085ea1a0b84E
0000000000320080 t _ZN42_$LT$$RF$T$u20$as$u20$core..fmt..Debug$GT$3fmt17hb80baa43f7289013E
0000000000320150 t _ZN42_$LT$$RF$T$u20$as$u20$core..fmt..Debug$GT$3fmt17h222ab09b8a834d4eE
00000000003202f0 t _ZN42_$LT$$RF$T$u20$as$u20$core..fmt..Debug$GT$3fmt17h0a2f5bd9f5c183c2E
0000000000320640 t _ZN4core3ptr13drop_in_place17h999a8f7754649a3dE
0000000000320790 t _ZN105_$LT$hermit..arch..x86_64..kernel..fuse..FuseFile$LT$T$GT$$u20$as$u20$hermit..syscalls..fs..PosixFile$GT$5close17hb6d34dc9b6f4a583E
0000000000321220 t _ZN105_$LT$hermit..arch..x86_64..kernel..fuse..FuseFile$LT$T$GT$$u20$as$u20$hermit..syscalls..fs..PosixFile$GT$4read17h153109bbfc5521b5E
0000000000322150 t _ZN105_$LT$hermit..arch..x86_64..kernel..fuse..FuseFile$LT$T$GT$$u20$as$u20$hermit..syscalls..fs..PosixFile$GT$5write17ha37dcd003e3168e9E
00000000003235d0 t _ZN105_$LT$hermit..arch..x86_64..kernel..fuse..FuseFile$LT$T$GT$$u20$as$u20$hermit..syscalls..fs..PosixFile$GT$5lseek17hfc08f6a91e86d93cE
0000000000323790 t _ZN107_$LT$hermit..arch..x86_64..kernel..fuse..Fuse$LT$T$GT$$u20$as$u20$hermit..syscalls..fs..PosixFileSystem$GT$6unlink17h6b6d669c00949472E
00000000003242d0 t _ZN6hermit4arch6x86_646kernel4fuse12Rsp$LT$T$GT$12to_u8buf_mut17h0e7895475cd60ce4E
0000000000324670 t _ZN85_$LT$hermit..arch..x86_64..kernel..fuse..Cmd$LT$T$GT$$u20$as$u20$core..fmt..Debug$GT$3fmt17h12e7313f24fb72e0E
0000000000324760 t _ZN42_$LT$$RF$T$u20$as$u20$core..fmt..Debug$GT$3fmt17ha91ab7c1bc957809E
0000000000324830 t _ZN42_$LT$$RF$T$u20$as$u20$core..fmt..Debug$GT$3fmt17h8fa33a25b070763bE
0000000000324a00 t _ZN85_$LT$hermit..arch..x86_64..kernel..fuse..Cmd$LT$T$GT$$u20$as$u20$core..fmt..Debug$GT$3fmt17h201adcc63d35b800E
0000000000324af0 t _ZN42_$LT$$RF$T$u20$as$u20$core..fmt..Debug$GT$3fmt17h898e0975313c27d9E
0000000000324c90 t _ZN85_$LT$hermit..arch..x86_64..kernel..fuse..Cmd$LT$T$GT$$u20$as$u20$core..fmt..Debug$GT$3fmt17h216773249bb07a97E
0000000000324d80 t _ZN42_$LT$$RF$T$u20$as$u20$core..fmt..Debug$GT$3fmt17h29a8332454c32383E
0000000000324f20 t _ZN85_$LT$hermit..arch..x86_64..kernel..fuse..Cmd$LT$T$GT$$u20$as$u20$core..fmt..Debug$GT$3fmt17h5ae2bb3fe2f8fab0E
0000000000325010 t _ZN42_$LT$$RF$T$u20$as$u20$core..fmt..Debug$GT$3fmt17h9c96808fe6499ee6E
0000000000325130 t _ZN85_$LT$hermit..arch..x86_64..kernel..fuse..Cmd$LT$T$GT$$u20$as$u20$core..fmt..Debug$GT$3fmt17hb9251ab4f60895dfE
0000000000325230 t _ZN42_$LT$$RF$T$u20$as$u20$core..fmt..Debug$GT$3fmt17h7608db9522dc072dE
00000000003252b0 t _ZN85_$LT$hermit..arch..x86_64..kernel..fuse..Cmd$LT$T$GT$$u20$as$u20$core..fmt..Debug$GT$3fmt17hc8dff53faa0be292E
00000000003253b0 t _ZN42_$LT$$RF$T$u20$as$u20$core..fmt..Debug$GT$3fmt17h1cc3705fd760e345E
0000000000325470 t _ZN85_$LT$hermit..arch..x86_64..kernel..fuse..Cmd$LT$T$GT$$u20$as$u20$core..fmt..Debug$GT$3fmt17hd1595c4ab060616fE
0000000000325570 t _ZN42_$LT$$RF$T$u20$as$u20$core..fmt..Debug$GT$3fmt17h9e31329b5fbbfed3E
00000000003255f0 t _ZN85_$LT$hermit..arch..x86_64..kernel..fuse..Cmd$LT$T$GT$$u20$as$u20$core..fmt..Debug$GT$3fmt17hf9cc253bfd7d8e08E
00000000003256e0 t _ZN42_$LT$$RF$T$u20$as$u20$core..fmt..Debug$GT$3fmt17h9046edd555123cb9E
0000000000325800 t _ZN85_$LT$hermit..arch..x86_64..kernel..fuse..Rsp$LT$T$GT$$u20$as$u20$core..fmt..Debug$GT$3fmt17h51b9913d119b4fecE
00000000003258f0 t _ZN42_$LT$$RF$T$u20$as$u20$core..fmt..Debug$GT$3fmt17hdbbb334b4b884fa0E
0000000000325920 t _ZN85_$LT$hermit..arch..x86_64..kernel..fuse..Rsp$LT$T$GT$$u20$as$u20$core..fmt..Debug$GT$3fmt17h8cb8367e09ac39feE
0000000000325a10 t _ZN85_$LT$hermit..arch..x86_64..kernel..fuse..Rsp$LT$T$GT$$u20$as$u20$core..fmt..Debug$GT$3fmt17h8e03a1beacefed48E
0000000000325b10 t _ZN85_$LT$hermit..arch..x86_64..kernel..fuse..Rsp$LT$T$GT$$u20$as$u20$core..fmt..Debug$GT$3fmt17ha5f5e69ef285805fE
0000000000325c00 t _ZN42_$LT$$RF$T$u20$as$u20$core..fmt..Debug$GT$3fmt17hd18aaea68778bf80E
0000000000325c30 t _ZN85_$LT$hermit..arch..x86_64..kernel..fuse..Rsp$LT$T$GT$$u20$as$u20$core..fmt..Debug$GT$3fmt17hdf74b81a5253c5abE
0000000000325d20 t _ZN85_$LT$hermit..arch..x86_64..kernel..fuse..Rsp$LT$T$GT$$u20$as$u20$core..fmt..Debug$GT$3fmt17he0c1db6250b963f2E
0000000000325e10 t _ZN85_$LT$hermit..arch..x86_64..kernel..fuse..Rsp$LT$T$GT$$u20$as$u20$core..fmt..Debug$GT$3fmt17he5d2143c0334f98bE
0000000000325f00 t _ZN6hermit4arch6x86_646kernel3pci12init_drivers17h2a4fdfe0f4f4679bE
0000000000328840 t _ZN44_$LT$$RF$T$u20$as$u20$core..fmt..Display$GT$3fmt17hea5163e9a31c3d59E
0000000000328bf0 t _ZN44_$LT$$RF$T$u20$as$u20$core..fmt..Display$GT$3fmt17hb493914aae71386bE
0000000000328cd0 t _ZN42_$LT$$RF$T$u20$as$u20$core..fmt..Debug$GT$3fmt17h0535a179466385a0E
0000000000328db0 t _ZN6hermit4arch6x86_646kernel9virtio_fs22create_virtiofs_driver17he67ff2861acbee7aE
000000000032d170 t _ZN4core3ptr13drop_in_place17h3358613df35cd8e0E
000000000032d2c0 t _ZN6hermit4arch6x86_642mm6paging18page_fault_handler17h10d0d54155078c3aE
000000000032d680 t _ZN6hermit4arch6x86_642mm6paging3map17h23b7fe9bbb14b563E
000000000032d8e0 t _ZN6hermit4arch6x86_642mm6paging18PageTable$LT$L$GT$9map_pages17h106d619b9f3c7b8dE
000000000032dc40 t _ZN6hermit4arch6x86_642mm6paging14PageTableEntry3set17h9376f01b6e4fc874E
000000000032df50 t _ZN6hermit4arch6x86_642mm6paging5unmap17h0c8cc1b500b8f406E
000000000032e170 t _ZN6hermit4arch6x86_642mm6paging12identity_map17hb21f398ea00fda29E
000000000032e2c0 t _ZN42_$LT$$RF$T$u20$as$u20$core..fmt..Debug$GT$3fmt17hd4fd5ad9acd3e2d8E
000000000032e3e0 t _ZN52_$LT$$RF$mut$u20$T$u20$as$u20$core..fmt..Pointer$GT$3fmt17h90da5f98f2c93a10E
000000000032e4d0 t _ZN5alloc11collections5btree6search11search_tree17hb5d709919eebee10E
000000000032e670 t _ZN5alloc11collections5btree6search11search_tree17hb881b8c7fd5055b2E
000000000032e740 t _ZN5alloc11collections5btree6search11search_tree17hbcb0a5e6163c889fE
000000000032e810 t _ZN6hermit4arch6x86_646kernel10systemtime3Rtc15read_all_values17hd3cd4fb1007caca3E
000000000032ea40 T memcpy
000000000032eae0 T memmove
000000000032ec20 T memset
000000000032ecc0 T memcmp
000000000032ed10 t rust_begin_unwind
000000000032f0b0 t rust_oom
000000000032f200 t _ZN6hermit12__sys_malloc17h6e7f51ceca17652eE
000000000032f5b0 t _ZN6hermit10__sys_free17he74b0e871ca2c03cE
000000000032f8f0 t _ZN6hermit19boot_processor_main17h90dea8f41f02f875E
0000000000330e50 t _ZN6hermit5initd17hd60ad225a6f79ef7E
0000000000331120 t _ZN6hermit26application_processor_main17h6a61801af562a96aE
0000000000331520 t _ZN42_$LT$$RF$T$u20$as$u20$core..fmt..Debug$GT$3fmt17h6cae30545e2168bcE
00000000003315e0 t _ZN42_$LT$$RF$T$u20$as$u20$core..fmt..Debug$GT$3fmt17hbb171226c0d4a409E
00000000003316a0 t _ZN50_$LT$$RF$mut$u20$T$u20$as$u20$core..fmt..Debug$GT$3fmt17h56b24fc1ae64b6a6E
00000000003317e0 t _ZN137_$LT$$LT$hermit..arch..x86_64..kernel..irq..ExceptionStackFrame$u20$as$u20$core..fmt..Debug$GT$..fmt..Hex$u20$as$u20$core..fmt..Debug$GT$3fmt17h08a194f03258257aE
0000000000331850 t _ZN5alloc3vec12Vec$LT$T$GT$16into_boxed_slice17hd48f8d0e531572c2E
0000000000331b00 t _ZN5alloc3vec12Vec$LT$T$GT$7reserve17h6bc54907d1c00207E
0000000000331f80 t _ZN5alloc3vec12Vec$LT$T$GT$7reserve17h8534421585f19006E
0000000000332400 t _ZN5alloc3vec12Vec$LT$T$GT$7reserve17hf0244401a8b2ad4eE
0000000000332890 t _ZN5alloc3vec9from_elem17hd8a6f8d981a9a072E
00000000003329d0 t _ZN61_$LT$alloc..vec..Vec$LT$T$GT$$u20$as$u20$core..fmt..Debug$GT$3fmt17h023e4ad90221d33aE
0000000000332a90 t _ZN61_$LT$alloc..vec..Vec$LT$T$GT$$u20$as$u20$core..fmt..Debug$GT$3fmt17hfc7d9697836c71ceE
0000000000332b50 t _ZN66_$LT$alloc..vec..Vec$LT$T$GT$$u20$as$u20$core..ops..drop..Drop$GT$4drop17h772a175d227aafc2E
0000000000332f90 t _ZN6hermit4arch6x86_646kernel3irq22divide_error_exception17h0671cba06773ea1bE
00000000003330c0 t _ZN6hermit4arch6x86_646kernel3irq15debug_exception17hb091dd8a7ca2586eE
00000000003331f0 t _ZN6hermit4arch6x86_646kernel3irq13nmi_exception17hddbef562e9b1b34bE
0000000000333320 t _ZN6hermit4arch6x86_646kernel3irq20breakpoint_exception17h03bc5970974dc949E
0000000000333450 t _ZN6hermit4arch6x86_646kernel3irq18overflow_exception17h72f57476c44019f5E
0000000000333580 t _ZN6hermit4arch6x86_646kernel3irq30bound_range_exceeded_exception17h0ee1ed42602e4745E
00000000003336b0 t _ZN6hermit4arch6x86_646kernel3irq24invalid_opcode_exception17hcc986cf10dc4234fE
00000000003337e0 t _ZN6hermit4arch6x86_646kernel3irq30device_not_available_exception17h36478e8fbfddc001E
0000000000333ac0 t _ZN6hermit4arch6x86_646kernel3irq22double_fault_exception17hdcd4c5e573f656d6E
0000000000333c00 t _ZN6hermit4arch6x86_646kernel3irq37coprocessor_segment_overrun_exception17hc2e9f27be41245eeE
0000000000333d30 t _ZN6hermit4arch6x86_646kernel3irq21invalid_tss_exception17h98aadd2abf8fa02eE
0000000000333e60 t _ZN6hermit4arch6x86_646kernel3irq29segment_not_present_exception17h41eafa2e52b81306E
0000000000333f90 t _ZN6hermit4arch6x86_646kernel3irq29stack_segment_fault_exception17hae6c64ebc33255d8E
00000000003340d0 t _ZN6hermit4arch6x86_646kernel3irq28general_protection_exception17h058c0eaa872aaf11E
0000000000334350 t _ZN6hermit4arch6x86_646kernel3irq18reserved_exception17hf53917373e083c95E
0000000000334480 t _ZN6hermit4arch6x86_646kernel3irq24floating_point_exception17h63ec87e714650371E
00000000003345b0 t _ZN6hermit4arch6x86_646kernel3irq25alignment_check_exception17he2fb4b03c97fd3b8E
00000000003346e0 t _ZN6hermit4arch6x86_646kernel3irq23machine_check_exception17h371a7982ebd4a974E
0000000000334810 t _ZN6hermit4arch6x86_646kernel3irq29simd_floating_point_exception17h10463378d762499fE
0000000000334940 t _ZN6hermit4arch6x86_646kernel3irq24virtualization_exception17hb23d94c42605d43dE
0000000000334a70 t _ZN6hermit4arch6x86_646kernel3irq20unhandled_interrupt017h717933d0b9a0b49eE
0000000000334be0 t _ZN6hermit4arch6x86_646kernel3irq20unhandled_interrupt117h816efd919988c16bE
0000000000334d50 t _ZN6hermit4arch6x86_646kernel3irq20unhandled_interrupt217hea4c5b808c4a07fdE
0000000000334ec0 t _ZN6hermit4arch6x86_646kernel3irq20unhandled_interrupt317hd481fcd379d30dd6E
0000000000335030 t _ZN6hermit4arch6x86_646kernel3irq20unhandled_interrupt417hd7183afc52e956c2E
00000000003351a0 t _ZN6hermit4arch6x86_646kernel3irq20unhandled_interrupt517h79e435e7efc58c45E
0000000000335310 t _ZN6hermit4arch6x86_646kernel3irq20unhandled_interrupt617h662deec1eb0885cfE
0000000000335480 t _ZN6hermit4arch6x86_646kernel3irq20unhandled_interrupt717h6e9cb4221d4dd76eE
00000000003355f0 t _ZN6hermit4arch6x86_646kernel3irq20unhandled_interrupt817h581d6dfa2bf83aceE
0000000000335760 t _ZN6hermit4arch6x86_646kernel3irq20unhandled_interrupt917h8355daa51d2989d2E
00000000003358d0 t _ZN6hermit4arch6x86_646kernel3irq21unhandled_interrupt1017hdc582454610a59fbE
0000000000335a40 t _ZN6hermit4arch6x86_646kernel3irq21unhandled_interrupt1117hb217cc2abb5b483aE
0000000000335bb0 t _ZN6hermit4arch6x86_646kernel3irq21unhandled_interrupt1217h5539b006c06f0c7aE
0000000000335d20 t _ZN6hermit4arch6x86_646kernel3irq21unhandled_interrupt1317ha27b5a5bcd378030E
0000000000335e90 t _ZN6hermit4arch6x86_646kernel3irq21unhandled_interrupt1417h6f9ec0b92d3a9f6dE
0000000000336000 t _ZN6hermit4arch6x86_646kernel3irq21unhandled_interrupt1517ha2f9471cfda86c14E
0000000000336170 t _ZN6hermit4arch6x86_646kernel3irq21unhandled_interrupt1617h105d51b667046025E
00000000003362e0 t _ZN6hermit4arch6x86_646kernel3irq21unhandled_interrupt1717h103c538a6f810b17E
0000000000336450 t _ZN6hermit4arch6x86_646kernel3irq21unhandled_interrupt1817h98f8202fb53da031E
00000000003365c0 t _ZN6hermit4arch6x86_646kernel3irq21unhandled_interrupt1917h6fdc55e51ef1c656E
0000000000336730 t _ZN6hermit4arch6x86_646kernel3irq21unhandled_interrupt2017h888063e232e1efd2E
00000000003368a0 t _ZN6hermit4arch6x86_646kernel3irq21unhandled_interrupt2117h16fc948fe3162925E
0000000000336a10 t _ZN6hermit4arch6x86_646kernel3irq21unhandled_interrupt2217h5caf2a6024b99e13E
0000000000336b80 t _ZN6hermit4arch6x86_646kernel3irq21unhandled_interrupt2317h2ee0830d531ad8acE
0000000000336cf0 t _ZN6hermit4arch6x86_646kernel3irq21unhandled_interrupt2417h23c630f3ab3c24feE
0000000000336e60 t _ZN6hermit4arch6x86_646kernel3irq21unhandled_interrupt2517h04cdf69b7b1c1fb9E
0000000000336fd0 t _ZN6hermit4arch6x86_646kernel3irq21unhandled_interrupt2617hcce1e21a0c5fcfc5E
0000000000337140 t _ZN6hermit4arch6x86_646kernel3irq21unhandled_interrupt2717hb99a2a57324beff7E
00000000003372b0 t _ZN6hermit4arch6x86_646kernel3irq21unhandled_interrupt2817h37ff9dff80a3d5cbE
0000000000337420 t _ZN6hermit4arch6x86_646kernel3irq21unhandled_interrupt2917hb83618d20aacc041E
0000000000337590 t _ZN6hermit4arch6x86_646kernel3irq21unhandled_interrupt3017h4fcdf7f6c8da82a0E
0000000000337700 t _ZN6hermit4arch6x86_646kernel3irq21unhandled_interrupt3117hc3fd03054e1f840aE
0000000000337870 t _ZN6hermit4arch6x86_646kernel3irq17unknown_interrupt17hde00aa5db0f74c04E
00000000003379b0 T irq_install_handler
0000000000337af0 t _ZN6hermit4arch6x86_646kernel3irq12add_irq_name17h571f3d3c35a3974aE
0000000000339280 t _ZN5alloc7raw_vec15RawVec$LT$T$GT$8into_box17h54db66746591bd3bE
00000000003392a0 t _ZN5alloc7raw_vec19RawVec$LT$T$C$A$GT$11allocate_in28_$u7b$$u7b$closure$u7d$$u7d$17h1bd5bf232afe674fE
00000000003392b0 t _ZN5alloc7raw_vec19RawVec$LT$T$C$A$GT$11allocate_in28_$u7b$$u7b$closure$u7d$$u7d$17h0a49acc475566aefE
00000000003392d0 t _ZN5alloc7raw_vec19RawVec$LT$T$C$A$GT$7reserve17h1b7c5153e295e409E
00000000003396d0 t _ZN5alloc7raw_vec19RawVec$LT$T$C$A$GT$7reserve17hca13557b93c29f60E
0000000000339b70 t _ZN5alloc7raw_vec19RawVec$LT$T$C$A$GT$7reserve17hd5c81b3abd0f418bE
0000000000339fe0 t _ZN6hermit4arch6x86_646kernel9processor19get_timestamp_rdtsc17hed8faae81a9aebb9E
000000000033a000 t _ZN6hermit4arch6x86_646kernel9processor20get_timestamp_rdtscp17h41f904d0c3ede3c5E
000000000033a020 t _ZN6hermit4arch6x86_646kernel9processor9configure17h16135a6fcc8a5ba1E
000000000033a3d0 t _ZN4core3str7pattern14TwoWaySearcher4next17h025d7335a2f59c05E
000000000033a650 t _ZN6hermit4arch6x86_646kernel9processor12CpuFrequency31measure_frequency_timer_handler17he8362a59ed20ca4dE
000000000033a690 t _ZN92_$LT$hermit..arch..x86_64..kernel..processor..CpuFrequency$u20$as$u20$core..fmt..Display$GT$3fmt17h6cb5cd39908fe508E
000000000033a710 t _ZN92_$LT$hermit..arch..x86_64..kernel..processor..CpuSpeedStep$u20$as$u20$core..fmt..Display$GT$3fmt17h57a1db8548257172E
000000000033a8d0 t _ZN97_$LT$hermit..arch..x86_64..kernel..processor..CpuFeaturePrinter$u20$as$u20$core..fmt..Display$GT$3fmt17hbc106053bbc3d337E
000000000033b5e0 t _ZN99_$LT$hermit..arch..x86_64..kernel..processor..CpuFrequencySources$u20$as$u20$core..fmt..Display$GT$3fmt17h06ed1f4a83b4d8efE
000000000033b6e0 t _ZN6hermit4arch6x86_646kernel9processor8shutdown17h146fde0898eca14cE
000000000033b9c0 t _ZN49_$LT$log..Level$u20$as$u20$core..fmt..Display$GT$3fmt17hb70e291308b793b4E
000000000033ba00 t _ZN43_$LT$log..NopLogger$u20$as$u20$log..Log$GT$7enabled17h6aba6d71d2501dc2E
000000000033ba10 t _ZN43_$LT$log..NopLogger$u20$as$u20$log..Log$GT$3log17h67d1e37d9e1ee669E
000000000033ba20 t _ZN43_$LT$log..NopLogger$u20$as$u20$log..Log$GT$5flush17h766653c33d367680E
000000000033ba30 t _ZN56_$LT$log..SetLoggerError$u20$as$u20$core..fmt..Debug$GT$3fmt17h56cc2d624eb580c7E
000000000033baf0 t _ZN9raw_cpuid5CpuId26get_extended_function_info17hbfeea813da575b1aE
000000000033bc70 t _ZN9raw_cpuid20ExtendedFunctionInfo22processor_brand_string17he716a61c5d265e43E
000000000033c0b0 t _ZN4core9core_arch3x865xsave7_xgetbv17h13ea575582dc2f8fE
000000000033c0d0 t _ZN4core9core_arch3x865xsave7_xsetbv17h4508a8b608015752E
000000000033c100 t _ZN128_$LT$x86..segmentation..DescriptorBuilder$u20$as$u20$x86..segmentation..BuildDescriptor$LT$x86..segmentation..Descriptor$GT$$GT$6finish17h3057db3b1d02cf7aE
000000000033c260 t _ZN63_$LT$x86..irq..PageFaultError$u20$as$u20$core..fmt..Display$GT$3fmt17h78e5c1445815dbf7E
000000000033c3f3 t __rust_probestack
000000000033c430 T mcount
000000000033c4a0 T mcount_entry
000000000033c610 t _ZN15rftrace_backend7backend24mcount_return_trampoline17hf1d272cfd4c2c37cE
000000000033c680 T mcount_return
000000000033c790 T rftrace_backend_get_events_index
000000000033c7a0 T rftrace_backend_get_events
000000000033c7c0 T rftrace_backend_disable
000000000033c7d0 T rftrace_backend_enable
000000000033c7e0 T rftrace_backend_init
000000000033c840 t _ZN36_$LT$T$u20$as$u20$core..any..Any$GT$7type_id17h43e8fdff855baf39E
000000000033c850 T _ZN4core6option13expect_failed17h81690f475321a41dE
000000000033c8b0 t _ZN4core3ptr13drop_in_place17h1af3d1b91d621802E
000000000033c8c0 T _ZN4core9panicking5panic17h904c05636d10cc7eE
000000000033c910 T _ZN4core9panicking18panic_bounds_check17h92a01834e406a318E
000000000033c990 T _ZN4core9panicking9panic_fmt17hfd95d43e701e2df1E
000000000033c9c0 T _ZN4core3fmt3num3imp52_$LT$impl$u20$core..fmt..Display$u20$for$u20$u64$GT$3fmt17h1a91df3fb2cb4611E
000000000033c9c0 T _ZN4core3fmt3num3imp54_$LT$impl$u20$core..fmt..Display$u20$for$u20$usize$GT$3fmt17hc1dfbce96d2c5d16E
000000000033cae0 T _ZN4core3fmt9Formatter12pad_integral17h8bad8a12294a2b44E
000000000033ce70 t _ZN4core3fmt9Formatter12pad_integral12write_prefix17h9b542baabbda2c1eE
000000000033cec0 T _ZN4core3fmt9Formatter3pad17he2f1b681768ce8feE
000000000033d280 t _ZN44_$LT$$RF$T$u20$as$u20$core..fmt..Display$GT$3fmt17h191304df6a0e7945E
000000000033d2a0 T _ZN47_$LT$std..fs..File$u20$as$u20$std..io..Read$GT$4read17ha10d086a6d021ee5E
000000000033d300 T _ZN48_$LT$std..fs..File$u20$as$u20$std..io..Write$GT$5write17hb4a684dea1ca11d4E
000000000033d360 T _ZN3std2fs11OpenOptions3new17h739dfd04a02e6bc2E
000000000033d360 T _ZN3std2fs4File12with_options17hb24f542c44fbb164E
000000000033d390 T _ZN3std2fs11OpenOptions4read17h1331be3870e61640E
000000000033d3b0 T _ZN3std2fs11OpenOptions5write17h38d7841425204bbbE
000000000033d3d0 T _ZN3std2fs11OpenOptions8truncate17h82f4ee266534ab88E
000000000033d3f0 T _ZN3std2fs11OpenOptions6create17h671338cd16cb5d85E
000000000033d410 T _ZN3std2fs11OpenOptions5_open17h11d3a679e9acf354E
000000000033d480 t _ZN42_$LT$$RF$T$u20$as$u20$core..fmt..Debug$GT$3fmt17hf05176ac4d887348E
000000000033d4f0 t _ZN42_$LT$$RF$T$u20$as$u20$core..fmt..Debug$GT$3fmt17hf92cdb6a268121d3E
000000000033d560 t _ZN44_$LT$$RF$T$u20$as$u20$core..fmt..Display$GT$3fmt17hd04099bb57f289e5E
000000000033d590 t _ZN45_$LT$$RF$T$u20$as$u20$core..fmt..UpperHex$GT$3fmt17h68da30c1ae43f1a0E
000000000033d5c0 t _ZN4core3ops8function6FnOnce40call_once$u7b$$u7b$vtable.shim$u7d$$u7d$17hb559dc90e40ada41E
000000000033d620 t _ZN4core3ptr13drop_in_place17h1281b9a613493800E
000000000033d630 t _ZN9hashbrown3map24HashMap$LT$K$C$V$C$S$GT$6insert17h9a3b600823f89e5bE
000000000033d840 t _ZN9hashbrown3map24HashMap$LT$K$C$V$C$S$GT$7get_mut17hc732119b6f803890E
000000000033daf0 t _ZN9hashbrown3map9make_hash17h9d8217d7fdd5508dE
000000000033dc80 T _ZN68_$LT$std..thread..local..AccessError$u20$as$u20$core..fmt..Debug$GT$3fmt17hcd26d94160b8ef3eE
000000000033dcc0 t _ZN3std3env7_var_os28_$u7b$$u7b$closure$u7d$$u7d$17hb113a8123a0875baE.llvm.12107707050745762634
000000000033dd30 t _ZN3std4sync4once4Once9call_once28_$u7b$$u7b$closure$u7d$$u7d$17h60110b6102bd5101E
000000000033dd90 T _ZN3std4sync4once4Once10call_inner17h986e892d77601964E
000000000033e020 T _ZN70_$LT$std..sync..once..WaiterQueue$u20$as$u20$core..ops..drop..Drop$GT$4drop17ha33ebadf91e6da1cE
000000000033e130 t _ZN3std10sys_common12os_str_bytes3Buf11into_string17h86675345ef61846eE
000000000033e1e0 t _ZN82_$LT$std..sys_common..poison..PoisonError$LT$T$GT$$u20$as$u20$core..fmt..Debug$GT$3fmt17h65819ff5640c1b39E
000000000033e1e0 t _ZN82_$LT$std..sys_common..poison..PoisonError$LT$T$GT$$u20$as$u20$core..fmt..Debug$GT$3fmt17h68e070a5b322a14dE
000000000033e1e0 t _ZN82_$LT$std..sys_common..poison..PoisonError$LT$T$GT$$u20$as$u20$core..fmt..Debug$GT$3fmt17h80bdc07f7042e3bfE
000000000033e1e0 t _ZN82_$LT$std..sys_common..poison..PoisonError$LT$T$GT$$u20$as$u20$core..fmt..Debug$GT$3fmt17hc22b9be27e5f454eE
000000000033e210 t _ZN3std10sys_common4util10dumb_print17h6e4a2aea0fe59eb5E
000000000033e2a0 t _ZN3std10sys_common4util5abort17h27381c1da129b7a3E
000000000033e300 T _ZN3std11collections4hash3map11RandomState3new4KEYS7__getit17hcb0b6fa52eda0a7dE
000000000033e350 T _ZN3std7process5abort17h2fec7c2d812e1f39E
000000000033e360 t _ZN3std5alloc24default_alloc_error_hook17ha8d7200b9f649eb9E
000000000033e410 T rust_oom
000000000033e450 t _ZN44_$LT$$RF$T$u20$as$u20$core..fmt..Display$GT$3fmt17hc87b4e8e6ed8d582E
000000000033e480 t _ZN36_$LT$T$u20$as$u20$core..any..Any$GT$7type_id17h2a6b58975b9e745cE
000000000033e4a0 t _ZN42_$LT$$RF$T$u20$as$u20$core..fmt..Debug$GT$3fmt17h42288e43be667533E
000000000033e4d0 t _ZN4core3ptr13drop_in_place17h0fcbe9e14d6770a3E
000000000033e4e0 t _ZN50_$LT$$RF$mut$u20$W$u20$as$u20$core..fmt..Write$GT$10write_char17h2ba676ac562be27aE
000000000033e600 t _ZN50_$LT$$RF$mut$u20$W$u20$as$u20$core..fmt..Write$GT$9write_fmt17h2bbc6631466a1ccaE
000000000033e650 t _ZN50_$LT$$RF$mut$u20$W$u20$as$u20$core..fmt..Write$GT$9write_str17hc884c7fbfdf6ac94E
000000000033e6b0 t _ZN3std2io8buffered18BufWriter$LT$W$GT$9flush_buf17he1161bacbebd437eE.llvm.7287165654037885573
000000000033e8e0 t _ZN72_$LT$std..io..buffered..BufWriter$LT$W$GT$$u20$as$u20$std..io..Write$GT$5write17h2f6d60b3014d51abE
000000000033ea40 t _ZN73_$LT$std..io..buffered..LineWriter$LT$W$GT$$u20$as$u20$std..io..Write$GT$5write17hfb2d025d2b6906fcE
000000000033ed10 t _ZN3std2io5Write18write_all_vectored17h55d68ed1bf44fcffE
000000000033ef50 T _ZN3std4path95_$LT$impl$u20$core..convert..AsRef$LT$std..path..Path$GT$$u20$for$u20$alloc..string..String$GT$6as_ref17h7a52f4a207b578dfE
000000000033ef70 t _ZN3std10sys_common11thread_info14current_thread17h58f0274fc1650ba9E
000000000033f090 T _ZN3std10sys_common11thread_info3set17hbf57dcf376c762b5E
000000000033f200 T _ZN3std3sys6hermit7process8ExitCode6as_i3217h7ed21a82f9490e56E
000000000033f220 t _ZN4core3ptr13drop_in_place17h4c650cb0fb2a7668E
000000000033f230 T _ZN62_$LT$std..ffi..c_str..NulError$u20$as$u20$core..fmt..Debug$GT$3fmt17hc99942dd381d2ae6E
000000000033f2b0 t _ZN42_$LT$$RF$T$u20$as$u20$core..fmt..Debug$GT$3fmt17h923aff4499972889E
000000000033f330 t _ZN4core3ops8function6FnOnce40call_once$u7b$$u7b$vtable.shim$u7d$$u7d$17hd07b91d958387f65E
000000000033f390 t _ZN4core3ptr13drop_in_place17h3f8702df22724265E
000000000033f3a0 T _ZN69_$LT$std..sync..condvar..Condvar$u20$as$u20$core..ops..drop..Drop$GT$4drop17h4eeb17f3fdec04daE
000000000033f3c0 t _ZN3std10sys_common10bytestring20debug_fmt_bytestring17h0a9b3de177bd7712E
000000000033f730 t _ZN3std3sys6hermit17fast_thread_local9run_dtors17h1178720a9fc2a1dbE
000000000033f810 t _ZN36_$LT$T$u20$as$u20$core..any..Any$GT$7type_id17h420410885e05519fE
000000000033f830 t _ZN36_$LT$T$u20$as$u20$core..any..Any$GT$7type_id17hc1577454e1669376E
000000000033f850 t _ZN44_$LT$$RF$T$u20$as$u20$core..fmt..Display$GT$3fmt17he09eed0961aa9d8fE
000000000033f880 t _ZN4core3ops8function6FnOnce40call_once$u7b$$u7b$vtable.shim$u7d$$u7d$17h40ea1832e6f769edE
000000000033f930 t _ZN4core3ptr13drop_in_place17h47b1bcab2fc550b0E
000000000033f970 t _ZN4core3ptr13drop_in_place17hc5a79f26884e7345E
000000000033f9b0 t _ZN50_$LT$T$u20$as$u20$core..convert..Into$LT$U$GT$$GT$4into17h3acb3c89128fd864E
000000000033fa90 t _ZN3std6thread5local4fast12Key$LT$T$GT$14try_initialize17h4d4688bcd1c0f680E.llvm.17290461852803229719
000000000033fa90 t _ZN3std6thread5local4fast12Key$LT$T$GT$14try_initialize17hc7732d5772b7a569E.llvm.17290461852803229719
000000000033fbd0 t _ZN3std6thread5local4fast12Key$LT$T$GT$14try_initialize17hc486331719fad44bE.llvm.17290461852803229719
000000000033fcf0 t _ZN3std6thread5local4fast13destroy_value17hb78904de0794fb97E.llvm.17290461852803229719
000000000033fd40 t _ZN3std6thread5local4fast13destroy_value17hc7d1af963f6c9cfbE.llvm.17290461852803229719
000000000033fda0 t _ZN3std2io4lazy13Lazy$LT$T$GT$3get17h6ef2913c5eb18bdeE
000000000033fe60 T _ZN3std2io4util4sink17h994b0834bf8a4d79E
000000000033fe60 T _ZN3std2io4util5empty17hc68acb6ad35c7928E
000000000033fe60 t _ZN3std3sys6hermit6thread5guard4init17hc30856010859d070E
000000000033fe60 T _ZN3std3sys6hermit6thread5guard7current17h3f001bc9c90f6b3bE
000000000033fe60 t _ZN50_$LT$T$u20$as$u20$core..convert..From$LT$T$GT$$GT$4from17h02b834388c5171a2E
000000000033fe60 t _ZN50_$LT$T$u20$as$u20$core..convert..From$LT$T$GT$$GT$4from17h8f9b920f15b21620E
000000000033fe70 T _ZN91_$LT$std..sys_common..backtrace.._print..DisplayBacktrace$u20$as$u20$core..fmt..Display$GT$3fmt17hda1d723fd04dc8a8E
0000000000340060 t _ZN3std10sys_common9backtrace10_print_fmt28_$u7b$$u7b$closure$u7d$$u7d$17he9c3bdd1432aee23E
00000000003400f0 t _ZN3std10sys_common9backtrace28__rust_begin_short_backtrace17he43a37fcbdd93dbbE
0000000000340110 t _ZN3std10sys_common9backtrace18rust_backtrace_env17h36eb006a31aa4b2fE
0000000000340230 t __rdl_alloc
0000000000340260 t __rdl_dealloc
0000000000340290 t __rdl_realloc
00000000003402d0 t __rdl_alloc_zeroed
0000000000340310 t _ZN4core3ptr13drop_in_place17h46b985a0b6378a3cE
0000000000340380 t _ZN4core3ptr13drop_in_place17h74eca081ac28655aE
00000000003403c0 t _ZN9hashbrown3raw17RawTable$LT$T$GT$14reserve_rehash17hba344fd7c79576ffE
00000000003409c0 t _ZN9hashbrown3raw17RawTable$LT$T$GT$6insert17ha463ab0dc5970e37E
0000000000340b30 T _ZN3std6thread7Builder3new17h8bca6170236cff45E
0000000000340b60 T _ZN3std6thread4park17hcdbbac4a43728a12E
0000000000340e60 T _ZN3std6thread6Thread3new17h86cb3fbbe61bd7b5E
00000000003410b0 T _ZN3std6thread6Thread6unpark17h7a789503d6319b7eE
00000000003411c0 T _ZN3std6thread6Thread5cname17hd5d093649ef74e89E
0000000000341200 t _ZN81_$LT$std..collections..hash..map..DefaultHasher$u20$as$u20$core..hash..Hasher$GT$5write17h77a6298c33aa2a3cE.llvm.12372893769962894764
0000000000341410 T _ZN3std10sys_common6thread9min_stack17h439082ebd4fe1abcE
0000000000341530 t _ZN3std3sys6hermit2os16init_environment17h9d25d4cf83df870dE
0000000000341ae0 t _ZN3std3sys6hermit2os6getenv17hfd32abb8d12531e0E
0000000000341cb0 T _ZN79_$LT$std..path..Path$u20$as$u20$core..convert..AsRef$LT$std..path..Path$GT$$GT$6as_ref17h912a273a8fd0af5dE
0000000000341cd0 t _ZN42_$LT$$RF$T$u20$as$u20$core..fmt..Debug$GT$3fmt17h91b9e966eaae5a86E
0000000000341d00 t _ZN4core3fmt3num50_$LT$impl$u20$core..fmt..Debug$u20$for$u20$i32$GT$3fmt17hdd3659e1a6e18f2eE
0000000000341d60 t _ZN4core3ptr13drop_in_place17h042333930c35400cE
0000000000341d70 t _ZN4core3ptr13drop_in_place17h0c1a60311c5a73d4E
0000000000341db0 t _ZN4core3ptr13drop_in_place17h24fc8b7b189b31eaE
0000000000341df0 t _ZN4core3ptr13drop_in_place17h465cea26c2478659E
0000000000341e50 t _ZN4core3ptr13drop_in_place17hb1e906ac23803904E
0000000000341e90 t _ZN4core6option15Option$LT$T$GT$6unwrap17h93ea1b6446232c2bE
0000000000341ed0 t _ZN4core6option15Option$LT$T$GT$6unwrap17hdce806768caa79bcE
0000000000341f10 t _ZN58_$LT$alloc..string..String$u20$as$u20$core..fmt..Debug$GT$3fmt17h9a89cfcf67d48421E
0000000000341f40 t _ZN60_$LT$alloc..string..String$u20$as$u20$core..fmt..Display$GT$3fmt17h8bd95b3061f7bc69E
0000000000341f70 T _ZN58_$LT$std..io..error..Error$u20$as$u20$core..fmt..Debug$GT$3fmt17h7d229d8e11f5153aE
0000000000341fa0 T _ZN3std2io5error5Error4_new17h6d49b5253927194fE
0000000000342020 T _ZN3std2io5error5Error4kind17hdb96d6c6725751e1E
0000000000342070 T _ZN57_$LT$std..io..error..Repr$u20$as$u20$core..fmt..Debug$GT$3fmt17he84d6117d523e391E
0000000000342270 T _ZN60_$LT$std..io..error..Error$u20$as$u20$core..fmt..Display$GT$3fmt17h918283ed535c9c3bE
0000000000342500 t _ZN3std2io5impls71_$LT$impl$u20$std..io..Write$u20$for$u20$alloc..boxed..Box$LT$W$GT$$GT$5write17h52f2f3a38c5c2f83E
0000000000342540 t _ZN3std2io5impls71_$LT$impl$u20$std..io..Write$u20$for$u20$alloc..boxed..Box$LT$W$GT$$GT$14write_vectored17h49b55bb094624796E
0000000000342580 t _ZN3std2io5impls71_$LT$impl$u20$std..io..Write$u20$for$u20$alloc..boxed..Box$LT$W$GT$$GT$17is_write_vectored17hbe0d8cfda84fb0d3E
00000000003425a0 t _ZN3std2io5impls71_$LT$impl$u20$std..io..Write$u20$for$u20$alloc..boxed..Box$LT$W$GT$$GT$5flush17h07c55b80a3cefa79E
00000000003425d0 t _ZN3std2io5impls71_$LT$impl$u20$std..io..Write$u20$for$u20$alloc..boxed..Box$LT$W$GT$$GT$9write_all17h2731ad6df6d9ad3fE
0000000000342610 t _ZN3std2io5impls71_$LT$impl$u20$std..io..Write$u20$for$u20$alloc..boxed..Box$LT$W$GT$$GT$9write_fmt17hfac1a81174ecfcb0E
0000000000342670 t _ZN3std2io5Write9write_all17h590e520cf0f90acaE
0000000000342790 t _ZN3std2io5Write18write_all_vectored17haa8ce124b0676376E
0000000000342970 t _ZN3std2io5Write9write_fmt17h35b4699148acceb1E
0000000000342ac0 t _ZN3std9panicking12default_hook17h64c145fdb3051aa9E
0000000000342d20 t _ZN3std9panicking12default_hook28_$u7b$$u7b$closure$u7d$$u7d$17h4a983a10d362e5f3E
0000000000342f40 T _ZN3std9panicking15begin_panic_fmt17hac864cea853b1521E
0000000000342f90 T rust_begin_unwind
0000000000342ff0 T _ZN90_$LT$std..panicking..begin_panic_handler..PanicPayload$u20$as$u20$core..panic..BoxMeUp$GT$8take_box17he695341e2e9a98f8E
0000000000343100 T _ZN90_$LT$std..panicking..begin_panic_handler..PanicPayload$u20$as$u20$core..panic..BoxMeUp$GT$3get17h9ccdba9bc6a38da0E
00000000003431b0 t _ZN3std9panicking11begin_panic17hdeea1439cdce1fc0E
00000000003431f0 t _ZN91_$LT$std..panicking..begin_panic..PanicPayload$LT$A$GT$$u20$as$u20$core..panic..BoxMeUp$GT$8take_box17hc29a226583395870E
0000000000343260 t _ZN91_$LT$std..panicking..begin_panic..PanicPayload$LT$A$GT$$u20$as$u20$core..panic..BoxMeUp$GT$3get17hf9b85b660059f23dE
0000000000343290 T _ZN3std9panicking20rust_panic_with_hook17h7656dfa483819403E
00000000003433e0 T rust_panic
0000000000343450 T _ZN3std2rt19lang_start_internal17h4fa75326d7c3d627E
00000000003435a0 T _ZN62_$LT$std..io..error..ErrorKind$u20$as$u20$core..fmt..Debug$GT$3fmt17h79982c5dacdaf544E
0000000000343710 t _ZN3std3sys6hermit2fs4File4open17h6095201e6aeb6fa9E
0000000000343b60 T _ZN66_$LT$std..sys..hermit..stdio..Stderr$u20$as$u20$std..io..Write$GT$5write17h8e2b5826f2577e74E
0000000000343c40 T _ZN66_$LT$std..sys..hermit..stdio..Stderr$u20$as$u20$std..io..Write$GT$14write_vectored17h1808c88f15d12540E
0000000000343d20 t _ZN66_$LT$std..sys..hermit..stdio..Stderr$u20$as$u20$std..io..Write$GT$17is_write_vectored17h07baf46bfc38337eE
0000000000343d30 T _ZN66_$LT$std..sys..hermit..stdio..Stderr$u20$as$u20$std..io..Write$GT$5flush17h9a9c40886fe849dbE
0000000000343d30 T _ZN66_$LT$std..sys..hermit..stdio..Stdout$u20$as$u20$std..io..Write$GT$5flush17h53725dcf0128dc85E
0000000000343d50 t _ZN3std9panicking18update_panic_count11PANIC_COUNT7__getit17hc269a8745086c0ebE
0000000000343da0 t _ZN42_$LT$$RF$T$u20$as$u20$core..fmt..Debug$GT$3fmt17h35d70ccbf3eff612E
0000000000343dd0 t _ZN4core3fmt5Write10write_char17h30b11dc71b4b4b27E
0000000000343f00 t _ZN4core3fmt5Write10write_char17hc0cc8dd6efc160efE
0000000000344030 t _ZN4core3fmt5Write9write_fmt17h280f47003e358362E
0000000000344080 t _ZN4core3fmt5Write9write_fmt17h5f49cb8fb8b006c5E
00000000003440d0 t _ZN4core3ptr13drop_in_place17h1ba83d6d1960ac52E
00000000003440e0 t _ZN50_$LT$$RF$mut$u20$W$u20$as$u20$core..fmt..Write$GT$10write_char17h66e300f869aefdcdE
0000000000344230 t _ZN50_$LT$$RF$mut$u20$W$u20$as$u20$core..fmt..Write$GT$10write_char17he27d7176b9a1fc15E
0000000000344380 t _ZN50_$LT$$RF$mut$u20$W$u20$as$u20$core..fmt..Write$GT$9write_fmt17h1438dcbc26ba48f7E
00000000003443d0 t _ZN50_$LT$$RF$mut$u20$W$u20$as$u20$core..fmt..Write$GT$9write_fmt17h71c14b29a011fed9E
0000000000344420 t _ZN50_$LT$$RF$mut$u20$W$u20$as$u20$core..fmt..Write$GT$9write_str17h2e8fa32648adf970E
00000000003444c0 t _ZN50_$LT$$RF$mut$u20$W$u20$as$u20$core..fmt..Write$GT$9write_str17h397aa71ed0fa4191E
0000000000344560 t _ZN3std5error5Error7type_id17hf4d96c6992fbcc6bE
0000000000344580 t _ZN3std5error5Error9backtrace17hb68d1cdda1a2187aE
0000000000344590 t _ZN3std5error5Error5cause17h4f34779c6b7dfe9dE
0000000000344590 t _ZN3std5error5Error6source17he1f37f0caf5a3ad2E
00000000003445a0 T _ZN243_$LT$std..error..$LT$impl$u20$core..convert..From$LT$alloc..string..String$GT$$u20$for$u20$alloc..boxed..Box$LT$dyn$u20$std..error..Error$u2b$core..marker..Send$u2b$core..marker..Sync$GT$$GT$..from..StringError$u20$as$u20$std..error..Error$GT$11description17h051dba641849fd13E
00000000003445a0 T _ZN3std4path100_$LT$impl$u20$core..convert..AsRef$LT$std..path..Path$GT$$u20$for$u20$std..ffi..os_str..OsString$GT$6as_ref17ha79430b34be12a79E
00000000003445c0 T _ZN244_$LT$std..error..$LT$impl$u20$core..convert..From$LT$alloc..string..String$GT$$u20$for$u20$alloc..boxed..Box$LT$dyn$u20$std..error..Error$u2b$core..marker..Send$u2b$core..marker..Sync$GT$$GT$..from..StringError$u20$as$u20$core..fmt..Display$GT$3fmt17h9dcf24a41fd5280cE
00000000003445f0 T _ZN242_$LT$std..error..$LT$impl$u20$core..convert..From$LT$alloc..string..String$GT$$u20$for$u20$alloc..boxed..Box$LT$dyn$u20$std..error..Error$u2b$core..marker..Send$u2b$core..marker..Sync$GT$$GT$..from..StringError$u20$as$u20$core..fmt..Debug$GT$3fmt17hee2a2445d57baffaE
0000000000344620 t _ZN80_$LT$std..io..Write..write_fmt..Adaptor$LT$T$GT$$u20$as$u20$core..fmt..Write$GT$9write_str17h2b090bbe4ca46070E
00000000003446c0 t _ZN80_$LT$std..io..Write..write_fmt..Adaptor$LT$T$GT$$u20$as$u20$core..fmt..Write$GT$9write_str17h8b545e4b32c1c77bE
0000000000344760 t _ZN3std10sys_common11at_exit_imp7cleanup17h26895b22c8739cc3E
0000000000344900 t _ZN3std10sys_common11at_exit_imp4push17h31d9de2b470db61aE
00000000003449e0 t _ZN3std3sys6hermit6thread6Thread15new_with_coreid12thread_start17h1c102058503eb083E
0000000000344af0 T _ZN3std3sys6hermit6thread6Thread3new17hc435568ff94ef59eE
0000000000344c40 T _ZN3std3sys6hermit6thread6Thread4join17h6788dadb4bb957e9E
0000000000344c60 t _ZN3std3sys6hermit14abort_internal17h86468f5107c73e04E
0000000000344c70 T __rust_abort
0000000000344c80 T runtime_entry
0000000000344cc0 t _ZN3std3sys6hermit17decode_error_kind17h6696733886f6daffE
0000000000344d70 t _ZN5alloc7raw_vec19RawVec$LT$T$C$A$GT$11allocate_in28_$u7b$$u7b$closure$u7d$$u7d$17h0b0aa41f20ea821aE.llvm.9220543134599543135
0000000000344d70 t _ZN5alloc7raw_vec19RawVec$LT$T$C$A$GT$11allocate_in28_$u7b$$u7b$closure$u7d$$u7d$17h70d9782988b61e7aE.llvm.9220543134599543135
0000000000344d90 t _ZN5alloc7raw_vec19RawVec$LT$T$C$A$GT$13reserve_exact17hcd7aff4730ae03dcE
0000000000344e30 t _ZN5alloc7raw_vec19RawVec$LT$T$C$A$GT$13shrink_to_fit17h14e7fecca6ca642dE
0000000000344eb0 t _ZN5alloc7raw_vec19RawVec$LT$T$C$A$GT$7reserve17h1fa3bb4fc5a3104bE
0000000000344eb0 t _ZN5alloc7raw_vec19RawVec$LT$T$C$A$GT$7reserve17hc967a9ab0277d573E
0000000000344fc0 t _ZN5alloc7raw_vec19RawVec$LT$T$C$A$GT$7reserve17h70b6331f7785ee21E
0000000000345070 t _ZN4core3ptr13drop_in_place17ha1e3539062fd6364E
0000000000345080 t _ZN4core3ptr13drop_in_place17hac653286acd8b021E
00000000003450e0 t _ZN4core5slice29_$LT$impl$u20$$u5b$T$u5d$$GT$15copy_from_slice17hb5b0ed74807d9363E
00000000003451f0 t _ZN3std2io5stdio6stdout11stdout_init17hb46e18c01d5c657dE
00000000003452d0 T _ZN57_$LT$std..io..stdio..Stdout$u20$as$u20$std..io..Write$GT$9write_fmt17hb4cef555d859ce71E
0000000000345440 T _ZN3std2io5stdio9set_panic17h091b9b2459847961E
0000000000345580 T _ZN3std2io5stdio6_print17h180e228207bcbd8cE
0000000000345870 t _ZN3std2io5Write9write_all17h03ae094c44c771bbE
0000000000345a60 t _ZN5alloc4sync12Arc$LT$T$GT$9drop_slow17hb9fc2c6f7db4c165E
0000000000345b50 t _ZN5alloc4sync12Arc$LT$T$GT$9drop_slow17hc2f86d19ff8083fdE
0000000000345bf0 T _ZN72_$LT$std..sys..hermit..fd..FileDesc$u20$as$u20$core..ops..drop..Drop$GT$4drop17h6c1a019737c36b4fE
0000000000345c10 T __rust_start_panic
0000000000345c20 t _ZN11panic_abort18__rust_start_panic5abort17h03e3810898560024E
0000000000345c30 T _ZN10hermit_abi8Priority4from17h6780e1b58b85a7c1E
0000000000345c30 T _ZN10hermit_abi8Priority4into17h7e86ce10916147e9E
0000000000345c50 T _ZN10hermit_abi12network_init17h67c8e4fd45cd0256E
0000000000345c60 t _ZN4core3ptr13drop_in_place17h18aa86246db034caE
0000000000345c70 T _ZN50_$LT$hermit_sys..SysLogger$u20$as$u20$log..Log$GT$7enabled17he23d7deb08e32fc4E
0000000000345c80 T _ZN50_$LT$hermit_sys..SysLogger$u20$as$u20$log..Log$GT$5flush17h9ed89aa66da1c186E
0000000000345c90 T _ZN50_$LT$hermit_sys..SysLogger$u20$as$u20$log..Log$GT$3log17ha59e8413530fb3c2E
0000000000345d10 T sys_network_init
0000000000345db0 t _ZN4core3ptr13drop_in_place17h4258e53fc3d6a4bdE
0000000000345dc0 T _ZN49_$LT$log..Level$u20$as$u20$core..fmt..Display$GT$3fmt17h9efb08382252ce2dE
0000000000345e00 T _ZN43_$LT$log..NopLogger$u20$as$u20$log..Log$GT$7enabled17h22f56b3e7baa69edE
0000000000345e10 T _ZN43_$LT$log..NopLogger$u20$as$u20$log..Log$GT$3log17hab28eaab00dd745cE
0000000000345e20 T _ZN43_$LT$log..NopLogger$u20$as$u20$log..Log$GT$5flush17he51916b9aeeb6f2aE
0000000000345e30 T _ZN3log10set_logger17hc0d136bb78585552E
0000000000345eb0 T _ZN3log17__private_api_log17hbbb60accfeda8b14E
0000000000345f70 T _ZN56_$LT$log..SetLoggerError$u20$as$u20$core..fmt..Debug$GT$3fmt17h2321c9504eca576cE
0000000000345fd0 t _ZN42_$LT$$RF$T$u20$as$u20$core..fmt..Debug$GT$3fmt17he657fb5f9d08ddf1E
0000000000346000 T _ZN9hashbrown3raw4sse25Group12static_empty17h7254189def27592aE
0000000000346020 T _ZN9hashbrown3raw11Fallibility17capacity_overflow17hbbbaa4c184b1e322E
0000000000346050 T _ZN9hashbrown3raw11Fallibility9alloc_err17h6cf4c5bc4b536a1aE
0000000000346090 T _ZN9hashbrown3raw19capacity_to_buckets17hc562e31ecd372378E
0000000000346110 T _ZN9hashbrown3raw23bucket_mask_to_capacity17hd036d379658971adE
0000000000346140 T _ZN9backtrace5print12BacktraceFmt3new17hbf0e958eb65e02d9E
0000000000346190 T _ZN9backtrace5print12BacktraceFmt11add_context17hfc71dfe0efa24302E
0000000000346190 T _ZN9backtrace5print12BacktraceFmt6finish17he191e9652aba77d1E
00000000003461a0 T _ZN5alloc6string104_$LT$impl$u20$core..convert..From$LT$alloc..string..String$GT$$u20$for$u20$alloc..vec..Vec$LT$u8$GT$$GT$4from17he0cde91cf7d0cfccE
00000000003461d0 T _ZN5alloc3vec12Vec$LT$T$GT$5drain17end_assert_failed17hde2102745f0fdf7aE
0000000000346250 t _ZN5alloc7raw_vec19RawVec$LT$T$C$A$GT$11allocate_in28_$u7b$$u7b$closure$u7d$$u7d$17h5fc726f5c111dd62E.llvm.16383343937901584768
0000000000346270 t _ZN5alloc7raw_vec19RawVec$LT$T$C$A$GT$11try_reserve17h80e1cfea29ba313cE
0000000000346340 T _ZN5alloc7raw_vec17capacity_overflow17hb1d9e371cd179590E
0000000000346360 t _ZN4core3ptr13drop_in_place17h5f489dfdec4d3c41E
0000000000346370 T _ZN5alloc3fmt6format17h45980c31248951b3E
0000000000346500 T _ZN5alloc5alloc18handle_alloc_error17h6598ca6d702636c5E
0000000000346520 t _ZN4core3ptr13drop_in_place17h3ecbcfacbf1799b7E
0000000000346530 t _ZN50_$LT$$RF$mut$u20$W$u20$as$u20$core..fmt..Write$GT$10write_char17he423ae7fbcfec635E
0000000000346690 t _ZN50_$LT$$RF$mut$u20$W$u20$as$u20$core..fmt..Write$GT$9write_fmt17hdca4f90757ddb80dE
00000000003466e0 t _ZN50_$LT$$RF$mut$u20$W$u20$as$u20$core..fmt..Write$GT$9write_str17h7132e360e541b18eE
0000000000346770 T _ZN5alloc6string13FromUtf8Error10into_bytes17hf4338cd2f938b5e0E
00000000003467a0 t _ZN4core5slice29_$LT$impl$u20$$u5b$T$u5d$$GT$15copy_from_slice17h4a1d4e7f91be3d52E
00000000003468b0 t _ZN42_$LT$$RF$T$u20$as$u20$core..fmt..Debug$GT$3fmt17he6fd458f65cfed25E
0000000000346920 T _ZN4core3fmt3num52_$LT$impl$u20$core..fmt..LowerHex$u20$for$u20$i8$GT$3fmt17h120533d2ab544edeE
0000000000346920 T _ZN4core3fmt3num52_$LT$impl$u20$core..fmt..LowerHex$u20$for$u20$u8$GT$3fmt17h6d7bb11f39585ef4E
00000000003469c0 T _ZN4core3fmt3num52_$LT$impl$u20$core..fmt..UpperHex$u20$for$u20$i8$GT$3fmt17hc3cc66ff30b09820E
00000000003469c0 T _ZN4core3fmt3num52_$LT$impl$u20$core..fmt..UpperHex$u20$for$u20$u8$GT$3fmt17hea50d8531e223c9cE
0000000000346a60 T _ZN4core3fmt3num53_$LT$impl$u20$core..fmt..LowerHex$u20$for$u20$i32$GT$3fmt17h67ab6d20e715180cE
0000000000346a60 T _ZN4core3fmt3num53_$LT$impl$u20$core..fmt..LowerHex$u20$for$u20$u32$GT$3fmt17h5f4c4f4c1e9378d9E
0000000000346b00 T _ZN4core3fmt3num53_$LT$impl$u20$core..fmt..UpperHex$u20$for$u20$i32$GT$3fmt17h1f997c27a82561b5E
0000000000346b00 T _ZN4core3fmt3num53_$LT$impl$u20$core..fmt..UpperHex$u20$for$u20$u32$GT$3fmt17hb0b06c79a16491deE
0000000000346ba0 T _ZN4core3fmt3num53_$LT$impl$u20$core..fmt..LowerHex$u20$for$u20$i64$GT$3fmt17h9a742014a92c93bfE
0000000000346ba0 T _ZN4core3fmt3num53_$LT$impl$u20$core..fmt..LowerHex$u20$for$u20$u64$GT$3fmt17h692f3a7df46c3013E
0000000000346ba0 T _ZN4core3fmt3num55_$LT$impl$u20$core..fmt..LowerHex$u20$for$u20$isize$GT$3fmt17h6e02f78ab85d2e47E
0000000000346ba0 T _ZN4core3fmt3num55_$LT$impl$u20$core..fmt..LowerHex$u20$for$u20$usize$GT$3fmt17hf129c988a7b67a3bE
0000000000346c50 T _ZN4core3fmt3num53_$LT$impl$u20$core..fmt..UpperHex$u20$for$u20$i64$GT$3fmt17hfeeb2551d43ec37fE
0000000000346c50 T _ZN4core3fmt3num53_$LT$impl$u20$core..fmt..UpperHex$u20$for$u20$u64$GT$3fmt17h50cb01c9ed616f6aE
0000000000346c50 T _ZN4core3fmt3num55_$LT$impl$u20$core..fmt..UpperHex$u20$for$u20$isize$GT$3fmt17h49153e08373996f2E
0000000000346c50 T _ZN4core3fmt3num55_$LT$impl$u20$core..fmt..UpperHex$u20$for$u20$usize$GT$3fmt17h04b727603207d92eE
0000000000346d00 t _ZN36_$LT$T$u20$as$u20$core..any..Any$GT$7type_id17h95748e8debff4fbbE
0000000000346d20 T _ZN4core6option13expect_failed17h6a8286c6bbd4cbbcE
0000000000346d90 T _ZN4core5panic9PanicInfo7payload17h177d1533e59bc9ebE
0000000000346db0 T _ZN4core5panic9PanicInfo7message17hb68c4c1d29360700E
0000000000346dd0 T _ZN4core5panic9PanicInfo8location17hd0515b8266e476eeE
0000000000346df0 T _ZN4core5panic8Location6caller17h1b7f3844e7c65a51E
0000000000346e10 T _ZN60_$LT$core..panic..Location$u20$as$u20$core..fmt..Display$GT$3fmt17hafe4aa1349f56502E
0000000000346ea0 t _ZN71_$LT$core..ops..range..Range$LT$Idx$GT$$u20$as$u20$core..fmt..Debug$GT$3fmt17h1b159c6caee17dcbE
0000000000347310 T _ZN4core5slice6memchr6memchr17h8b976da5e8bf448bE
0000000000347500 T _ZN4core5slice6memchr7memrchr17h77ec30499f247706E
0000000000347650 T _ZN4core3str9from_utf817h3f14c3d1938b6445E
00000000003478e0 T _ZN4core3str16slice_error_fail17h40c3b71d74c0a3e9E
0000000000347cd0 T _ZN4core3num52_$LT$impl$u20$core..str..FromStr$u20$for$u20$u64$GT$8from_str17h6cf4ce04327877bcE
0000000000347cd0 T _ZN4core3num54_$LT$impl$u20$core..str..FromStr$u20$for$u20$usize$GT$8from_str17h7c5f3c6e47a3aab1E
0000000000347d70 T _ZN4core5slice20slice_index_len_fail17hd6dc387b8e9bafb1E
0000000000347df0 T _ZN4core5slice22slice_index_order_fail17hbbd090adbdbea504E
0000000000347e70 T _ZN4core5slice25slice_index_overflow_fail17hda908e6fb084116eE
0000000000347ea0 t _ZN4core7unicode9printable5check17hf4fee53362adcb7bE.llvm.16228255209884230709
0000000000347fd0 T _ZN4core7unicode9printable12is_printable17h5aa875b5d2e82179E
0000000000348230 t _ZN4core3ptr13drop_in_place17h085c48c09c78ed1eE
0000000000348240 T _ZN4core9panicking5panic17hc6f3a886b8514acbE
00000000003482a0 T _ZN4core9panicking18panic_bounds_check17h36ca66217f4c9d04E
0000000000348320 T _ZN4core9panicking9panic_fmt17h50ae7d1128a26946E
0000000000348360 T _ZN4core6result13unwrap_failed17h3ddc1908d3734d3bE
0000000000348400 T _ZN4core3fmt3num3imp51_$LT$impl$u20$core..fmt..Display$u20$for$u20$u8$GT$3fmt17h6d2d41ac091f90e9E
00000000003484a0 T _ZN4core3fmt3num3imp52_$LT$impl$u20$core..fmt..Display$u20$for$u20$i32$GT$3fmt17h30e67462aa7883f5E
00000000003485d0 T _ZN4core3fmt3num3imp52_$LT$impl$u20$core..fmt..Display$u20$for$u20$u32$GT$3fmt17h89a89b60c0af6f0cE
00000000003486f0 T _ZN4core3fmt3num3imp52_$LT$impl$u20$core..fmt..Display$u20$for$u20$u64$GT$3fmt17hdd223b081feb775dE
00000000003486f0 T _ZN4core3fmt3num3imp54_$LT$impl$u20$core..fmt..Display$u20$for$u20$usize$GT$3fmt17h1080674774dff711E
0000000000348820 T _ZN4core7unicode12unicode_data15grapheme_extend6lookup17h88f96d2e8c984fcfE
0000000000348980 t _ZN4core3ops8function6FnOnce9call_once17haed9ad9db4ef6d5aE.llvm.1823201007772383220
00000000003489b0 t _ZN4core3ptr13drop_in_place17hc3354e15b234e742E
00000000003489c0 T _ZN59_$LT$core..fmt..Arguments$u20$as$u20$core..fmt..Display$GT$3fmt17hcb8c1e554ecfc626E
0000000000348a10 T _ZN4core3fmt5write17h18f2f01a0707fe12E
0000000000348cc0 T _ZN4core3fmt9Formatter12pad_integral17h353d8789f1bc1e55E
0000000000349190 t _ZN4core3fmt9Formatter12pad_integral12write_prefix17hcbb797e2ec537d5aE
0000000000349200 T _ZN4core3fmt9Formatter3pad17hfb86b596c8b14a9eE
0000000000349830 T _ZN4core3fmt9Formatter9write_str17h227606babb0772b5E
0000000000349830 T _ZN57_$LT$core..fmt..Formatter$u20$as$u20$core..fmt..Write$GT$9write_str17h971d96d7e0695ae7E
0000000000349870 T _ZN4core3fmt9Formatter9write_fmt17h264ac71b7431d2c9E
0000000000349870 T _ZN57_$LT$core..fmt..Formatter$u20$as$u20$core..fmt..Write$GT$9write_fmt17h9727f9e559d9e276E
00000000003498c0 T _ZN4core3fmt9Formatter9alternate17hf1afa82f9eca6315E
00000000003498e0 T _ZN4core3fmt9Formatter15debug_lower_hex17h2a8641e67bfd02c0E
0000000000349900 T _ZN4core3fmt9Formatter15debug_upper_hex17hd2b28b55d7fcb09aE
0000000000349920 T _ZN4core3fmt9Formatter12debug_struct17h966d15add01e1f21E
0000000000349970 T _ZN4core3fmt9Formatter11debug_tuple17h4ab2bb834653221aE
00000000003499c0 T _ZN4core3fmt9Formatter10debug_list17hbb4167b4ade06c3bE
0000000000349a00 T _ZN57_$LT$core..fmt..Formatter$u20$as$u20$core..fmt..Write$GT$10write_char17h6d380c00cf9c22ddE
0000000000349a30 T _ZN40_$LT$str$u20$as$u20$core..fmt..Debug$GT$3fmt17hec24d8116df54abfE
0000000000349f30 T _ZN42_$LT$str$u20$as$u20$core..fmt..Display$GT$3fmt17h1ea764f7fa8674e9E
0000000000349f60 T _ZN41_$LT$char$u20$as$u20$core..fmt..Debug$GT$3fmt17hddcf7ade0a7e133eE
000000000034a250 t _ZN4core3str6traits101_$LT$impl$u20$core..slice..SliceIndex$LT$str$GT$$u20$for$u20$core..ops..range..Range$LT$usize$GT$$GT$5index28_$u7b$$u7b$closure$u7d$$u7d$17h75decaa0a2bf8387E
000000000034a290 t _ZN4core3str6traits105_$LT$impl$u20$core..slice..SliceIndex$LT$str$GT$$u20$for$u20$core..ops..range..RangeFrom$LT$usize$GT$$GT$5index28_$u7b$$u7b$closure$u7d$$u7d$17h0e8a37a520ba6febE
000000000034a2d0 T _ZN53_$LT$core..fmt..Error$u20$as$u20$core..fmt..Debug$GT$3fmt17h55eeef269e4cc41eE
000000000034a300 t _ZN42_$LT$$RF$T$u20$as$u20$core..fmt..Debug$GT$3fmt17hf3c1423f31c76914E
000000000034a330 t _ZN44_$LT$$RF$T$u20$as$u20$core..fmt..Display$GT$3fmt17h2ed2aaf6280c2a20E
000000000034a360 t _ZN4core3ptr13drop_in_place17h222284c036a04e06E
000000000034a370 T _ZN60_$LT$core..cell..BorrowError$u20$as$u20$core..fmt..Debug$GT$3fmt17h2cff0a2d422d3632E
000000000034a3a0 T _ZN63_$LT$core..cell..BorrowMutError$u20$as$u20$core..fmt..Debug$GT$3fmt17h39e21dfe919d8e5eE
000000000034a3d0 T _ZN68_$LT$core..fmt..builders..PadAdapter$u20$as$u20$core..fmt..Write$GT$9write_str17hf876092f51f27e51E
000000000034a7c0 T _ZN4core3fmt8builders11DebugStruct5field17h30c02d8a0609a2a2E
000000000034a980 T _ZN4core3fmt8builders11DebugStruct6finish17h8a1240d278899745E
000000000034a9e0 T _ZN4core3fmt8builders10DebugTuple5field17heb8133d655f7c048E
000000000034ab10 T _ZN4core3fmt8builders10DebugTuple6finish17h3033b0acf46ffc06E
000000000034ab90 t _ZN4core3fmt8builders10DebugInner5entry17hb551a19c6e1b0c52E.llvm.10609422131044023868
000000000034aca0 T _ZN4core3fmt8builders8DebugSet5entry17h3a24475cdc123e2dE
000000000034aca0 T _ZN4core3fmt8builders9DebugList5entry17h9b31e8597a7ad7adE
000000000034ace0 T _ZN4core3fmt8builders9DebugList6finish17h7ba36bbc671ee006E
000000000034ad20 t _ZN4core3fmt5Write10write_char17hbda9256434a7b9fdE
000000000034ade0 t _ZN4core3fmt5Write9write_fmt17h338b939e24419b82E
000000000034ae30 t _ZN50_$LT$$RF$mut$u20$W$u20$as$u20$core..fmt..Write$GT$9write_str17h2efdc49e8d70afbdE
000000000034ae60 t _ZN50_$LT$$RF$mut$u20$W$u20$as$u20$core..fmt..Write$GT$10write_char17h768a3ec21108e717E
000000000034af40 t _ZN50_$LT$$RF$mut$u20$W$u20$as$u20$core..fmt..Write$GT$9write_fmt17hf9560a6939aeb700E
000000000034af90 t _ZN4core3str6traits103_$LT$impl$u20$core..slice..SliceIndex$LT$str$GT$$u20$for$u20$core..ops..range..RangeTo$LT$usize$GT$$GT$5index28_$u7b$$u7b$closure$u7d$$u7d$17hb479493acedafe88E
000000000034afc0 t _ZN4core3str6traits105_$LT$impl$u20$core..slice..SliceIndex$LT$str$GT$$u20$for$u20$core..ops..range..RangeFrom$LT$usize$GT$$GT$5index28_$u7b$$u7b$closure$u7d$$u7d$17h0e8a37a520ba6febE
000000000034b000 T _ZN82_$LT$core..char..EscapeDebug$u20$as$u20$core..iter..traits..iterator..Iterator$GT$4next17h552cd154a2601f3eE
000000000034b000 T _ZN84_$LT$core..char..EscapeDefault$u20$as$u20$core..iter..traits..iterator..Iterator$GT$4next17h8ebcb7bf8c03ffe5E
000000000034b0d0 T _ZN4core3str5lossy9Utf8Lossy10from_bytes17hb0f2ed5d562ec6c4E
000000000034b0d0 T _ZN4core3str5lossy9Utf8Lossy8from_str17h7b82f8d238962b2fE
000000000034b0f0 T _ZN4core3str5lossy9Utf8Lossy6chunks17h448878428bd3deaaE
000000000034b110 T _ZN96_$LT$core..str..lossy..Utf8LossyChunksIter$u20$as$u20$core..iter..traits..iterator..Iterator$GT$4next17hcf0ce4b051b8bbaaE
000000000034b560 T _ZN66_$LT$core..str..lossy..Utf8Lossy$u20$as$u20$core..fmt..Display$GT$3fmt17hcb0bc1f528234f90E
000000000034c680 d _ZN6hermit8syscalls3SYS17h7e26aacbc257809bE
000000000034c700 d _ZN6hermit9scheduler5TASKS17h0e67f0831dd5f779E
000000000034c880 d _ZN6hermit8syscalls5tasks12__sys_spawn212CORE_COUNTER17h8615cf4efbe76ef9E
000000000034c900 d _ZN6hermit8syscalls6random23PARK_MILLER_LEHMER_SEED17h6b1b1088ca1165d4E
000000000034ca80 d _ZN6hermit7console7CONSOLE17h3124c30419fdf8efE
000000000034cc00 d _ZN6hermit8syscalls2fs10FILESYSTEM17hb9de2d63e65b4aaeE
000000000034cd80 d _ZN6hermit7drivers3net7NET_SEM17hb1e8264f240aba42E
000000000034d280 d _ZN6hermit4arch6x86_642mm11physicalmem18PHYSICAL_FREE_LIST17haf45f34b82366460E
000000000034d400 d _ZN6hermit4arch6x86_642mm10virtualmem16KERNEL_FREE_LIST17h4004dda1db25addeE
000000000034d580 d _ZN6hermit4arch6x86_646kernel9BOOT_INFO17hdc2cef0cd3783f29E
000000000034d588 d _ZN6hermit4arch6x86_646kernel4COM117h94b7a028643e6ce7E
000000000034d600 d _ZN6hermit4arch6x86_646kernel3pci11PCI_DRIVERS17h953a8e4172a84f29E
000000000034d780 d _ZN6hermit4arch6x86_646kernel3pci12PCI_ADAPTERS17h3e36bab3b3765d87E
000000000034d900 d _ZN6hermit8syscalls10interfaces11DRIVER_LOCK17h962eb5018c34b3a7E
000000000034da80 d _ZN6hermit9ALLOCATOR17hceb5f454def06185E
000000000034ec00 d _ZN6hermit4arch6x86_646kernel3irq9IRQ_NAMES17h16b137ad5a3bf9e1E
000000000034ed80 d _ZN6hermit4arch6x86_646kernel9processor18TIMESTAMP_FUNCTION17h8c15d0c1f6ef0e3bE
000000000034ed88 d _ZN3log6LOGGER17hdac9a6f298aea251E
000000000034ed98 d _ZN15rftrace_backend7backend8TID_NEXT17hcb36e7bebe969630E
000000000034eda0 d _ZN3std6thread8ThreadId3new7COUNTER17hadc733484a4e9cc1E.llvm.12372893769962894764
000000000034eda8 d _ZN3std9panicking12default_hook28_$u7b$$u7b$closure$u7d$$u7d$11FIRST_PANIC17h2633754566b10d47E
000000000034edb0 d _ZN3log6LOGGER17h5771893910c85c25E
000000000034ee00 B __bss_start
000000000034ee00 b _ZN6hermit4arch6x86_646kernel3gdt3GDT17h37100493f1b7789dE
000000000034ee08 b _ZN6hermit4arch6x86_646kernel3gdt4GDTR17h645786368c2375dcE
000000000034ee18 b _ZN6hermit11environment24COMMAND_LINE_APPLICATION17hed8b7f1414e245ddE
000000000034ee30 b _ZN6hermit11environment17COMMAND_LINE_PATH17hf54deb7f8267e3c1E
000000000034ee48 b _ZN6hermit11environment8IS_PROXY17h06fcd0aa2172bea2E.0.0
000000000034ee50 b _ZN6hermit4arch6x86_646kernel4acpi4MADT17he0ba9d583b4d388fE
000000000034ee68 b _ZN6hermit4arch6x86_646kernel4acpi12PM1A_CNT_BLK17h5a15a5ca4861cd08E
000000000034ee6c b _ZN6hermit4arch6x86_646kernel4acpi8SLP_TYPA17he02fb874b9c0aef4E.0.0
000000000034ee6d b _ZN6hermit4arch6x86_646kernel4acpi8SLP_TYPA17he02fb874b9c0aef4E.0.1
000000000034ee70 b _ZN6hermit9scheduler7get_tid11TID_COUNTER17hbc20ba8fb32acb37E
000000000034ee78 b _ZN6hermit9scheduler10SCHEDULERS17h7b2ef612e1c7e848E
000000000034ee90 b _ZN6hermit9scheduler8NO_TASKS17h42a9457f7b6a7b0bE
000000000034ef00 b _ZN6hermit4arch6x86_646kernel7percore7PERCORE17ha4d0e41e761c622aE
000000000034ef80 b _ZN6hermit21kernel_message_buffer12BUFFER_INDEX17h2958109bd36d9007E
000000000034f000 b _ZN6hermit21kernel_message_buffer4KMSG17hc47b6977fea3d85dE
0000000000350080 b _ZN6hermit4arch6x86_646kernel6virtio13VIRTIO_IRQ_NO17he2c42ef6d8bf20f1E.0.0
0000000000350081 b _ZN6hermit4arch6x86_646kernel3idt7install8IDT_INIT17h9add1acf3f393d7fE
0000000000350082 b _ZN6hermit4arch6x86_646kernel3idt3IDT17hbc202ddba0951ef4E
0000000000351082 b _ZN6hermit4arch6x86_646kernel3idt4IDTP17h1e63ccce222ef47fE
0000000000351090 b _ZN6hermit2mm20KERNEL_START_ADDRESS17h9bb80fc627e072f7E
0000000000351098 b _ZN6hermit2mm18KERNEL_END_ADDRESS17h55da5de9f08b3657E
00000000003510a0 b _ZN6hermit2mm18HEAP_START_ADDRESS17h783927e8cbe5aad1E
00000000003510a8 b _ZN6hermit2mm16HEAP_END_ADDRESS17h9b0875d43a461c3cE
00000000003510b0 b _ZN6hermit4arch6x86_642mm11physicalmem12TOTAL_MEMORY17h0a36c26b34fc6b80E
00000000003510b8 b _ZN6hermit4arch6x86_646kernel4apic18LOCAL_APIC_ADDRESS17h9efcbeade4866432E
00000000003510c0 b _ZN6hermit4arch6x86_646kernel4apic24CALIBRATED_COUNTER_VALUE17h4ca10a94b67e4e83E
00000000003510c8 b _ZN6hermit4arch6x86_646kernel4apic18CPU_LOCAL_APIC_IDS17h5dd704fdfbbca315E
00000000003510e0 b _ZN6hermit4arch6x86_646kernel12IRQ_COUNTERS17h8f03dbb07986d970E
00000000003510f8 b _ZN6hermit4arch6x86_646kernel4apic14IOAPIC_ADDRESS17h290412bb961db2a5E
0000000000351100 b _ZN6hermit15synch_all_cores12CORE_COUNTER17hd3bc8cb0f2089ed4E
0000000000351104 b _ZN6hermit4arch6x86_646kernel9processor14SUPPORTS_XSAVE17hae4e2ad73a211c54E.0.0
0000000000351105 b _ZN6hermit4arch6x86_646kernel9processor17RUN_ON_HYPERVISOR17h17735a4024824944E.0.0
0000000000351106 b _ZN6hermit4arch6x86_646kernel9processor19LINEAR_ADDRESS_BITS17h044142799c825f41E.0.0
0000000000351107 b _ZN6hermit4arch6x86_646kernel9processor12SUPPORTS_AVX17h67ca67a8e7773a1eE.0.0
0000000000351108 b _ZN6hermit4arch6x86_646kernel9processor15SUPPORTS_RDRAND17hab16f487cc631dc7E.0.0
0000000000351109 b _ZN6hermit4arch6x86_646kernel9processor13SUPPORTS_FSGS17h2aafe0511386c7d1E.0.0
000000000035110a b _ZN6hermit4arch6x86_646kernel9processor13CPU_SPEEDSTEP17hb1ef201d9c4b60fbE
0000000000351110 b _ZN6hermit4arch6x86_646kernel9processor13CPU_FREQUENCY17h3f68a8b6297be134E
0000000000351118 b _ZN6hermit4arch6x86_646kernel9processor23MEASUREMENT_TIMER_TICKS17h5e3e3954f953e44aE
0000000000351120 b _ZN3log20MAX_LOG_LEVEL_FILTER17h23fa6e8605a915d3E
0000000000351128 b _ZN3log5STATE17hcfb4819041e2393cE
0000000000351130 b _ZN6hermit4arch6x86_646kernel9processor21PHYSICAL_ADDRESS_BITS17h8e58f6eb06a3afd1E.0.0
0000000000351131 b _ZN6hermit4arch6x86_646kernel9processor19SUPPORTS_1GIB_PAGES17h274a6e696d7273e6E.0.0
0000000000351132 b _ZN6hermit4arch6x86_646kernel9processor21SUPPORTS_TSC_DEADLINE17h4fb0dcf1a08e0cc7E.0.0
0000000000351133 b _ZN6hermit4arch6x86_646kernel9processor15SUPPORTS_X2APIC17h599b74582e95d7f7E.0.0
0000000000351138 b _ZN15rftrace_backend7backend5INDEX17hfc6def1484743ee2E
0000000000351140 b _ZN15rftrace_backend7backend6EVENTS17hb2ede8fecafbf8e0E
0000000000351150 b _ZN15rftrace_backend7backend7ENABLED17h8ca8eb9d3783a236E.0.0
0000000000351151 b _ZN15rftrace_backend7backend11OVERWRITING17hb0866a324a5d5a40E.0.0
0000000000351158 b _ZN3std5alloc4HOOK17h7d91f68393aa2c4aE
0000000000351160 b _ZN3std10sys_common7cleanup7CLEANUP17ha1f220db45bc2a5dE.llvm.3677715681276609070
0000000000351168 b _ZN3std10sys_common9backtrace18rust_backtrace_env7ENABLED17h94b35a176ae39289E.llvm.17290461852803229719
0000000000351170 b _ZN3std10sys_common6thread9min_stack3MIN17h6bb619b1a8aa2011E
0000000000351178 b _ZN3std3sys6hermit2os3ENV17hd94dd2b16e722b6dE.llvm.12372893769962894764
00000000003511c0 b _ZN3std9panicking4HOOK17h4ec2767bda255292E
00000000003511d0 b _ZN3std10sys_common11at_exit_imp5QUEUE17h360938d121c0babeE.llvm.3138240758308555093
00000000003511d8 b _ZN3std2io5stdio6stdout8INSTANCE17h24863ff2df6b2ba2E
00000000003511e8 b _ZN3std3sys6hermit4args3imp4ARGC17h1c16a1c571337596E.llvm.6057010850517755971
00000000003511f0 b _ZN3std3sys6hermit4args3imp4ARGV17h97448237379a451eE
00000000003511f8 b _ZN3log5STATE17h65d63e7fcd1e4334E
0000000000351200 B _ZN3log20MAX_LOG_LEVEL_FILTER17h7692b08172cffe23E
