0000000000000000 b _ZN3std3sys6hermit17fast_thread_local5DTORS17h9fc03ff68649d870E
0000000000000008 b _ZN3std9panicking18update_panic_count11PANIC_COUNT7__getit5__KEY17h2e28c271914f6b50E
0000000000000020 b _ZN3std2io5stdio12LOCAL_STDOUT7__getit5__KEY17h6edc5618b2bb216cE
0000000000000048 b _ZN3std2io5stdio12LOCAL_STDERR7__getit5__KEY17h54189fe041b7681aE
0000000000000070 b _ZN3std11collections4hash3map11RandomState3new4KEYS7__getit5__KEY17hb2523d803670d050E
0000000000000090 b _ZN3std10sys_common11thread_info11THREAD_INFO7__getit5__KEY17h48103eec430797b1E
00000000000000b0 b _ZN15rftrace_backend7backend8RETSTACK17h2b8160813bb21577E
0000000000000200 A cores
0000000000005e78 b _ZN15rftrace_backend7backend3TID17h9e12b88543f278e1E
0000000000800000 A kernel_start
0000000000800000 A phys
0000000000800000 D _ZN6hermit4arch6x86_646kernel9BOOT_INFO17h14a455b51d28bcfcE
0000000000801000 T _init
0000000000801000 ? percore_end
0000000000801000 ? percore_end0
0000000000801000 ? percore_start
0000000000801010 T runtime_entry
0000000000801060 t deregister_tm_clones
0000000000801090 t register_tm_clones
00000000008010d0 t __do_global_dtors_aux
0000000000801150 t frame_dummy
000000000080118e T func3
00000000008011a4 T func2
00000000008011c4 T func1
00000000008011e4 T main
000000000080124f T sys_tcp_stream_connect
000000000080125b T sys_tcp_stream_read
0000000000801267 T sys_tcp_stream_write
0000000000801273 T sys_tcp_stream_close
000000000080127f T sys_tcp_stream_shutdown
000000000080128b T sys_tcp_stream_set_read_timeout
0000000000801297 T sys_tcp_stream_get_read_timeout
00000000008012a3 T sys_tcp_stream_set_write_timeout
00000000008012af T sys_tcp_stream_get_write_timeout
00000000008012bb T sys_tcp_stream_duplicate
00000000008012c7 T sys_tcp_stream_peek
00000000008012d3 T sys_tcp_stream_set_nonblocking
00000000008012df T sys_tcp_stream_set_tll
00000000008012eb T sys_tcp_stream_get_tll
00000000008012f7 T sys_tcp_stream_peer_addr
0000000000801303 T sys_tcp_listener_accept
000000000080130f T sys_network_init
000000000080131b T init_lwip
0000000000801327 T lwip_read
0000000000801333 T lwip_write
0000000000801340 T rftrace_enable
0000000000801350 T rftrace_disable
0000000000801360 T rftrace_init
00000000008013b0 T rftrace_dump_full_uftrace
0000000000801590 T rftrace_dump_trace
0000000000801680 T _ZN65_$LT$alloc..string..String$u20$as$u20$core..ops..deref..Deref$GT$5deref17h06c7a0f80b997b00E
00000000008016d0 T _ZN4core3str19from_utf8_unchecked17hfe9596f80574b7e5E
0000000000801700 T _ZN16rftrace_frontend8frontend6enable17h3daaa528887f209dE
0000000000801710 T _ZN16rftrace_frontend8frontend7disable17hc38deb151d1f6d65E
0000000000801720 t _ZN16rftrace_frontend8frontend10get_events17h079f69e406a1c505E
0000000000801910 T _ZN16rftrace_frontend8frontend4init17h4f6542977e1aa553E
0000000000801a90 T _ZN16rftrace_frontend8frontend17dump_full_uftrace17he94068ffead22d91E
0000000000803fe0 T _ZN16rftrace_frontend8frontend10dump_trace17h2e87a019841099f6E
0000000000804130 t _ZN16rftrace_frontend8frontend11dump_traces17ha739572509040bf1E
0000000000805150 t _ZN16rftrace_frontend8frontend11write_event17h7e6e6c38cc8e8605E
0000000000805270 T _ZN71_$LT$rftrace_frontend..frontend..Events$u20$as$u20$core..fmt..Debug$GT$3fmt17h882815db36a05564E
0000000000805400 T _ZN42_$LT$$RF$T$u20$as$u20$core..fmt..Debug$GT$3fmt17hdf58a08c45bb09abE
0000000000805450 T _ZN48_$LT$T$u20$as$u20$core..slice..SliceContains$GT$14slice_contains17he2514604db513ae6E
00000000008054c0 T _ZN4core3cmp5impls69_$LT$impl$u20$core..cmp..PartialEq$LT$$RF$B$GT$$u20$for$u20$$RF$A$GT$2ne17he5144135446a8a2dE
0000000000805510 T _ZN4core3ptr7mut_ptr31_$LT$impl$u20$$BP$mut$u20$T$GT$3add17hc1a0c2161b977be6E
0000000000805550 T _ZN4core3ptr7mut_ptr31_$LT$impl$u20$$BP$mut$u20$T$GT$6offset17hf512655986199725E
00000000008055a0 T _ZN4core3ptr7mut_ptr31_$LT$impl$u20$$BP$mut$u20$T$GT$7is_null17h653c5c19ae66d2f6E
00000000008055e0 T _ZN4core3ptr9const_ptr33_$LT$impl$u20$$BP$const$u20$T$GT$3add17h5a360c02a651003aE
0000000000805620 T _ZN4core3ptr9const_ptr33_$LT$impl$u20$$BP$const$u20$T$GT$6offset17h2a9b083ec5604651E
0000000000805670 T _ZN4core3ptr9const_ptr33_$LT$impl$u20$$BP$const$u20$T$GT$7is_null17h796b3cfdab0eb600E
00000000008056b0 T _ZN4core5slice29_$LT$impl$u20$$u5b$T$u5d$$GT$3len17he88366c5a245d2bdE
00000000008056f0 T _ZN4core5slice29_$LT$impl$u20$$u5b$T$u5d$$GT$4iter17h96cf41ebd5b7d060E
00000000008057e0 T _ZN4core5slice29_$LT$impl$u20$$u5b$T$u5d$$GT$6as_ptr17h007289133f96b68fE
0000000000805810 T _ZN4core5slice29_$LT$impl$u20$$u5b$T$u5d$$GT$8contains17hbd4de492911ee295E
0000000000805860 T _ZN4core6option15Option$LT$T$GT$3map17h4772210f1b78fa2fE
0000000000805900 T _ZN4core6option15Option$LT$T$GT$6map_or17h8daae3ca8c297aa8E
00000000008059a0 T _ZN4core6option15Option$LT$T$GT$6map_or17hde569941d2857e6eE
0000000000805a40 T _ZN66_$LT$core..option..Option$LT$T$GT$$u20$as$u20$core..fmt..Debug$GT$3fmt17h34dad2d923ef38d3E
0000000000805b30 T _ZN70_$LT$core..option..Option$LT$T$GT$$u20$as$u20$core..cmp..PartialEq$GT$2eq17h12e932ac2df4d8abE
0000000000805c50 T _ZN70_$LT$core..option..Option$LT$T$GT$$u20$as$u20$core..cmp..PartialEq$GT$2ne17h05680ebe06a73d68E
0000000000805d70 T _ZN48_$LT$T$u20$as$u20$core..slice..SliceContains$GT$14slice_contains28_$u7b$$u7b$closure$u7d$$u7d$17h7ee3e8e91ca9d48fE
0000000000805dc0 T _ZN4core4iter6traits8iterator8Iterator3map17hc3a5d030e419faffE
0000000000805e10 T _ZN4core4iter6traits8iterator8Iterator4fold17h422623e6f53d55ffE
0000000000805e90 T _ZN4core4iter6traits8iterator8Iterator5chain17h0b624417c20b5574E
0000000000805f10 T _ZN4core5slice14from_raw_parts17h032e1e96deee8325E
0000000000805fe0 T _ZN4core5slice14from_raw_parts17h609aa8d7d729cc0cE
00000000008060b0 T _ZN4core5slice14from_raw_parts17he657923a33369228E
0000000000806180 T _ZN4core5slice29_$LT$impl$u20$$u5b$T$u5d$$GT$4iter17he305c65f261e3e63E
0000000000806270 T _ZN4core5slice74_$LT$impl$u20$core..ops..index..Index$LT$I$GT$$u20$for$u20$$u5b$T$u5d$$GT$5index17h06c22b618d18f920E
00000000008062d0 T _ZN4core5slice74_$LT$impl$u20$core..ops..index..Index$LT$I$GT$$u20$for$u20$$u5b$T$u5d$$GT$5index17he61a14719d7763ffE
0000000000806330 T _ZN4core5slice87_$LT$impl$u20$core..iter..traits..collect..IntoIterator$u20$for$u20$$RF$$u5b$T$u5d$$GT$9into_iter17h1e97f73cdfee229eE
0000000000806380 T _ZN63_$LT$I$u20$as$u20$core..iter..traits..collect..IntoIterator$GT$9into_iter17h02975fe4a15fec11E
00000000008063b0 T _ZN63_$LT$I$u20$as$u20$core..iter..traits..collect..IntoIterator$GT$9into_iter17h08c48f14291aa044E
00000000008063e0 T _ZN68_$LT$usize$u20$as$u20$core..slice..SliceIndex$LT$$u5b$T$u5d$$GT$$GT$5index17h274d2987f91af4f6E
0000000000806450 T _ZN85_$LT$core..slice..Iter$LT$T$GT$$u20$as$u20$core..iter..traits..iterator..Iterator$GT$3any17h6ec14330a95b2f20E
00000000008064e0 T _ZN85_$LT$core..slice..Iter$LT$T$GT$$u20$as$u20$core..iter..traits..iterator..Iterator$GT$4next17h3e9bf07a2118fb08E
0000000000806640 T _ZN85_$LT$core..slice..Iter$LT$T$GT$$u20$as$u20$core..iter..traits..iterator..Iterator$GT$4next17h73b01c8d570fe8b3E
00000000008067a0 T _ZN85_$LT$core..slice..Iter$LT$T$GT$$u20$as$u20$core..iter..traits..iterator..Iterator$GT$4next17h947961ce1a07c8e4E
0000000000806900 T _ZN85_$LT$core..slice..Iter$LT$T$GT$$u20$as$u20$core..iter..traits..iterator..Iterator$GT$9size_hint17hb49f846bae935797E
0000000000806a40 T _ZN4core3num10NonZeroU643get17hd6c45452f6d1a504E
0000000000806a60 T _ZN4core3num12NonZeroUsize13new_unchecked17h0829b5553996490aE
0000000000806a90 T _ZN4core3num12NonZeroUsize3get17h48fe19aa74e9f8aaE
0000000000806ab0 T _ZN4core3num21_$LT$impl$u20$u16$GT$5to_le17h492961391b5318daE
0000000000806ad0 T _ZN4core3num21_$LT$impl$u20$u32$GT$5to_le17h2b01c8963506f02bE
0000000000806af0 T _ZN4core3num21_$LT$impl$u20$u64$GT$5to_le17hced26301222a2858E
0000000000806b10 t _ZN4core3num23_$LT$impl$u20$usize$GT$10count_ones17hf9690a40a234a9b9E
0000000000806ba0 T _ZN4core3num23_$LT$impl$u20$usize$GT$11checked_add17hb5408830f5d89c0cE
0000000000806c20 T _ZN4core3num23_$LT$impl$u20$usize$GT$11checked_mul17h15b7528c85bafb0fE
0000000000806ca0 T _ZN4core3num23_$LT$impl$u20$usize$GT$12wrapping_add17h71604588c969ac15E
0000000000806ce0 T _ZN4core3num23_$LT$impl$u20$usize$GT$12wrapping_sub17ha119846b02bb1119E
0000000000806d20 T _ZN4core3num23_$LT$impl$u20$usize$GT$14saturating_add17hdebffedd9204def6E
0000000000806d70 T _ZN4core3num23_$LT$impl$u20$usize$GT$14saturating_mul17h156244bef2e0a77aE
0000000000806de0 T _ZN4core3num23_$LT$impl$u20$usize$GT$15is_power_of_two17h79546f738e78ed5cE
0000000000806e20 t _ZN4core3num23_$LT$impl$u20$usize$GT$15overflowing_add17h86ba4de2de7a3ff9E
0000000000806e90 t _ZN4core3num23_$LT$impl$u20$usize$GT$15overflowing_mul17ha3cf70077c195cf9E
0000000000806f00 T _ZN62_$LT$core..num..NonZeroU64$u20$as$u20$core..cmp..PartialEq$GT$2eq17h3e917fed68475425E
0000000000806f50 T _ZN62_$LT$core..num..NonZeroU64$u20$as$u20$core..cmp..PartialEq$GT$2ne17h048be5fd4c4c4616E
0000000000806fa0 T _ZN42_$LT$$RF$T$u20$as$u20$core..fmt..Debug$GT$3fmt17h424cb15eb853cc36E
0000000000806ff0 T _ZN44_$LT$$RF$T$u20$as$u20$core..fmt..Display$GT$3fmt17h5e71094b0cc5d42eE
0000000000807040 T _ZN48_$LT$$u5b$T$u5d$$u20$as$u20$core..fmt..Debug$GT$3fmt17h5c83f274f7180dccE
00000000008070d0 T _ZN4core3fmt10ArgumentV13new17h0325efc12dc74059E
0000000000807130 T _ZN4core3fmt10ArgumentV13new17h6008cf5a5f22b819E
0000000000807190 T _ZN4core3fmt10ArgumentV13new17h98240f2eda7fbe0bE
00000000008071f0 T _ZN52_$LT$$BP$const$u20$T$u20$as$u20$core..fmt..Debug$GT$3fmt17hc54b64002bd82f69E
0000000000807240 T _ZN54_$LT$$BP$const$u20$T$u20$as$u20$core..fmt..Pointer$GT$3fmt17h86cfdfc579343249E
00000000008073e0 T _ZN50_$LT$T$u20$as$u20$core..convert..Into$LT$U$GT$$GT$4into17h44120bb8c146987aE
0000000000807430 T _ZN55_$LT$$RF$T$u20$as$u20$core..convert..AsRef$LT$U$GT$$GT$6as_ref17ha3238c70de2952e4E
0000000000807470 T _ZN138_$LT$$LT$alloc..vec..IntoIter$LT$T$GT$$u20$as$u20$core..ops..drop..Drop$GT$..drop..DropGuard$LT$T$GT$$u20$as$u20$core..ops..drop..Drop$GT$4drop17h62c0d0145c329c79E
00000000008074d0 T _ZN4core3ptr13drop_in_place17h07fef53bc2564433E
0000000000807500 T _ZN4core3ptr13drop_in_place17h0e467f57f3c0ba6cE
0000000000807520 T _ZN4core3ptr13drop_in_place17h12d3e62a1396ef22E
0000000000807560 T _ZN4core3ptr13drop_in_place17h1c97cbb264d5be65E
0000000000807590 T _ZN4core3ptr13drop_in_place17h2225f78388709eddE
00000000008075b0 T _ZN4core3ptr13drop_in_place17h26a1b092ab88d5dbE
00000000008075d0 T _ZN4core3ptr13drop_in_place17h500ff471d4a9740fE
0000000000807600 T _ZN4core3ptr13drop_in_place17h60fcbd8e90fe296cE
0000000000807630 T _ZN4core3ptr13drop_in_place17h6bd43c921695d07eE
0000000000807650 T _ZN4core3ptr13drop_in_place17h6dcd99d762f46150E
0000000000807680 T _ZN4core3ptr13drop_in_place17h6e905480a4370d45E
00000000008076b0 T _ZN4core3ptr13drop_in_place17h705157298f398040E
00000000008076d0 T _ZN4core3ptr13drop_in_place17h72e51b3ced0a3d64E
0000000000807710 T _ZN4core3ptr13drop_in_place17h7ce18e98465c6647E
0000000000807730 T _ZN4core3ptr13drop_in_place17h89996b6539971fa7E
0000000000807750 T _ZN4core3ptr13drop_in_place17h8c9430cfd4d0d1f5E
0000000000807790 T _ZN4core3ptr13drop_in_place17had12eca7ede2b137E
00000000008077b0 T _ZN4core3ptr13drop_in_place17hb1d81f1728087baeE
00000000008077e0 T _ZN4core3ptr13drop_in_place17hcdd33040db802f95E
0000000000807810 T _ZN4core3ptr13drop_in_place17hd322c5b47e3585fbE
0000000000807830 T _ZN4core3ptr13drop_in_place17hddbfb46c621a9baeE
0000000000807850 T _ZN4core3ptr13drop_in_place17hea1561d932b0dc0fE
0000000000807890 T _ZN4core3ptr13drop_in_place17hed9f66c485514a61E
00000000008078c0 T _ZN4core3ptr13drop_in_place17hfee1cc7da433d271E
00000000008078f0 T _ZN66_$LT$alloc..vec..Vec$LT$T$GT$$u20$as$u20$core..ops..drop..Drop$GT$4drop17h3253df8f4fb79703E
0000000000807930 T _ZN66_$LT$alloc..vec..Vec$LT$T$GT$$u20$as$u20$core..ops..drop..Drop$GT$4drop17hcdc25a2307067b5bE
0000000000807970 T _ZN66_$LT$alloc..vec..Vec$LT$T$GT$$u20$as$u20$core..ops..drop..Drop$GT$4drop17hf9e9c7ce69ee35f7E
00000000008079b0 T _ZN71_$LT$alloc..vec..IntoIter$LT$T$GT$$u20$as$u20$core..ops..drop..Drop$GT$4drop17hf1b81a192adfbc98E
00000000008079f0 T _ZN77_$LT$alloc..raw_vec..RawVec$LT$T$C$A$GT$$u20$as$u20$core..ops..drop..Drop$GT$4drop17h23904ae3f97e2879E
0000000000807a70 T _ZN77_$LT$alloc..raw_vec..RawVec$LT$T$C$A$GT$$u20$as$u20$core..ops..drop..Drop$GT$4drop17h43666bd6c49b7e57E
0000000000807af0 T _ZN77_$LT$alloc..raw_vec..RawVec$LT$T$C$A$GT$$u20$as$u20$core..ops..drop..Drop$GT$4drop17h4b2a741535c5b841E
0000000000807b70 T _ZN3std2fs4File4open17hdfaa0c33ab939492E
0000000000807bf0 T _ZN3std2fs4File6create17he10231f4d6e12a98E
0000000000807c90 T _ZN3std2io5Write9write_fmt17h53b7d5700c37391bE
0000000000807e20 T _ZN5alloc6string6String19from_utf8_unchecked17h6763a6be0a15dbc0E
0000000000807e80 T _ZN60_$LT$alloc..string..String$u20$as$u20$core..fmt..Display$GT$3fmt17h41581887becfe895E
0000000000807ee0 t _ZN65_$LT$alloc..string..String$u20$as$u20$core..ops..deref..Deref$GT$5deref17h1a89185e246bff81E
0000000000807f30 T _ZN76_$LT$alloc..string..String$u20$as$u20$core..convert..From$LT$$RF$str$GT$$GT$4from17h68794bf5ead31309E
0000000000807f80 T _ZN4core3str19from_utf8_unchecked17h8870a4a7eadd3593E
0000000000807fb0 T _ZN4core3str23from_utf8_unchecked_mut17h474346ad8525aa83E
0000000000807fe0 T _ZN5alloc3str56_$LT$impl$u20$alloc..borrow..ToOwned$u20$for$u20$str$GT$8to_owned17hb914fca1e81d758cE
0000000000808060 T _ZN4core3fmt9Arguments6new_v117h608e2d62b2aebf5eE
00000000008080e0 T _ZN5alloc7raw_vec15RawVec$LT$T$GT$13with_capacity17h5a2782666ba46648E
0000000000808120 T _ZN5alloc7raw_vec15RawVec$LT$T$GT$14from_raw_parts17h4efd5e1a5096398aE
0000000000808170 T _ZN5alloc7raw_vec15RawVec$LT$T$GT$14from_raw_parts17hbac292f525ef0c5fE
00000000008081c0 T _ZN5alloc7raw_vec19RawVec$LT$T$C$A$GT$10set_memory17h19719c71340ff73fE
0000000000808250 T _ZN5alloc7raw_vec19RawVec$LT$T$C$A$GT$10set_memory17h3242d52db4ffd97fE
00000000008082e0 T _ZN5alloc7raw_vec19RawVec$LT$T$C$A$GT$10set_memory17hde2b8193ed977c44E
0000000000808370 T _ZN5alloc7raw_vec19RawVec$LT$T$C$A$GT$11allocate_in17h722ce71d9651b54aE
0000000000808510 T _ZN5alloc7raw_vec19RawVec$LT$T$C$A$GT$11allocate_in28_$u7b$$u7b$closure$u7d$$u7d$17h076b35c052e06748E
0000000000808530 T _ZN5alloc7raw_vec19RawVec$LT$T$C$A$GT$11allocate_in28_$u7b$$u7b$closure$u7d$$u7d$17h761d812e57573a76E
0000000000808560 T _ZN5alloc7raw_vec19RawVec$LT$T$C$A$GT$11allocate_in28_$u7b$$u7b$closure$u7d$$u7d$17ha952ad833328f467E
0000000000808590 T _ZN5alloc7raw_vec19RawVec$LT$T$C$A$GT$11try_reserve17h25d21d1b89b16d58E
0000000000808620 T _ZN5alloc7raw_vec19RawVec$LT$T$C$A$GT$11try_reserve17h3f74dcca5dc2f180E
00000000008086b0 T _ZN5alloc7raw_vec19RawVec$LT$T$C$A$GT$11try_reserve17h7866820be24278adE
0000000000808740 T _ZN5alloc7raw_vec19RawVec$LT$T$C$A$GT$13needs_to_grow17h04cae0e9369595eaE
00000000008087d0 T _ZN5alloc7raw_vec19RawVec$LT$T$C$A$GT$13needs_to_grow17h096a35dc2772b580E
0000000000808860 T _ZN5alloc7raw_vec19RawVec$LT$T$C$A$GT$13needs_to_grow17h78406a96e2964538E
00000000008088f0 T _ZN5alloc7raw_vec19RawVec$LT$T$C$A$GT$14current_memory17h3fb68577e952f3c7E
0000000000808a70 T _ZN5alloc7raw_vec19RawVec$LT$T$C$A$GT$14current_memory17h546b48620c53e240E
0000000000808bf0 T _ZN5alloc7raw_vec19RawVec$LT$T$C$A$GT$14current_memory17hf7fb734833e7a772E
0000000000808d70 T _ZN5alloc7raw_vec19RawVec$LT$T$C$A$GT$14grow_amortized17had803d717c9b5863E
0000000000809130 T _ZN5alloc7raw_vec19RawVec$LT$T$C$A$GT$14grow_amortized17hd967c37c7ddce5dcE
00000000008094f0 T _ZN5alloc7raw_vec19RawVec$LT$T$C$A$GT$14grow_amortized17hebd7453a0ce8a125E
00000000008098b0 T _ZN5alloc7raw_vec19RawVec$LT$T$C$A$GT$16with_capacity_in17hf5a399c307120b0eE
00000000008098f0 T _ZN5alloc7raw_vec19RawVec$LT$T$C$A$GT$17from_raw_parts_in17h0dab67dc1e8d879bE
0000000000809940 T _ZN5alloc7raw_vec19RawVec$LT$T$C$A$GT$17from_raw_parts_in17h9a723a4662fce809E
0000000000809990 T _ZN5alloc7raw_vec19RawVec$LT$T$C$A$GT$19capacity_from_bytes17h12027c7038bdd0a8E
0000000000809b60 T _ZN5alloc7raw_vec19RawVec$LT$T$C$A$GT$19capacity_from_bytes17h9241c3df291f39e2E
0000000000809d30 T _ZN5alloc7raw_vec19RawVec$LT$T$C$A$GT$19capacity_from_bytes17he36be8362ddd3e00E
0000000000809f00 T _ZN5alloc7raw_vec19RawVec$LT$T$C$A$GT$3ptr17h1c38dfbc028d64acE
0000000000809f30 T _ZN5alloc7raw_vec19RawVec$LT$T$C$A$GT$3ptr17h9da43955a102f818E
0000000000809f60 T _ZN5alloc7raw_vec19RawVec$LT$T$C$A$GT$3ptr17hc867042b92af810dE
0000000000809f90 T _ZN5alloc7raw_vec19RawVec$LT$T$C$A$GT$6new_in17h9c9e48c42c8cc253E
0000000000809fd0 T _ZN5alloc7raw_vec19RawVec$LT$T$C$A$GT$7reserve17h64a9125a0b662b0dE
000000000080a070 T _ZN5alloc7raw_vec19RawVec$LT$T$C$A$GT$7reserve17h6b23196583e87857E
000000000080a110 T _ZN5alloc7raw_vec19RawVec$LT$T$C$A$GT$7reserve17hb39d2b77dc673bffE
000000000080a1b0 T _ZN106_$LT$core..iter..adapters..chain..Chain$LT$A$C$B$GT$$u20$as$u20$core..iter..traits..iterator..Iterator$GT$4next17h012f93f3964aa18dE
000000000080a310 T _ZN4core4iter8adapters5chain18Chain$LT$A$C$B$GT$3new17hfc2d28ca8b33b475E
000000000080a3a0 T _ZN63_$LT$I$u20$as$u20$core..iter..traits..collect..IntoIterator$GT$9into_iter17h4a4f3e5fc1d54978E
000000000080a3f0 T _ZN42_$LT$$RF$T$u20$as$u20$core..fmt..Debug$GT$3fmt17h7cb3d44b095921f0E
000000000080a440 T _ZN42_$LT$$RF$T$u20$as$u20$core..fmt..Debug$GT$3fmt17h8a983838a2c7a5a2E
000000000080a490 T _ZN42_$LT$$RF$T$u20$as$u20$core..fmt..Debug$GT$3fmt17hbfe3416ee9e9ccc3E
000000000080a4e0 T _ZN46_$LT$T$u20$as$u20$alloc..vec..SpecFromElem$GT$9from_elem17hd6a810cfc4a2f2d4E
000000000080a590 T _ZN4core3ptr7mut_ptr31_$LT$impl$u20$$BP$mut$u20$T$GT$3add17hf0c00abe4d9219c4E
000000000080a5d0 T _ZN4core3ptr7mut_ptr31_$LT$impl$u20$$BP$mut$u20$T$GT$6offset17hb5cbba08a82ddbe4E
000000000080a620 T _ZN4core3ptr7mut_ptr31_$LT$impl$u20$$BP$mut$u20$T$GT$7is_null17h08bdb202e5a27ba9E
000000000080a660 T _ZN4core3ptr9const_ptr33_$LT$impl$u20$$BP$const$u20$T$GT$3add17h4dbf7708e8a3368cE
000000000080a6a0 T _ZN4core3ptr9const_ptr33_$LT$impl$u20$$BP$const$u20$T$GT$6offset17h0c149c5a597c64daE
000000000080a6f0 T _ZN4core3ptr9const_ptr33_$LT$impl$u20$$BP$const$u20$T$GT$7is_null17hefc381e0cd8d63e6E
000000000080a730 T _ZN4core5slice29_$LT$impl$u20$$u5b$T$u5d$$GT$3len17h2221a66926887891E
000000000080a770 T _ZN4core5slice29_$LT$impl$u20$$u5b$T$u5d$$GT$4iter17ha1dd20fc7b23e46fE
000000000080a860 T _ZN4core5slice29_$LT$impl$u20$$u5b$T$u5d$$GT$6as_ptr17h89bbbfe1442f19b9E
000000000080a890 T _ZN4core5slice74_$LT$impl$u20$core..ops..index..Index$LT$I$GT$$u20$for$u20$$u5b$T$u5d$$GT$5index17h952fa480d11c3336E
000000000080a8f0 T _ZN4core5slice74_$LT$impl$u20$core..ops..index..Index$LT$I$GT$$u20$for$u20$$u5b$T$u5d$$GT$5index17hc0ad7826f943e0d6E
000000000080a950 T _ZN50_$LT$$BP$mut$u20$T$u20$as$u20$core..fmt..Debug$GT$3fmt17h7b31d91e21abd57dE
000000000080a9a0 T _ZN52_$LT$$BP$const$u20$T$u20$as$u20$core..fmt..Debug$GT$3fmt17h1337faa8c1df2a12E
000000000080a9f0 T _ZN52_$LT$$BP$mut$u20$T$u20$as$u20$core..fmt..Pointer$GT$3fmt17he6edec56170469c3E
000000000080aa40 T _ZN54_$LT$$BP$const$u20$T$u20$as$u20$core..fmt..Pointer$GT$3fmt17h952b97b33d41d0c5E
000000000080abe0 T _ZN3std2io4util4copy17he1f1914d5780833bE
000000000080af50 T _ZN4core3ptr20slice_from_raw_parts17h365df73bf238051eE
000000000080afa0 T _ZN4core3ptr20slice_from_raw_parts17h98c06ec0b1659c6dE
000000000080aff0 T _ZN4core3ptr20slice_from_raw_parts17hc7144e376d7288dfE
000000000080b040 T _ZN4core3ptr24slice_from_raw_parts_mut17h568005541dd1accbE
000000000080b090 T _ZN4core3ptr24slice_from_raw_parts_mut17h7e67366e82e999deE
000000000080b0e0 T _ZN4core3ptr24slice_from_raw_parts_mut17h7efaf6f721d467dbE
000000000080b130 T _ZN4core3ptr5write17h6411496cbd1818f5E
000000000080b1a0 T _ZN4core3ptr5write17hb0fd04b89ea195d2E
000000000080b210 T _ZN4core3fmt3num50_$LT$impl$u20$core..fmt..Debug$u20$for$u20$u64$GT$3fmt17ha880cb52d6cd52a9E
000000000080b2b0 T _ZN114_$LT$core..iter..adapters..flatten..FlatMap$LT$I$C$U$C$F$GT$$u20$as$u20$core..iter..traits..iterator..Iterator$GT$4next17h246d091a81bc7178E
000000000080b2e0 T _ZN114_$LT$core..iter..adapters..flatten..FlatMap$LT$I$C$U$C$F$GT$$u20$as$u20$core..iter..traits..iterator..Iterator$GT$4next17h71c8e2b1960424f3E
000000000080b320 T _ZN114_$LT$core..iter..adapters..flatten..FlatMap$LT$I$C$U$C$F$GT$$u20$as$u20$core..iter..traits..iterator..Iterator$GT$4next17h780265a848823a4cE
000000000080b350 T _ZN116_$LT$core..iter..adapters..flatten..FlattenCompat$LT$I$C$U$GT$$u20$as$u20$core..iter..traits..iterator..Iterator$GT$4next17h94c6b920b700d300E
000000000080b570 T _ZN116_$LT$core..iter..adapters..flatten..FlattenCompat$LT$I$C$U$GT$$u20$as$u20$core..iter..traits..iterator..Iterator$GT$4next17h9522de61af6716c4E
000000000080b7c0 T _ZN116_$LT$core..iter..adapters..flatten..FlattenCompat$LT$I$C$U$GT$$u20$as$u20$core..iter..traits..iterator..Iterator$GT$4next17h96b04f6999996983E
000000000080b9e0 T _ZN31_$LT$dyn$u20$core..any..Any$GT$12downcast_ref17h77da55ee3967055cE
000000000080ba40 T _ZN31_$LT$dyn$u20$core..any..Any$GT$2is17h26449293344b8fb1E
000000000080baa0 T _ZN36_$LT$T$u20$as$u20$core..any..Any$GT$7type_id17h844e459149518669E
000000000080bad0 T _ZN36_$LT$T$u20$as$u20$core..any..Any$GT$7type_id17hf8e04d6006329d11E
000000000080bb00 T _ZN42_$LT$$RF$T$u20$as$u20$core..fmt..Debug$GT$3fmt17h2e598095f35f4f1bE
000000000080bb50 T _ZN42_$LT$$RF$T$u20$as$u20$core..fmt..Debug$GT$3fmt17h464d369e2abeea34E
000000000080bba0 T _ZN42_$LT$$RF$T$u20$as$u20$core..fmt..Debug$GT$3fmt17h8f054a0044f00272E
000000000080bbf0 T _ZN42_$LT$$RF$T$u20$as$u20$core..fmt..Debug$GT$3fmt17hed0a8ee3fecc9b66E
000000000080bc40 T _ZN44_$LT$$RF$T$u20$as$u20$core..fmt..Display$GT$3fmt17hed7e2c4b9b995ce1E
000000000080bc90 T _ZN44_$LT$$RF$T$u20$as$u20$core..fmt..Display$GT$3fmt17hf6a6ded6b2bc09acE
000000000080bce0 T _ZN4core3any6TypeId2of17h52c32b73b71c37a4E
000000000080bd20 T _ZN4core3any6TypeId2of17h831b1033e85e02c5E
000000000080bd60 T _ZN4core3any6TypeId2of17ha53377a8828764a5E
000000000080bda0 T _ZN4core3any6TypeId2of17hf59abe0d3af4479bE
000000000080bde0 t _ZN4core3num10NonZeroU643get17ha59edd9e0b832fe8E
000000000080be00 T _ZN4core3num10NonZeroU643new17h8f5a8361910d62aeE
000000000080be50 T _ZN4core3num12NonZeroUsize13new_unchecked17hc16212591cade727E
000000000080be80 T _ZN4core3num12NonZeroUsize3get17h80cc928fe3bcd8b8E
000000000080bea0 t _ZN4core3num20_$LT$impl$u20$u8$GT$18is_ascii_lowercase17hba245c4deaabf4a4E
000000000080bee0 t _ZN4core3num20_$LT$impl$u20$u8$GT$18is_ascii_uppercase17h587a82ec90cf4bf0E
000000000080bf20 t _ZN4core3num20_$LT$impl$u20$u8$GT$18to_ascii_lowercase17hd499610797df1122E
000000000080bf70 t _ZN4core3num20_$LT$impl$u20$u8$GT$18to_ascii_uppercase17h301a6dbbff745784E
000000000080bfc0 T _ZN4core3num20_$LT$impl$u20$u8$GT$20make_ascii_lowercase17hb3d5799718f47202E
000000000080c000 T _ZN4core3num20_$LT$impl$u20$u8$GT$20make_ascii_uppercase17hca814aff3457c33cE
000000000080c040 T _ZN4core3num20_$LT$impl$u20$u8$GT$8is_ascii17h9e0d55d1fa8ed386E
000000000080c080 T _ZN4core3num21_$LT$impl$u20$i64$GT$11checked_add17h5254b5b58ce022c9E
000000000080c100 T _ZN4core3num21_$LT$impl$u20$i64$GT$11checked_sub17h54c2be0586b92258E
000000000080c180 t _ZN4core3num21_$LT$impl$u20$i64$GT$15overflowing_add17h91c27c9fbfab8bb6E
000000000080c1f0 t _ZN4core3num21_$LT$impl$u20$i64$GT$15overflowing_sub17h4d62f0a1219f6bf2E
000000000080c260 t _ZN4core3num21_$LT$impl$u20$u16$GT$10swap_bytes17ha02f8d146a1ebd1cE
000000000080c2a0 T _ZN4core3num21_$LT$impl$u20$u16$GT$13from_be_bytes17h35eb5fe229f9b2b7E
000000000080c2f0 t _ZN4core3num21_$LT$impl$u20$u16$GT$13from_ne_bytes17h3758beab0a816c81E
000000000080c330 T _ZN4core3num21_$LT$impl$u20$u16$GT$13leading_zeros17h76d15c5120678f2bE
000000000080c380 T _ZN4core3num21_$LT$impl$u20$u16$GT$14trailing_zeros17h77feb68518d21ae8E
000000000080c3c0 T _ZN4core3num21_$LT$impl$u20$u16$GT$5to_be17habdd02407b21380fE
000000000080c3f0 T _ZN4core3num21_$LT$impl$u20$u16$GT$5to_le17h186c70965ff4f9dfE
000000000080c410 T _ZN4core3num21_$LT$impl$u20$u16$GT$7from_be17h4b6210599ed768ddE
000000000080c440 t _ZN4core3num21_$LT$impl$u20$u32$GT$10swap_bytes17h89370fdb29da80abE
000000000080c470 T _ZN4core3num21_$LT$impl$u20$u32$GT$11to_be_bytes17h217b73c8fddb652dE
000000000080c4b0 T _ZN4core3num21_$LT$impl$u20$u32$GT$11to_ne_bytes17hc1300fd2784b7944E
000000000080c4e0 T _ZN4core3num21_$LT$impl$u20$u32$GT$13from_be_bytes17h91cd0a2bd0a7caf7E
000000000080c530 t _ZN4core3num21_$LT$impl$u20$u32$GT$13from_ne_bytes17h4611a02cfddfd08eE
000000000080c570 T _ZN4core3num21_$LT$impl$u20$u32$GT$13leading_zeros17h704047c729c9a414E
000000000080c5b0 T _ZN4core3num21_$LT$impl$u20$u32$GT$5to_be17h5cd85111c51d4aa0E
000000000080c5e0 T _ZN4core3num21_$LT$impl$u20$u32$GT$5to_le17hb621f3913a59f54fE
000000000080c600 T _ZN4core3num21_$LT$impl$u20$u32$GT$7from_be17h3b93d2bd29ccd17fE
000000000080c630 t _ZN4core3num21_$LT$impl$u20$u64$GT$11checked_add17hf50096249c4f73a4E
000000000080c6b0 T _ZN4core3num21_$LT$impl$u20$u64$GT$11rotate_left17h2cfb43f3cb213aa3E
000000000080c700 T _ZN4core3num21_$LT$impl$u20$u64$GT$12wrapping_add17h688e29ad3462766cE
000000000080c740 t _ZN4core3num21_$LT$impl$u20$u64$GT$15overflowing_add17h93290ea2b72bdd96E
000000000080c7b0 T _ZN4core3num21_$LT$impl$u20$u64$GT$5to_le17h9a7b7b05fc9a0787E
000000000080c7d0 t _ZN4core3num22_$LT$impl$u20$u128$GT$10swap_bytes17h5ca829c7b1e550c5E
000000000080c830 T _ZN4core3num22_$LT$impl$u20$u128$GT$11to_be_bytes17h6b6ba93fcd1ae06aE
000000000080c890 t _ZN4core3num22_$LT$impl$u20$u128$GT$11to_ne_bytes17h53324d8ec33fe4a9E
000000000080c8f0 T _ZN4core3num22_$LT$impl$u20$u128$GT$13from_be_bytes17h2d048a615e021ea9E
000000000080c950 t _ZN4core3num22_$LT$impl$u20$u128$GT$13from_ne_bytes17h2450503cebb830b9E
000000000080c990 t _ZN4core3num22_$LT$impl$u20$u128$GT$5to_be17h70cced535fd70f4bE
000000000080c9e0 t _ZN4core3num22_$LT$impl$u20$u128$GT$7from_be17hdd7c2688a7f5f9adE
000000000080ca30 T _ZN4core3num23_$LT$impl$u20$isize$GT$12wrapping_add17hb92461247d2f2f53E
000000000080ca70 T _ZN4core3num23_$LT$impl$u20$isize$GT$12wrapping_sub17hf07f0a314184f1beE
000000000080cab0 T _ZN4core3num23_$LT$impl$u20$isize$GT$13unchecked_add17h5113112806581df5E
000000000080caf0 t _ZN4core3num23_$LT$impl$u20$usize$GT$10count_ones17h5b2939ad9fd2bbb9E
000000000080cb80 T _ZN4core3num23_$LT$impl$u20$usize$GT$11checked_add17h73c661ddd569ee64E
000000000080cc00 T _ZN4core3num23_$LT$impl$u20$usize$GT$11checked_mul17hc0386fee8acad4f6E
000000000080cc80 T _ZN4core3num23_$LT$impl$u20$usize$GT$11to_ne_bytes17h339261bfdf9fc6b1E
000000000080ccb0 T _ZN4core3num23_$LT$impl$u20$usize$GT$12wrapping_add17h0d4da1d6957aa713E
000000000080ccf0 T _ZN4core3num23_$LT$impl$u20$usize$GT$12wrapping_sub17h766046f8ded63f5cE
000000000080cd30 T _ZN4core3num23_$LT$impl$u20$usize$GT$13unchecked_add17hc1f5a54c70e42ee6E
000000000080cd70 T _ZN4core3num23_$LT$impl$u20$usize$GT$14saturating_add17h0298862bd0757392E
000000000080cdc0 T _ZN4core3num23_$LT$impl$u20$usize$GT$14saturating_mul17hbeebfeee25b208a4E
000000000080ce30 T _ZN4core3num23_$LT$impl$u20$usize$GT$15is_power_of_two17hbf874c1502f5e473E
000000000080ce70 t _ZN4core3num23_$LT$impl$u20$usize$GT$15overflowing_add17hd63049a0b1445dc9E
000000000080cee0 t _ZN4core3num23_$LT$impl$u20$usize$GT$15overflowing_mul17h0da570b9987c3da9E
000000000080cf50 T _ZN4core3ptr9const_ptr33_$LT$impl$u20$$BP$const$u20$T$GT$7is_null17hef30dc8e90c3e206E
000000000080cf90 T _ZN4core4iter8adapters7flatten24FlatMap$LT$I$C$U$C$F$GT$3new17h07342ace3b28c8f1E
000000000080d020 T _ZN4core4iter8adapters7flatten24FlatMap$LT$I$C$U$C$F$GT$3new17h27385b6dcc177731E
000000000080d0b0 T _ZN4core4iter8adapters7flatten24FlatMap$LT$I$C$U$C$F$GT$3new17h68936806d5fd93cfE
000000000080d140 T _ZN4core4iter8adapters7flatten26FlattenCompat$LT$I$C$U$GT$3new17h2089b0ffb746e043E
000000000080d1e0 T _ZN4core4iter8adapters7flatten26FlattenCompat$LT$I$C$U$GT$3new17h2427569f0b99247cE
000000000080d2a0 T _ZN4core4iter8adapters7flatten26FlattenCompat$LT$I$C$U$GT$3new17h4e45595fe416cb53E
000000000080d340 T _ZN4core4time8Duration11from_millis17h30edf4ae5afa32f5E
000000000080d3c0 T _ZN4core4time8Duration12subsec_nanos17hb730528d48df3ad0E
000000000080d3f0 T _ZN4core4time8Duration3new17h5ff550789c493378E
000000000080d4b0 T _ZN4core4time8Duration7as_secs17h92092ca692ae0d00E
000000000080d4e0 T _ZN4core4time8Duration8as_nanos17h7058454d841ee530E
000000000080d5b0 T _ZN4core4time8Duration9as_micros17hc9550280599f7f66E
000000000080d690 T _ZN4core4time8Duration9as_millis17h9908b2c8c7b7f38bE
000000000080d770 T _ZN4core5panic9PanicInfo11set_payload17ha0ccd65581627a0bE
000000000080d7b0 T _ZN4core5panic9PanicInfo20internal_constructor17h63524b2391bf0cb8E
000000000080d810 T _ZN4core6result19Result$LT$T$C$E$GT$14unwrap_or_else17h00349458a549e6d0E
000000000080d900 T _ZN4core6result19Result$LT$T$C$E$GT$14unwrap_or_else17h5a5ef0a66c3b2d53E
000000000080d9a0 T _ZN4core6result19Result$LT$T$C$E$GT$14unwrap_or_else17h8e33041627bcc59eE
000000000080da50 T _ZN4core6result19Result$LT$T$C$E$GT$14unwrap_or_else17hb04083a374c484a9E
000000000080db00 T _ZN4core6result19Result$LT$T$C$E$GT$14unwrap_or_else17hb997a589fba05c3cE
000000000080db90 T _ZN4core6result19Result$LT$T$C$E$GT$14unwrap_or_else17hd46075995ed6cbeeE
000000000080dc30 T _ZN4core6result19Result$LT$T$C$E$GT$14unwrap_or_else17hd71a199327807395E
000000000080dca0 T _ZN4core6result19Result$LT$T$C$E$GT$14unwrap_or_else17hdff384fdf7196057E
000000000080dd40 T _ZN4core6result19Result$LT$T$C$E$GT$14unwrap_or_else17hea6cd4790f042127E
000000000080ddf0 T _ZN4core6result19Result$LT$T$C$E$GT$14unwrap_or_else17hf4a44b8915e590caE
000000000080de60 T _ZN4core6result19Result$LT$T$C$E$GT$2ok17h346dd51cc8568a73E
000000000080df20 T _ZN4core6result19Result$LT$T$C$E$GT$2ok17h458e45a27b977014E
000000000080df90 T _ZN4core6result19Result$LT$T$C$E$GT$2ok17h51a3ab1de60ab47eE
000000000080e000 T _ZN4core6result19Result$LT$T$C$E$GT$2ok17h52b1b3013f787f2cE
000000000080e0c0 T _ZN4core6result19Result$LT$T$C$E$GT$2ok17h65a4b616b5ff8a5cE
000000000080e170 T _ZN4core6result19Result$LT$T$C$E$GT$2ok17h6711c95e912171c9E
000000000080e1f0 T _ZN4core6result19Result$LT$T$C$E$GT$2ok17h6b432d96d2c6fc80E
000000000080e250 T _ZN4core6result19Result$LT$T$C$E$GT$2ok17h77bce0be18385e30E
000000000080e2e0 T _ZN4core6result19Result$LT$T$C$E$GT$2ok17h87716a24fa796351E
000000000080e360 T _ZN4core6result19Result$LT$T$C$E$GT$2ok17h92654e9081d71c1eE
000000000080e420 T _ZN4core6result19Result$LT$T$C$E$GT$2ok17ha3549859585fe823E
000000000080e4e0 T _ZN4core6result19Result$LT$T$C$E$GT$2ok17ha745041886f38469E
000000000080e590 T _ZN4core6result19Result$LT$T$C$E$GT$2ok17hd574cbbf4fd5f2bcE
000000000080e650 T _ZN4core6result19Result$LT$T$C$E$GT$2ok17he71fd68c1814ed93E
000000000080e710 T _ZN4core6result19Result$LT$T$C$E$GT$2ok17hf6037e166130f28cE
000000000080e790 T _ZN4core6result19Result$LT$T$C$E$GT$3map17h0cb8040ca5316d7dE
000000000080e830 T _ZN4core6result19Result$LT$T$C$E$GT$3map17h11d75d41ad47772aE
000000000080e8c0 T _ZN4core6result19Result$LT$T$C$E$GT$3map17h1252eed2ac32ed8cE
000000000080ea30 T _ZN4core6result19Result$LT$T$C$E$GT$3map17h1cb557cf535142f8E
000000000080ead0 T _ZN4core6result19Result$LT$T$C$E$GT$3map17h26e155adfdf7e6a9E
000000000080eb60 T _ZN4core6result19Result$LT$T$C$E$GT$3map17h42275d7b13cd4dbaE
000000000080ec00 T _ZN4core6result19Result$LT$T$C$E$GT$3map17h49528897675b21a6E
000000000080ec90 T _ZN4core6result19Result$LT$T$C$E$GT$3map17h5ccfbcc263a0e381E
000000000080ed30 T _ZN4core6result19Result$LT$T$C$E$GT$3map17h64c3e36c6135c360E
000000000080ee20 T _ZN4core6result19Result$LT$T$C$E$GT$3map17h8b7cafc0768144bfE
000000000080eee0 T _ZN4core6result19Result$LT$T$C$E$GT$3map17h9860fa1c9a9e7c90E
000000000080efa0 T _ZN4core6result19Result$LT$T$C$E$GT$3map17h98b2f1a03820715fE
000000000080f120 T _ZN4core6result19Result$LT$T$C$E$GT$3map17h99a61d810abc9e31E
000000000080f1b0 T _ZN4core6result19Result$LT$T$C$E$GT$3map17h9c5024d67d88c033E
000000000080f240 T _ZN4core6result19Result$LT$T$C$E$GT$3map17hb4c1a485dfe1efa3E
000000000080f2f0 T _ZN4core6result19Result$LT$T$C$E$GT$3map17hc6c0823b4b886b2bE
000000000080f3b0 T _ZN4core6result19Result$LT$T$C$E$GT$3map17hcd2b0e42db339403E
000000000080f440 T _ZN4core6result19Result$LT$T$C$E$GT$3map17he0fd77efc63c2f38E
000000000080f5c0 T _ZN4core6result19Result$LT$T$C$E$GT$3map17hf7c8b525c9355bbeE
000000000080f660 T _ZN4core6result19Result$LT$T$C$E$GT$5is_ok17h0a5a07a3bb4a74ecE
000000000080f6b0 T _ZN4core6result19Result$LT$T$C$E$GT$5is_ok17h6cd52030cc9defc7E
000000000080f6f0 T _ZN4core6result19Result$LT$T$C$E$GT$5is_ok17h7d305e15207b5994E
000000000080f730 T _ZN4core6result19Result$LT$T$C$E$GT$5is_ok17h83598f37673344efE
000000000080f770 T _ZN4core6result19Result$LT$T$C$E$GT$5is_ok17he3c3cf3bd7d6e279E
000000000080f7c0 T _ZN4core6result19Result$LT$T$C$E$GT$5is_ok17hfbc26e321c0ae2f5E
000000000080f810 T _ZN4core6result19Result$LT$T$C$E$GT$6as_ref17haf3c19ebed361518E
000000000080f880 T _ZN4core6result19Result$LT$T$C$E$GT$6expect17h178a9a553ff71806E
000000000080f900 T _ZN4core6result19Result$LT$T$C$E$GT$6expect17h22efcdcca92bd265E
000000000080f980 T _ZN4core6result19Result$LT$T$C$E$GT$6expect17h4b0a9c2bbf17598bE
000000000080fa10 T _ZN4core6result19Result$LT$T$C$E$GT$6expect17h543661fb27347421E
000000000080fa90 T _ZN4core6result19Result$LT$T$C$E$GT$6expect17h80b70790ff8ed887E
000000000080fb20 T _ZN4core6result19Result$LT$T$C$E$GT$6expect17h951db36f790a3b24E
000000000080fbb0 T _ZN4core6result19Result$LT$T$C$E$GT$6expect17hc5a60057dd4b8c24E
000000000080fc40 T _ZN4core6result19Result$LT$T$C$E$GT$6expect17hedbbe041896bf72aE
000000000080fcd0 T _ZN4core6result19Result$LT$T$C$E$GT$6expect17hedf86efe0aaed725E
000000000080fd60 T _ZN4core6result19Result$LT$T$C$E$GT$6expect17hf5d6928ee87f45adE
000000000080fdd0 T _ZN4core6result19Result$LT$T$C$E$GT$6is_err17h9aa9927b420a126bE
000000000080fe10 T _ZN4core6result19Result$LT$T$C$E$GT$6is_err17h9e4b1c19527c02ddE
000000000080fe50 T _ZN4core6result19Result$LT$T$C$E$GT$6unwrap17h1ad986febeb35a59E
000000000080fec0 T _ZN4core6result19Result$LT$T$C$E$GT$6unwrap17h3f4a164604ae7809E
000000000080ff30 T _ZN4core6result19Result$LT$T$C$E$GT$6unwrap17h4386f6d70a295a4dE
000000000080ffa0 T _ZN4core6result19Result$LT$T$C$E$GT$6unwrap17h8225cb38043bc702E
0000000000810000 T _ZN4core6result19Result$LT$T$C$E$GT$6unwrap17hb3ff25faccd6502fE
0000000000810090 T _ZN4core6result19Result$LT$T$C$E$GT$6unwrap17hc2acab098da28084E
0000000000810100 T _ZN4core6result19Result$LT$T$C$E$GT$6unwrap17hde75567a0dd78249E
0000000000810190 T _ZN4core6result19Result$LT$T$C$E$GT$7map_err17h07f5f68efe62d019E
0000000000810210 T _ZN4core6result19Result$LT$T$C$E$GT$7map_err17h239dda9596e3facbE
00000000008102b0 T _ZN4core6result19Result$LT$T$C$E$GT$7map_err17h3640a7b7c9497f22E
0000000000810470 T _ZN4core6result19Result$LT$T$C$E$GT$7map_err17h47c85942017fabebE
0000000000810530 T _ZN4core6result19Result$LT$T$C$E$GT$7map_err17h5785b0d4c8264676E
00000000008105b0 T _ZN4core6result19Result$LT$T$C$E$GT$7map_err17h613694bb680a4d26E
0000000000810670 T _ZN4core6result19Result$LT$T$C$E$GT$7map_err17h64fdc50813661bcdE
0000000000810710 T _ZN4core6result19Result$LT$T$C$E$GT$7map_err17h7046e6f66cdec83fE
0000000000810880 T _ZN4core6result19Result$LT$T$C$E$GT$7map_err17h71d756336c5b5890E
0000000000810900 T _ZN4core6result19Result$LT$T$C$E$GT$7map_err17h751f34d2d4e3b1b7E
0000000000810a70 T _ZN4core6result19Result$LT$T$C$E$GT$7map_err17h87d503922bc10388E
0000000000810be0 T _ZN4core6result19Result$LT$T$C$E$GT$7map_err17h88faed447c63acdeE
0000000000810d90 T _ZN4core6result19Result$LT$T$C$E$GT$7map_err17h94db3b151bf4ff7cE
0000000000810e30 T _ZN4core6result19Result$LT$T$C$E$GT$7map_err17ha36b04eb99e6865dE
0000000000810eb0 T _ZN4core6result19Result$LT$T$C$E$GT$7map_err17ha6f9fcdc602f99fdE
0000000000810f50 T _ZN4core6result19Result$LT$T$C$E$GT$7map_err17hac5251269af426abE
0000000000810ff0 T _ZN4core6result19Result$LT$T$C$E$GT$7map_err17hc0560b13fea81f83E
0000000000811160 T _ZN4core6result19Result$LT$T$C$E$GT$7map_err17hc5daa55c9ff2a05cE
0000000000811220 T _ZN4core6result19Result$LT$T$C$E$GT$7map_err17hcf3e0d42ea06034fE
00000000008112a0 T _ZN4core6result19Result$LT$T$C$E$GT$7map_err17hd4235bd339996399E
0000000000811340 T _ZN4core6result19Result$LT$T$C$E$GT$7map_err17hee97c95da200a50eE
0000000000811440 T _ZN4core6result19Result$LT$T$C$E$GT$7map_err17hf387933219f46592E
00000000008114c0 T _ZN4core6result19Result$LT$T$C$E$GT$7map_err17hfbe4425908d03d89E
0000000000811590 T _ZN4core6result19Result$LT$T$C$E$GT$8and_then17h27332efcef4c49bfE
0000000000811630 T _ZN4core6result19Result$LT$T$C$E$GT$8and_then17h5ae4692cebb9caeaE
00000000008116c0 T _ZN4core6result19Result$LT$T$C$E$GT$8and_then17h5b703ee345d1033fE
0000000000811770 T _ZN4core6result19Result$LT$T$C$E$GT$8and_then17h61e1175ee030d4c1E
0000000000811820 T _ZN4core6result19Result$LT$T$C$E$GT$8and_then17h9e80aa9399c447e9E
00000000008118d0 T _ZN4core6result19Result$LT$T$C$E$GT$8and_then17h9f463a8a1f26fd24E
0000000000811980 T _ZN4core6result19Result$LT$T$C$E$GT$9unwrap_or17h7b22c79c4564f62bE
0000000000811a10 T _ZN4core6result19Result$LT$T$C$E$GT$9unwrap_or17ha4a679a133b1b5c5E
0000000000811ab0 T _ZN4core6result19Result$LT$T$C$E$GT$9unwrap_or17ha9c13c0159f147dcE
0000000000811b30 T _ZN4core6result19Result$LT$T$C$E$GT$9unwrap_or17hf5cd0f184c49bc3cE
0000000000811bd0 T _ZN4core9core_arch3x865cpuid13__cpuid_count17hacc7c5570462d664E
0000000000811c40 T _ZN4core9core_arch3x865cpuid7__cpuid17h446d32a39c9b3dbdE
0000000000811c80 T _ZN4core9core_arch3x865cpuid9has_cpuid17h7f25fd99de73f4cfE
0000000000811ca0 T _ZN54_$LT$dyn$u20$core..any..Any$u2b$core..marker..Send$GT$12downcast_ref17h5a9327c83e7c731cE
0000000000811ce0 t _ZN58_$LT$core..any..TypeId$u20$as$u20$core..cmp..PartialEq$GT$2eq17hf587be0aee297c79E
0000000000811d30 t _ZN58_$LT$core..num..NonZeroU64$u20$as$u20$core..fmt..Debug$GT$3fmt17h9b03a24cb76b6604E
0000000000811d80 T _ZN5alloc5slice4hack6to_vec17h84a97e986e2677b1E
0000000000811df0 T _ZN5alloc5slice4hack8into_vec17ha31ef1efc440d654E
0000000000811e70 T _ZN63_$LT$I$u20$as$u20$core..iter..traits..collect..IntoIterator$GT$9into_iter17h35d4a1e0725f51a2E
0000000000811eb0 T _ZN63_$LT$I$u20$as$u20$core..iter..traits..collect..IntoIterator$GT$9into_iter17h90efa84fac14cdafE
0000000000811ef0 T _ZN63_$LT$I$u20$as$u20$core..iter..traits..collect..IntoIterator$GT$9into_iter17h92dc46fa8f983ed5E
0000000000811f30 T _ZN70_$LT$core..result..Result$LT$T$C$E$GT$$u20$as$u20$core..fmt..Debug$GT$3fmt17h0b941d7b2dfa11e7E
0000000000812060 T _ZN73_$LT$core..result..Result$LT$T$C$E$GT$$u20$as$u20$core..ops..try..Try$GT$10from_error17h120b4ce2ca34ea39E
00000000008120c0 T _ZN73_$LT$core..result..Result$LT$T$C$E$GT$$u20$as$u20$core..ops..try..Try$GT$10from_error17h12921dab73cf894eE
00000000008120f0 T _ZN73_$LT$core..result..Result$LT$T$C$E$GT$$u20$as$u20$core..ops..try..Try$GT$10from_error17h1506dd41d0680477E
0000000000812150 T _ZN73_$LT$core..result..Result$LT$T$C$E$GT$$u20$as$u20$core..ops..try..Try$GT$10from_error17h161d58a5855feb0aE
00000000008121b0 T _ZN73_$LT$core..result..Result$LT$T$C$E$GT$$u20$as$u20$core..ops..try..Try$GT$10from_error17h18510e88d5c89125E
00000000008121d0 T _ZN73_$LT$core..result..Result$LT$T$C$E$GT$$u20$as$u20$core..ops..try..Try$GT$10from_error17h211221a4041404efE
0000000000812230 T _ZN73_$LT$core..result..Result$LT$T$C$E$GT$$u20$as$u20$core..ops..try..Try$GT$10from_error17h335b828dc6c986d2E
0000000000812290 T _ZN73_$LT$core..result..Result$LT$T$C$E$GT$$u20$as$u20$core..ops..try..Try$GT$10from_error17h452b40c6f460fbcdE
00000000008122e0 T _ZN73_$LT$core..result..Result$LT$T$C$E$GT$$u20$as$u20$core..ops..try..Try$GT$10from_error17h4d1848fbddf8f655E
0000000000812340 T _ZN73_$LT$core..result..Result$LT$T$C$E$GT$$u20$as$u20$core..ops..try..Try$GT$10from_error17h6f6cbaf82f6dbfc1E
00000000008123a0 T _ZN73_$LT$core..result..Result$LT$T$C$E$GT$$u20$as$u20$core..ops..try..Try$GT$10from_error17h70b03d51152c83b2E
0000000000812400 T _ZN73_$LT$core..result..Result$LT$T$C$E$GT$$u20$as$u20$core..ops..try..Try$GT$10from_error17h817eb0baee319d1eE
0000000000812450 T _ZN73_$LT$core..result..Result$LT$T$C$E$GT$$u20$as$u20$core..ops..try..Try$GT$10from_error17h89afd0f8ae665feeE
00000000008124b0 T _ZN73_$LT$core..result..Result$LT$T$C$E$GT$$u20$as$u20$core..ops..try..Try$GT$10from_error17h8bc63b2711445581E
00000000008124e0 T _ZN73_$LT$core..result..Result$LT$T$C$E$GT$$u20$as$u20$core..ops..try..Try$GT$10from_error17h8ca34d61e6686593E
0000000000812530 T _ZN73_$LT$core..result..Result$LT$T$C$E$GT$$u20$as$u20$core..ops..try..Try$GT$10from_error17h8ca710600c428628E
0000000000812560 T _ZN73_$LT$core..result..Result$LT$T$C$E$GT$$u20$as$u20$core..ops..try..Try$GT$10from_error17h9f5349f80c79502cE
00000000008125c0 T _ZN73_$LT$core..result..Result$LT$T$C$E$GT$$u20$as$u20$core..ops..try..Try$GT$10from_error17hb6f1fe3c2d5a5682E
00000000008125f0 T _ZN73_$LT$core..result..Result$LT$T$C$E$GT$$u20$as$u20$core..ops..try..Try$GT$10from_error17hc3fd70ded1733ee8E
0000000000812640 T _ZN73_$LT$core..result..Result$LT$T$C$E$GT$$u20$as$u20$core..ops..try..Try$GT$10from_error17hc9ac78c2059dcd87E
00000000008126a0 T _ZN73_$LT$core..result..Result$LT$T$C$E$GT$$u20$as$u20$core..ops..try..Try$GT$10from_error17hcfa89ff82eed6217E
0000000000812700 T _ZN73_$LT$core..result..Result$LT$T$C$E$GT$$u20$as$u20$core..ops..try..Try$GT$10from_error17hdcdc2837045d3be2E
0000000000812760 T _ZN73_$LT$core..result..Result$LT$T$C$E$GT$$u20$as$u20$core..ops..try..Try$GT$10from_error17he8b3d5aa89e175e3E
00000000008127c0 T _ZN73_$LT$core..result..Result$LT$T$C$E$GT$$u20$as$u20$core..ops..try..Try$GT$10from_error17he9b52d61f3298365E
00000000008127e0 T _ZN73_$LT$core..result..Result$LT$T$C$E$GT$$u20$as$u20$core..ops..try..Try$GT$10from_error17hf24cf4b99772400cE
0000000000812840 T _ZN73_$LT$core..result..Result$LT$T$C$E$GT$$u20$as$u20$core..ops..try..Try$GT$11into_result17h0427f9b61b7c3f54E
0000000000812860 T _ZN73_$LT$core..result..Result$LT$T$C$E$GT$$u20$as$u20$core..ops..try..Try$GT$11into_result17h1acb3c9a9b30465aE
00000000008128b0 T _ZN73_$LT$core..result..Result$LT$T$C$E$GT$$u20$as$u20$core..ops..try..Try$GT$11into_result17h1c47481afce114a8E
00000000008128d0 T _ZN73_$LT$core..result..Result$LT$T$C$E$GT$$u20$as$u20$core..ops..try..Try$GT$11into_result17h4fd69f50ad59b999E
0000000000812910 T _ZN73_$LT$core..result..Result$LT$T$C$E$GT$$u20$as$u20$core..ops..try..Try$GT$11into_result17h4ff71741afb8e77bE
0000000000812960 T _ZN73_$LT$core..result..Result$LT$T$C$E$GT$$u20$as$u20$core..ops..try..Try$GT$11into_result17h5df6293790c85deeE
00000000008129b0 T _ZN73_$LT$core..result..Result$LT$T$C$E$GT$$u20$as$u20$core..ops..try..Try$GT$11into_result17h745f2c0b65661dcaE
0000000000812a00 T _ZN73_$LT$core..result..Result$LT$T$C$E$GT$$u20$as$u20$core..ops..try..Try$GT$11into_result17h758071b259063788E
0000000000812a50 T _ZN73_$LT$core..result..Result$LT$T$C$E$GT$$u20$as$u20$core..ops..try..Try$GT$11into_result17h77f2f09a4d925557E
0000000000812aa0 T _ZN73_$LT$core..result..Result$LT$T$C$E$GT$$u20$as$u20$core..ops..try..Try$GT$11into_result17h78ec3104b378524aE
0000000000812af0 T _ZN73_$LT$core..result..Result$LT$T$C$E$GT$$u20$as$u20$core..ops..try..Try$GT$11into_result17h814ca551b269adf0E
0000000000812b10 T _ZN73_$LT$core..result..Result$LT$T$C$E$GT$$u20$as$u20$core..ops..try..Try$GT$11into_result17h88c6846e51a52959E
0000000000812b50 T _ZN73_$LT$core..result..Result$LT$T$C$E$GT$$u20$as$u20$core..ops..try..Try$GT$11into_result17h9431a1cfae294508E
0000000000812b90 T _ZN73_$LT$core..result..Result$LT$T$C$E$GT$$u20$as$u20$core..ops..try..Try$GT$11into_result17h94ba2f5911069a25E
0000000000812bc0 T _ZN73_$LT$core..result..Result$LT$T$C$E$GT$$u20$as$u20$core..ops..try..Try$GT$11into_result17hb5152597458bd35fE
0000000000812c10 T _ZN73_$LT$core..result..Result$LT$T$C$E$GT$$u20$as$u20$core..ops..try..Try$GT$11into_result17hbf762bd087da0c55E
0000000000812c60 T _ZN73_$LT$core..result..Result$LT$T$C$E$GT$$u20$as$u20$core..ops..try..Try$GT$11into_result17hbfdd90dd881197bcE
0000000000812ca0 T _ZN73_$LT$core..result..Result$LT$T$C$E$GT$$u20$as$u20$core..ops..try..Try$GT$11into_result17hc58ecb05dc20e0dfE
0000000000812ce0 T _ZN73_$LT$core..result..Result$LT$T$C$E$GT$$u20$as$u20$core..ops..try..Try$GT$11into_result17hc5978baa0692c523E
0000000000812d20 T _ZN73_$LT$core..result..Result$LT$T$C$E$GT$$u20$as$u20$core..ops..try..Try$GT$11into_result17hce4cfebf6a518371E
0000000000812d60 T _ZN73_$LT$core..result..Result$LT$T$C$E$GT$$u20$as$u20$core..ops..try..Try$GT$11into_result17hdaa9a6e0323b2241E
0000000000812db0 T _ZN73_$LT$core..result..Result$LT$T$C$E$GT$$u20$as$u20$core..ops..try..Try$GT$11into_result17hee3c6bd9910e2b29E
0000000000812e00 T _ZN73_$LT$core..result..Result$LT$T$C$E$GT$$u20$as$u20$core..ops..try..Try$GT$11into_result17hef7f6db94ff487bbE
0000000000812e20 T _ZN73_$LT$core..result..Result$LT$T$C$E$GT$$u20$as$u20$core..ops..try..Try$GT$11into_result17hf1a6c31e2ae06513E
0000000000812e70 T _ZN73_$LT$core..result..Result$LT$T$C$E$GT$$u20$as$u20$core..ops..try..Try$GT$11into_result17hfde0e1fb2f4bd10bE
0000000000812eb0 T _ZN62_$LT$core..num..ParseIntError$u20$as$u20$std..error..Error$GT$11description17h37859fcd95086468E
0000000000812ef0 T _ZN64_$LT$core..num..TryFromIntError$u20$as$u20$std..error..Error$GT$11description17h5e44cea063c59f33E
0000000000812f30 t _ZN3std2io6cursor9vec_write17h1a4e94368545426bE
0000000000813320 t _ZN3std2io6cursor9vec_write28_$u7b$$u7b$closure$u7d$$u7d$17h2c07fc0d28a5ac91E
0000000000813370 t _ZN3std2io6cursor18vec_write_vectored17hab3231d96dd9f1e7E
0000000000813590 T _ZN103_$LT$std..io..cursor..Cursor$LT$$RF$mut$u20$alloc..vec..Vec$LT$u8$GT$$GT$$u20$as$u20$std..io..Write$GT$5write17h4434dc583836dae5E
0000000000813600 T _ZN103_$LT$std..io..cursor..Cursor$LT$$RF$mut$u20$alloc..vec..Vec$LT$u8$GT$$GT$$u20$as$u20$std..io..Write$GT$14write_vectored17h756aacaf8d3a5581E
0000000000813670 T _ZN91_$LT$std..io..cursor..Cursor$LT$alloc..vec..Vec$LT$u8$GT$$GT$$u20$as$u20$std..io..Write$GT$5write17h876ac6d6353255ffE
00000000008136e0 T _ZN91_$LT$std..io..cursor..Cursor$LT$alloc..vec..Vec$LT$u8$GT$$GT$$u20$as$u20$std..io..Write$GT$14write_vectored17h9a18c96b9fdb80b7E
0000000000813750 T _ZN3std2io4util5empty17h21855a94b2c607c8E
0000000000813760 T _ZN57_$LT$std..io..util..Empty$u20$as$u20$core..fmt..Debug$GT$3fmt17hc815628ef3f2b6d5E
00000000008137b0 T _ZN3std2io4util6repeat17h77a9e80f9b00ddbaE
00000000008137e0 T _ZN58_$LT$std..io..util..Repeat$u20$as$u20$core..fmt..Debug$GT$3fmt17hca48d6aa6cb643b3E
0000000000813830 T _ZN3std2io4util4sink17h04774aee87a99d8cE
0000000000813840 T _ZN56_$LT$std..io..util..Sink$u20$as$u20$core..fmt..Debug$GT$3fmt17h77496df423e72816E
0000000000813890 T _ZN3std10sys_common5mutex5Mutex3new17hd17c1ec62800eb12E
00000000008138c0 T _ZN3std10sys_common5mutex5Mutex4init17h001adb95d2a0809aE
00000000008138f0 T _ZN3std10sys_common5mutex5Mutex8raw_lock17hf0b17ad17f25831aE
0000000000813920 T _ZN3std10sys_common5mutex5Mutex4lock17hc3bd5506ab13f704E
0000000000813960 T _ZN3std10sys_common5mutex5Mutex10raw_unlock17hda7816bdfff5ef72E
0000000000813990 T _ZN3std10sys_common5mutex5Mutex7destroy17h49a9a3dc755fbde5E
00000000008139c0 T _ZN3std10sys_common5mutex3raw17h40ca1baa5f4411bfE
00000000008139e0 T _ZN76_$LT$std..sys_common..mutex..MutexGuard$u20$as$u20$core..ops..drop..Drop$GT$4drop17h40d8e76234decf00E
0000000000813a10 T _ZN3std10sys_common12thread_local9StaticKey3new17ha800e5aa0041815eE
0000000000813a70 t _ZN3std10sys_common12thread_local9StaticKey3get17h1dbbd7332216cf46E
0000000000813ab0 t _ZN3std10sys_common12thread_local9StaticKey3set17h3ec820316a1839ffE
0000000000813b00 t _ZN3std10sys_common12thread_local9StaticKey3key17h49b5c3be2f93700eE
0000000000813b60 T _ZN3std10sys_common12thread_local9StaticKey9lazy_init17h73735c66e812e6f6E
0000000000813dd0 T _ZN76_$LT$std..sys_common..thread_local..Key$u20$as$u20$core..ops..drop..Drop$GT$4drop17hbd02e45968a959efE
0000000000813df0 t _ZN3std10sys_common12thread_local22register_dtor_fallback9run_dtors17hcfa6e57021e4b137E
0000000000813f70 T __rdl_alloc
0000000000813fe0 T __rdl_dealloc
0000000000814050 T __rdl_realloc
00000000008140e0 T __rdl_alloc_zeroed
0000000000814150 T _ZN3std2rt19lang_start_internal17he9723076cd56ece6E
0000000000814290 T _ZN3std2rt19lang_start_internal28_$u7b$$u7b$closure$u7d$$u7d$28_$u7b$$u7b$closure$u7d$$u7d$17ha6d8f7f44e57834cE
00000000008142d0 T _ZN3std2rt19lang_start_internal28_$u7b$$u7b$closure$u7d$$u7d$17h9e0e6c3ac19ff18dE
0000000000814320 t _ZN3std10std_detect6detect5cache7set_bit17h6b438bf57d39401cE
00000000008143a0 T _ZN86_$LT$std..std_detect..detect..cache..Initializer$u20$as$u20$core..default..Default$GT$7default17h7f83b88b8fb2154aE
00000000008143b0 T _ZN3std10std_detect6detect5cache11Initializer3set17h494636dc967819d4E
0000000000814430 T _ZN3std3sys6hermit17fast_thread_local13register_dtor17h8e68351dadebcb3dE
0000000000814520 T _ZN3std3sys6hermit17fast_thread_local9run_dtors17h515c9a8c9ff9c9b0E
00000000008146a0 T _ZN3std3sys6hermit2io7IoSlice3new17h97972b5543500f8eE
00000000008146e0 T _ZN3std3sys6hermit2io7IoSlice7advance17h6d1e8faca102c220E
0000000000814750 T _ZN3std3sys6hermit2io7IoSlice8as_slice17h91c1be4758050c9fE
0000000000814780 T _ZN3std3sys6hermit2io10IoSliceMut3new17h9680c50700463352E
00000000008147c0 T _ZN3std3sys6hermit2io10IoSliceMut8as_slice17h8193f01884ef17b5E
00000000008147f0 T _ZN3std3sys6hermit2io10IoSliceMut12as_mut_slice17hf3107c87660b7870E
0000000000814820 T _ZN3std3sys6hermit5mutex5Mutex3new17h6d2ed4108b5c5cbeE
0000000000814840 t _ZN3std3sys6hermit5mutex5Mutex4init17h36f4405f2d227332E
0000000000814880 T _ZN3std3sys6hermit5mutex5Mutex4lock17hff2637f979278a63E
00000000008148c0 T _ZN3std3sys6hermit5mutex5Mutex6unlock17h68bae313acfc36d6E
00000000008148f0 t _ZN3std3sys6hermit5mutex5Mutex7destroy17hb44fef0e8d2f1ab4E
0000000000814920 T _ZN3std3sys6hermit5mutex14ReentrantMutex13uninitialized17hcde58658ffce26faE
0000000000814940 T _ZN3std3sys6hermit5mutex14ReentrantMutex4init17h286d3407b6107a9eE
0000000000814970 T _ZN3std3sys6hermit5mutex14ReentrantMutex4lock17h630b6edca617a181E
00000000008149a0 T _ZN3std3sys6hermit5mutex14ReentrantMutex6unlock17h9a1efeba722db50bE
00000000008149d0 T _ZN3std3sys6hermit5mutex14ReentrantMutex7destroy17hca0f12f2176eb396E
0000000000814a00 T _ZN3std3sys6hermit4path11is_sep_byte17h37205af36c55e226E
0000000000814a30 T _ZN3std3sys6hermit4path15is_verbatim_sep17h4a819023b1f9bb90E
0000000000814a60 T _ZN3std3sys6hermit4path12parse_prefix17hff2e708ef39928dcE
0000000000814ab0 T _ZN106_$LT$alloc..boxed..Box$LT$$u5b$T$u5d$$GT$$u20$as$u20$core..convert..From$LT$$u5b$T$u3b$$u20$N$u5d$$GT$$GT$4from17h92c4d0425577662aE
0000000000814af0 T _ZN42_$LT$$RF$T$u20$as$u20$core..fmt..Debug$GT$3fmt17h02fc32e479b86208E
0000000000814b40 T _ZN42_$LT$$RF$T$u20$as$u20$core..fmt..Debug$GT$3fmt17hdceb19ae51c400b5E
0000000000814b90 T _ZN4core3fmt5Write10write_char17h0d19007d64657ab1E
0000000000814c10 T _ZN4core3fmt5Write10write_char17h496942b7897d4c00E
0000000000814c90 T _ZN4core3fmt5Write10write_char17h89a16a80096deec0E
0000000000814d10 T _ZN4core3fmt5Write10write_char17hb2c648a08b4563edE
0000000000814d90 T _ZN4core3fmt5Write9write_fmt17h54d6a8e20384702bE
0000000000814e10 T _ZN4core3fmt5Write9write_fmt17hb9dc5a3300749b08E
0000000000814e90 T _ZN4core3fmt5Write9write_fmt17hbff0d86fdae06516E
0000000000814f10 T _ZN4core3fmt5Write9write_fmt17hf826c2125d556a2cE
0000000000814f90 T _ZN4core3ptr7mut_ptr31_$LT$impl$u20$$BP$mut$u20$T$GT$11write_bytes17he94f5f11d40d7ec7E
0000000000814fd0 T _ZN4core3ptr7mut_ptr31_$LT$impl$u20$$BP$mut$u20$T$GT$3add17h041849b68dfd44c6E
0000000000815010 T _ZN4core3ptr7mut_ptr31_$LT$impl$u20$$BP$mut$u20$T$GT$3add17h72bb09d9cd65cb6aE
0000000000815050 T _ZN4core3ptr7mut_ptr31_$LT$impl$u20$$BP$mut$u20$T$GT$3add17hd75f4892f95691ecE
0000000000815090 T _ZN4core3ptr7mut_ptr31_$LT$impl$u20$$BP$mut$u20$T$GT$6offset17h4714b8f4f19f9e7cE
00000000008150e0 T _ZN4core3ptr7mut_ptr31_$LT$impl$u20$$BP$mut$u20$T$GT$6offset17h69676925d1007f4dE
0000000000815130 T _ZN4core3ptr7mut_ptr31_$LT$impl$u20$$BP$mut$u20$T$GT$6offset17hc56331c3ad03c5d0E
0000000000815180 T _ZN4core3ptr7mut_ptr31_$LT$impl$u20$$BP$mut$u20$T$GT$7is_null17h1d018be70bd54635E
00000000008151c0 T _ZN4core3ptr7mut_ptr31_$LT$impl$u20$$BP$mut$u20$T$GT$7is_null17hc64c80a04314cb2eE
0000000000815200 T _ZN4core3ptr7mut_ptr31_$LT$impl$u20$$BP$mut$u20$T$GT$7is_null17hf8b7ec56191d4a08E
0000000000815240 T _ZN4core3ptr9const_ptr33_$LT$impl$u20$$BP$const$u20$T$GT$11offset_from17h5284f35956c4aa3fE
00000000008152f0 T _ZN4core3ptr9const_ptr33_$LT$impl$u20$$BP$const$u20$T$GT$3add17hbca15a68f11b9f83E
0000000000815330 T _ZN4core3ptr9const_ptr33_$LT$impl$u20$$BP$const$u20$T$GT$3add17hfb2fd2f0bb07f635E
0000000000815370 T _ZN4core3ptr9const_ptr33_$LT$impl$u20$$BP$const$u20$T$GT$6offset17h10f230b2211a3d08E
00000000008153c0 T _ZN4core3ptr9const_ptr33_$LT$impl$u20$$BP$const$u20$T$GT$6offset17h5d89e69a60b28ae4E
0000000000815410 T _ZN4core3ptr9const_ptr33_$LT$impl$u20$$BP$const$u20$T$GT$6offset17hefabffd81f78777fE
0000000000815460 T _ZN4core3ptr9const_ptr33_$LT$impl$u20$$BP$const$u20$T$GT$7is_null17h68cedcbabee816a2E
00000000008154a0 T _ZN4core3ptr9const_ptr33_$LT$impl$u20$$BP$const$u20$T$GT$7is_null17h89985ac742931f9bE
00000000008154e0 T _ZN4core3ptr9const_ptr33_$LT$impl$u20$$BP$const$u20$T$GT$7is_null17hb59fed4634ec158eE
0000000000815520 T _ZN4core3ptr9const_ptr33_$LT$impl$u20$$BP$const$u20$T$GT$7is_null17hba236e2762e0b711E
0000000000815560 T _ZN4core3ptr9const_ptr33_$LT$impl$u20$$BP$const$u20$T$GT$7is_null17hee4db57cf3146aedE
00000000008155a0 T _ZN4core3ptr9const_ptr33_$LT$impl$u20$$BP$const$u20$T$GT$7is_null17hf69d12cc451a319bE
00000000008155e0 T _ZN4core5slice29_$LT$impl$u20$$u5b$T$u5d$$GT$10as_mut_ptr17h8787e5fe9b53c606E
0000000000815610 T _ZN4core5slice29_$LT$impl$u20$$u5b$T$u5d$$GT$10as_mut_ptr17hcf22edcbfdcc3db7E
0000000000815640 T _ZN4core5slice29_$LT$impl$u20$$u5b$T$u5d$$GT$3len17h3a0115e73b00f8aaE
0000000000815680 T _ZN4core5slice29_$LT$impl$u20$$u5b$T$u5d$$GT$3len17habf564cbb3d37dd8E
00000000008156c0 T _ZN4core5slice29_$LT$impl$u20$$u5b$T$u5d$$GT$4iter17h24928dab1a7f1a90E
00000000008157b0 T _ZN4core5slice29_$LT$impl$u20$$u5b$T$u5d$$GT$4iter17hc51ff8f836f7f513E
00000000008158a0 T _ZN4core5slice29_$LT$impl$u20$$u5b$T$u5d$$GT$6as_ptr17h015d458c403e586fE
00000000008158d0 T _ZN4core5slice29_$LT$impl$u20$$u5b$T$u5d$$GT$6as_ptr17h2673adb93a37c4c6E
0000000000815900 T _ZN4core5slice29_$LT$impl$u20$$u5b$T$u5d$$GT$8is_empty17h628b7ffdfb8f4e6cE
0000000000815950 T _ZN4core5slice29_$LT$impl$u20$$u5b$T$u5d$$GT$8iter_mut17h10a3d2c693da1b2aE
0000000000815a40 T _ZN4core5slice29_$LT$impl$u20$$u5b$T$u5d$$GT$8split_at17hbb8640a79b0bc37cE
0000000000815b00 T _ZN4core5slice74_$LT$impl$u20$core..ops..index..Index$LT$I$GT$$u20$for$u20$$u5b$T$u5d$$GT$5index17h5c5cb39c449daf27E
0000000000815b60 T _ZN4core5slice74_$LT$impl$u20$core..ops..index..Index$LT$I$GT$$u20$for$u20$$u5b$T$u5d$$GT$5index17hce366908f82b2494E
0000000000815bc0 T _ZN4core5slice76_$LT$impl$u20$core..default..Default$u20$for$u20$$RF$mut$u20$$u5b$T$u5d$$GT$7default17h6ca5dd727061ec2cE
0000000000815be0 T _ZN4core5slice77_$LT$impl$u20$core..ops..index..IndexMut$LT$I$GT$$u20$for$u20$$u5b$T$u5d$$GT$9index_mut17h79331508ba2d9503E
0000000000815c40 T _ZN4core5slice87_$LT$impl$u20$core..iter..traits..collect..IntoIterator$u20$for$u20$$RF$$u5b$T$u5d$$GT$9into_iter17h02b2b0be1b60ae43E
0000000000815c90 T _ZN4core5slice95_$LT$impl$u20$core..iter..traits..collect..IntoIterator$u20$for$u20$$RF$mut$u20$$u5b$T$u5d$$GT$9into_iter17h59b572d8b5db23dcE
0000000000815ce0 T _ZN50_$LT$$RF$mut$u20$W$u20$as$u20$core..fmt..Write$GT$10write_char17h0532f63bb56fdf71E
0000000000815d20 T _ZN50_$LT$$RF$mut$u20$W$u20$as$u20$core..fmt..Write$GT$10write_char17h848b4be561c6bfadE
0000000000815d60 T _ZN50_$LT$$RF$mut$u20$W$u20$as$u20$core..fmt..Write$GT$10write_char17h9753c9b010520c9bE
0000000000815da0 T _ZN50_$LT$$RF$mut$u20$W$u20$as$u20$core..fmt..Write$GT$10write_char17hf79790ad6364f8fbE
0000000000815de0 T _ZN50_$LT$$RF$mut$u20$W$u20$as$u20$core..fmt..Write$GT$9write_fmt17h22de9e5f755033b8E
0000000000815e40 T _ZN50_$LT$$RF$mut$u20$W$u20$as$u20$core..fmt..Write$GT$9write_fmt17hb0e9c249cf7a759aE
0000000000815ea0 T _ZN50_$LT$$RF$mut$u20$W$u20$as$u20$core..fmt..Write$GT$9write_fmt17hb427a1004bd4434bE
0000000000815f00 T _ZN50_$LT$$RF$mut$u20$W$u20$as$u20$core..fmt..Write$GT$9write_fmt17hb6133ae5c0036f9bE
0000000000815f60 T _ZN50_$LT$$RF$mut$u20$W$u20$as$u20$core..fmt..Write$GT$9write_str17h8a624a5a51101dc4E
0000000000815fb0 T _ZN50_$LT$$RF$mut$u20$W$u20$as$u20$core..fmt..Write$GT$9write_str17h9d16eeb630032de0E
0000000000816000 T _ZN50_$LT$$RF$mut$u20$W$u20$as$u20$core..fmt..Write$GT$9write_str17hccde45707d78b779E
0000000000816050 T _ZN50_$LT$$RF$mut$u20$W$u20$as$u20$core..fmt..Write$GT$9write_str17hf5262c4567ad8189E
00000000008160a0 T _ZN5alloc5boxed12Box$LT$T$GT$11into_unique17ha54857bb05793e22E
00000000008160e0 T _ZN5alloc5boxed12Box$LT$T$GT$11into_unique17hc33426ddf0ae9ae3E
0000000000816120 T _ZN5alloc5boxed12Box$LT$T$GT$4leak17h14380481febadea8E
0000000000816170 T _ZN5alloc5boxed12Box$LT$T$GT$4leak17h234de50987b0e5b2E
00000000008161f0 T _ZN5alloc5boxed12Box$LT$T$GT$4leak17h2724e55c135cee2dE
0000000000816240 T _ZN5alloc5boxed12Box$LT$T$GT$4leak17h3b862769d030f6d8E
0000000000816290 T _ZN5alloc5boxed12Box$LT$T$GT$4leak17h562e408ff51cd6bdE
00000000008162e0 T _ZN5alloc5boxed12Box$LT$T$GT$4leak17h5ade8949a42cf000E
0000000000816330 T _ZN5alloc5boxed12Box$LT$T$GT$4leak17h78426ce740ee6a58E
00000000008163b0 T _ZN5alloc5boxed12Box$LT$T$GT$4leak17h82f4c2093404dbc9E
0000000000816400 T _ZN5alloc5boxed12Box$LT$T$GT$4leak17h8fa08626b3ab4a6eE
0000000000816480 T _ZN5alloc5boxed12Box$LT$T$GT$4leak17h92c7d71834bf9fd3E
0000000000816500 T _ZN5alloc5boxed12Box$LT$T$GT$4leak17h974549727dae11b3E
0000000000816550 T _ZN5alloc5boxed12Box$LT$T$GT$4leak17had77dd3a57b99d9dE
00000000008165a0 T _ZN5alloc5boxed12Box$LT$T$GT$4leak17hb427f39e7ef81ad0E
00000000008165f0 T _ZN5alloc5boxed12Box$LT$T$GT$4leak17hb610d0f348d7567bE
0000000000816670 T _ZN5alloc5boxed12Box$LT$T$GT$4leak17hbf71d5346960d20cE
00000000008166c0 T _ZN5alloc5boxed12Box$LT$T$GT$4leak17hcdd5411659b3806eE
0000000000816740 T _ZN5alloc5boxed12Box$LT$T$GT$4leak17hcf6a52f41996d410E
0000000000816790 T _ZN5alloc5boxed12Box$LT$T$GT$4leak17hd6666c67e3dc777fE
00000000008167e0 T _ZN5alloc5boxed12Box$LT$T$GT$4leak17he64a045476f2da9cE
0000000000816860 T _ZN5alloc5boxed12Box$LT$T$GT$8from_raw17h2769679f7b600469E
00000000008168a0 T _ZN5alloc5boxed12Box$LT$T$GT$8from_raw17h2bf6d8fa1ac998d3E
0000000000816900 T _ZN5alloc5boxed12Box$LT$T$GT$8from_raw17h3b9ca98ae157b631E
0000000000816960 T _ZN5alloc5boxed12Box$LT$T$GT$8from_raw17h4fb1f46f948c7c13E
00000000008169a0 T _ZN5alloc5boxed12Box$LT$T$GT$8from_raw17h5b772c40616c3540E
0000000000816a00 T _ZN5alloc5boxed12Box$LT$T$GT$8from_raw17h6344f5b6c4bdb8b1E
0000000000816a60 T _ZN5alloc5boxed12Box$LT$T$GT$8from_raw17h7506fc0081b26531E
0000000000816ac0 T _ZN5alloc5boxed12Box$LT$T$GT$8from_raw17h7a56bf85f5ffe4eaE
0000000000816b00 T _ZN5alloc5boxed12Box$LT$T$GT$8from_raw17h9ea820300edf1cccE
0000000000816b40 T _ZN5alloc5boxed12Box$LT$T$GT$8from_raw17hb04682ea9d24f1e1E
0000000000816b80 T _ZN5alloc5boxed12Box$LT$T$GT$8from_raw17hce3ef3ccc5f92b04E
0000000000816be0 T _ZN5alloc5boxed12Box$LT$T$GT$8into_raw17h089cbd1614a8358fE
0000000000816c30 T _ZN5alloc5boxed12Box$LT$T$GT$8into_raw17h0b6bce4d1ef864e2E
0000000000816c80 T _ZN5alloc5boxed12Box$LT$T$GT$8into_raw17h24899286dfae06b8E
0000000000816cb0 T _ZN5alloc5boxed12Box$LT$T$GT$8into_raw17h369e7f567f2c83b5E
0000000000816d00 T _ZN5alloc5boxed12Box$LT$T$GT$8into_raw17h4f6025035343542aE
0000000000816d30 T _ZN5alloc5boxed12Box$LT$T$GT$8into_raw17h62f77e93617a372cE
0000000000816d80 T _ZN5alloc5boxed12Box$LT$T$GT$8into_raw17h7dd883da508e001dE
0000000000816db0 T _ZN5alloc5boxed12Box$LT$T$GT$8into_raw17ha33917081fde750fE
0000000000816e00 T _ZN5alloc5boxed12Box$LT$T$GT$8into_raw17ha98113b3cdfc92fcE
0000000000816e50 T _ZN5alloc5boxed12Box$LT$T$GT$8into_raw17hd50b73f5b94fa353E
0000000000816e80 T _ZN5alloc5boxed12Box$LT$T$GT$8into_raw17he6bf4047cd30b208E
0000000000816eb0 T _ZN5alloc5boxed12Box$LT$T$GT$8into_raw17hfb3c1021f22cae57E
0000000000816f00 T _ZN63_$LT$alloc..boxed..Box$LT$T$GT$$u20$as$u20$core..fmt..Debug$GT$3fmt17h1fdf880e48257871E
0000000000816f50 T _ZN63_$LT$alloc..boxed..Box$LT$T$GT$$u20$as$u20$core..fmt..Debug$GT$3fmt17hcc8a34ca690aec2cE
0000000000816fa0 T _ZN65_$LT$alloc..boxed..Box$LT$T$GT$$u20$as$u20$core..fmt..Display$GT$3fmt17ha2e4097f0358a73cE
0000000000816ff0 T _ZN83_$LT$alloc..boxed..Box$LT$F$GT$$u20$as$u20$core..ops..function..FnOnce$LT$A$GT$$GT$9call_once17h379af7e7b9022db9E
0000000000817030 T _ZN83_$LT$alloc..boxed..Box$LT$F$GT$$u20$as$u20$core..ops..function..FnOnce$LT$A$GT$$GT$9call_once17h86fafd9b8dd0de03E
0000000000817080 t _ZN3std5error175_$LT$impl$u20$core..convert..From$LT$alloc..string..String$GT$$u20$for$u20$alloc..boxed..Box$LT$dyn$u20$std..error..Error$u2b$core..marker..Sync$u2b$core..marker..Send$GT$$GT$4from17h8c4da3a8d565bbf1E
0000000000817100 T _ZN3std5error129_$LT$impl$u20$core..convert..From$LT$alloc..string..String$GT$$u20$for$u20$alloc..boxed..Box$LT$dyn$u20$std..error..Error$GT$$GT$4from17h972a2d8866452148E
0000000000817160 T _ZN3std5error161_$LT$impl$u20$core..convert..From$LT$$RF$str$GT$$u20$for$u20$alloc..boxed..Box$LT$dyn$u20$std..error..Error$u2b$core..marker..Sync$u2b$core..marker..Send$GT$$GT$4from17h0789abbbfe68b7cbE
00000000008171c0 T _ZN3std5error115_$LT$impl$u20$core..convert..From$LT$$RF$str$GT$$u20$for$u20$alloc..boxed..Box$LT$dyn$u20$std..error..Error$GT$$GT$4from17h9f2100c2809dbc4bE
0000000000817220 T _ZN3std5error183_$LT$impl$u20$core..convert..From$LT$alloc..borrow..Cow$LT$str$GT$$GT$$u20$for$u20$alloc..boxed..Box$LT$dyn$u20$std..error..Error$u2b$core..marker..Sync$u2b$core..marker..Send$GT$$GT$4from17h43328e1dc25237d7E
0000000000817280 T _ZN3std5error137_$LT$impl$u20$core..convert..From$LT$alloc..borrow..Cow$LT$str$GT$$GT$$u20$for$u20$alloc..boxed..Box$LT$dyn$u20$std..error..Error$GT$$GT$4from17h2b5830cc9fd06c56E
00000000008172e0 T _ZN3std3ffi5c_str129_$LT$impl$u20$core..convert..From$LT$$RF$std..ffi..c_str..CStr$GT$$u20$for$u20$alloc..boxed..Box$LT$std..ffi..c_str..CStr$GT$$GT$4from17hce19cecf02bcf90bE
0000000000817370 T _ZN3std3ffi5c_str99_$LT$impl$u20$core..default..Default$u20$for$u20$alloc..boxed..Box$LT$std..ffi..c_str..CStr$GT$$GT$7default17hb89b0a05612487b5E
00000000008173e0 T _ZN3std3ffi6os_str133_$LT$impl$u20$core..convert..From$LT$$RF$std..ffi..os_str..OsStr$GT$$u20$for$u20$alloc..boxed..Box$LT$std..ffi..os_str..OsStr$GT$$GT$4from17h546d9634a7e1a14eE
0000000000817460 T _ZN3std3ffi6os_str132_$LT$impl$u20$core..convert..From$LT$std..ffi..os_str..OsString$GT$$u20$for$u20$alloc..boxed..Box$LT$std..ffi..os_str..OsStr$GT$$GT$4from17h27092cd064bf96bfE
00000000008174b0 T _ZN3std3ffi6os_str101_$LT$impl$u20$core..default..Default$u20$for$u20$alloc..boxed..Box$LT$std..ffi..os_str..OsStr$GT$$GT$7default17h664086a6d9e6756fE
0000000000817510 T _ZN3std2io5impls71_$LT$impl$u20$std..io..Write$u20$for$u20$alloc..boxed..Box$LT$W$GT$$GT$5write17h992d8bc54dfeea3fE
0000000000817580 T _ZN3std2io5impls71_$LT$impl$u20$std..io..Write$u20$for$u20$alloc..boxed..Box$LT$W$GT$$GT$14write_vectored17h7d12a14f9e209f47E
00000000008175f0 T _ZN3std2io5impls71_$LT$impl$u20$std..io..Write$u20$for$u20$alloc..boxed..Box$LT$W$GT$$GT$17is_write_vectored17ha42053b254ddd72eE
0000000000817630 T _ZN3std2io5impls71_$LT$impl$u20$std..io..Write$u20$for$u20$alloc..boxed..Box$LT$W$GT$$GT$5flush17hd186269ce6488b94E
0000000000817670 T _ZN3std2io5impls71_$LT$impl$u20$std..io..Write$u20$for$u20$alloc..boxed..Box$LT$W$GT$$GT$9write_all17h787ec75300b3fec6E
00000000008176e0 T _ZN3std2io5impls71_$LT$impl$u20$std..io..Write$u20$for$u20$alloc..boxed..Box$LT$W$GT$$GT$9write_fmt17hb992c5ca6126b74cE
0000000000817760 T _ZN56_$LT$std..io..Guard$u20$as$u20$core..ops..drop..Drop$GT$4drop17h6cee2e8972e432ffE
0000000000817790 T _ZN3std2io16append_to_string17h67429524b9bde04fE
0000000000817910 T _ZN3std2io16append_to_string17h8f90ea5e58d1c53aE
0000000000817a90 T _ZN3std2io16append_to_string17he9209f8a284cade2E
0000000000817c10 T _ZN3std2io16append_to_string28_$u7b$$u7b$closure$u7d$$u7d$17h3524fa6bf9d32b1aE
0000000000817c80 T _ZN3std2io16append_to_string28_$u7b$$u7b$closure$u7d$$u7d$17h469b98deb9bf66e6E
0000000000817cf0 T _ZN3std2io16append_to_string28_$u7b$$u7b$closure$u7d$$u7d$17hea823610ec555f24E
0000000000817d60 T _ZN3std2io11read_to_end17hcae45a65490167adE
0000000000817db0 T _ZN3std2io11read_to_end17hcf5804ac03a06c12E
0000000000817e00 T _ZN3std2io11read_to_end17hdf9de1bf43aa9c79E
0000000000817e50 t _ZN3std2io11read_to_end28_$u7b$$u7b$closure$u7d$$u7d$17h0dbf193b549aeb63E
0000000000817e80 t _ZN3std2io11read_to_end28_$u7b$$u7b$closure$u7d$$u7d$17h4b5a22f65e7abb59E
0000000000817eb0 t _ZN3std2io11read_to_end28_$u7b$$u7b$closure$u7d$$u7d$17h66804e2087dbcd69E
0000000000817ee0 T _ZN3std2io28read_to_end_with_reservation17h0b4a41a2641b1b3dE
00000000008182c0 T _ZN3std2io28read_to_end_with_reservation17h8d7574dfc02275c2E
00000000008186a0 T _ZN3std2io28read_to_end_with_reservation17hd8bf759e46344539E
0000000000818a80 T _ZN3std2io21default_read_vectored17hfa899e967470552dE
0000000000818b80 T _ZN3std2io21default_read_vectored28_$u7b$$u7b$closure$u7d$$u7d$17h90c936e82d479a55E
0000000000818be0 T _ZN3std2io21default_read_vectored28_$u7b$$u7b$closure$u7d$$u7d$17hab9ff2326ef9ead1E
0000000000818c20 T _ZN3std2io22default_write_vectored17h4d22ded3cadf9857E
0000000000818d20 T _ZN3std2io22default_write_vectored28_$u7b$$u7b$closure$u7d$$u7d$17h5b30d8a9f0daa46dE
0000000000818d80 T _ZN3std2io22default_write_vectored28_$u7b$$u7b$closure$u7d$$u7d$17h09235f548ca5d449E
0000000000818dc0 t _ZN3std2io4Read14read_to_string28_$u7b$$u7b$closure$u7d$$u7d$17h1b4b986b99b670d7E
0000000000818e10 t _ZN3std2io4Read14read_to_string28_$u7b$$u7b$closure$u7d$$u7d$17h5fe2836121bcebb7E
0000000000818e60 T _ZN56_$LT$std..io..IoSliceMut$u20$as$u20$core..fmt..Debug$GT$3fmt17he17350db21bc9027E
0000000000818ec0 T _ZN3std2io10IoSliceMut3new17h97dc058b30d88fc3E
0000000000818f20 T _ZN63_$LT$std..io..IoSliceMut$u20$as$u20$core..ops..deref..Deref$GT$5deref17hd2b3025feec4e8efE
0000000000818f60 T _ZN66_$LT$std..io..IoSliceMut$u20$as$u20$core..ops..deref..DerefMut$GT$9deref_mut17hc5bd4b8e178d7909E
0000000000818fa0 T _ZN53_$LT$std..io..IoSlice$u20$as$u20$core..fmt..Debug$GT$3fmt17h48c5bf73f2f5875dE
0000000000819000 T _ZN3std2io7IoSlice3new17h763e3d534adaa6edE
0000000000819060 T _ZN3std2io7IoSlice7advance17hef3415d6190796d1E
0000000000819390 T _ZN60_$LT$std..io..IoSlice$u20$as$u20$core..ops..deref..Deref$GT$5deref17h04bf94b1300c92e4E
00000000008193d0 T _ZN3std2io11Initializer7zeroing17he96b2c408b8b50a7E
00000000008193f0 T _ZN3std2io11Initializer3nop17h0cf2bd2411c38525E
0000000000819410 t _ZN3std2io11Initializer17should_initialize17h9df391c4b14ae912E
0000000000819440 T _ZN3std2io11Initializer10initialize17h7a56dacac3f9a747E
00000000008194c0 T _ZN3std2io5Write18write_all_vectored17hfab2d6e97b16741fE
00000000008196c0 T _ZN3std2io5Write9write_fmt17h665a7dfd37970a64E
0000000000819850 T _ZN80_$LT$std..io..Write..write_fmt..Adaptor$LT$T$GT$$u20$as$u20$core..fmt..Write$GT$9write_str17h11dc3592ee428373E
0000000000819970 T _ZN80_$LT$std..io..Write..write_fmt..Adaptor$LT$T$GT$$u20$as$u20$core..fmt..Write$GT$9write_str17h4f92414edac98749E
0000000000819a90 T _ZN80_$LT$std..io..Write..write_fmt..Adaptor$LT$T$GT$$u20$as$u20$core..fmt..Write$GT$9write_str17h50446bc7bfc75d92E
0000000000819bb0 T _ZN80_$LT$std..io..Write..write_fmt..Adaptor$LT$T$GT$$u20$as$u20$core..fmt..Write$GT$9write_str17h59a44e6efcddfbb7E
0000000000819cd0 T _ZN3std2io10read_until17h6956d8b598832a35E
000000000081a060 t _ZN3std2io7BufRead9read_line28_$u7b$$u7b$closure$u7d$$u7d$17hdaaa3c42173e722eE
000000000081a0b0 T _ZN3std4path117_$LT$impl$u20$core..convert..From$LT$$RF$std..path..Path$GT$$u20$for$u20$alloc..boxed..Box$LT$std..path..Path$GT$$GT$4from17hcd06edf7c0912057E
000000000081a140 T _ZN3std4path116_$LT$impl$u20$core..convert..From$LT$std..path..PathBuf$GT$$u20$for$u20$alloc..boxed..Box$LT$std..path..Path$GT$$GT$4from17h197096f14c0ca931E
000000000081a190 T __rust_drop_panic
000000000081a1e0 T _ZN3std9panicking8set_hook17h2ffe55871944ca4bE
000000000081a300 T _ZN3std9panicking9take_hook17h4652cf11c5da5c14E
000000000081a420 T _ZN3std9panicking12default_hook17hf4a92a4486daa685E
000000000081a800 T _ZN3std9panicking12default_hook28_$u7b$$u7b$closure$u7d$$u7d$17hf7f843e01bda14dcE
000000000081a840 t _ZN3std9panicking12default_hook28_$u7b$$u7b$closure$u7d$$u7d$17h942c2d09ba067390E
000000000081ab20 T _ZN3std9panicking18update_panic_count17hc7a6144ec36f779bE
000000000081ab60 T _ZN3std9panicking18update_panic_count28_$u7b$$u7b$closure$u7d$$u7d$17h3f8a696eb524be82E
000000000081abe0 T _ZN3std9panicking3try17hf89334379d74be27E
000000000081acb0 T _ZN3std9panicking3try7cleanup17h23a2e240760c09f8E
000000000081ad30 T _ZN3std9panicking3try7do_call17hc4c7e4c3fc50b24fE
000000000081ada0 T _ZN3std9panicking3try8do_catch17hff27c9fa011bd2fbE
000000000081ae40 T _ZN3std9panicking9panicking17hffb352eab133f644E
000000000081ae80 T _ZN3std9panicking15begin_panic_fmt17h1b19a8b3a3e96f97E
000000000081aed0 T rust_begin_unwind
000000000081af80 t _ZN3std9panicking19begin_panic_handler12PanicPayload3new17hc773bc12ac29c5c8E
000000000081afe0 t _ZN3std9panicking19begin_panic_handler12PanicPayload4fill17h5ae2eef63e7e0c13E
000000000081b030 T _ZN3std9panicking19begin_panic_handler12PanicPayload4fill28_$u7b$$u7b$closure$u7d$$u7d$17hcccf4b540a76a29cE
000000000081b0b0 T _ZN90_$LT$std..panicking..begin_panic_handler..PanicPayload$u20$as$u20$core..panic..BoxMeUp$GT$8take_box17habde48cce5d4bd00E
000000000081b160 T _ZN90_$LT$std..panicking..begin_panic_handler..PanicPayload$u20$as$u20$core..panic..BoxMeUp$GT$3get17hd61070042071f0e5E
000000000081b1a0 T _ZN3std9panicking11begin_panic17hc8c88aefb45cb9a5E
000000000081b210 T _ZN3std9panicking11begin_panic21PanicPayload$LT$A$GT$3new17h84eca6b3b42b2839E
000000000081b260 T _ZN91_$LT$std..panicking..begin_panic..PanicPayload$LT$A$GT$$u20$as$u20$core..panic..BoxMeUp$GT$8take_box17hf95350362bae38dbE
000000000081b330 T _ZN91_$LT$std..panicking..begin_panic..PanicPayload$LT$A$GT$$u20$as$u20$core..panic..BoxMeUp$GT$3get17hfbcfb9f4322b7c0dE
000000000081b380 T _ZN3std9panicking20rust_panic_with_hook17h913e5e059fb50eccE
000000000081b600 T _ZN3std9panicking23rust_panic_without_hook17h1c1a00b1a77fd793E
000000000081b650 T _ZN91_$LT$std..panicking..rust_panic_without_hook..RewrapBox$u20$as$u20$core..panic..BoxMeUp$GT$8take_box17h6d51484ccf496075E
000000000081b6d0 T _ZN91_$LT$std..panicking..rust_panic_without_hook..RewrapBox$u20$as$u20$core..panic..BoxMeUp$GT$3get17h9a319ce891e1d9a1E
000000000081b700 T rust_panic
000000000081b7d0 T _ZN57_$LT$std..io..Initializer$u20$as$u20$core..fmt..Debug$GT$3fmt17hc9e6f30fdfecff69E
000000000081b860 T _ZN54_$LT$std..io..SeekFrom$u20$as$u20$core..fmt..Debug$GT$3fmt17h2ff33be8bba2bdfeE
000000000081ba60 T _ZN3std9panicking18update_panic_count11PANIC_COUNT6__init17h28f96935003d0c4cE
000000000081ba90 t _ZN3std9panicking18update_panic_count11PANIC_COUNT7__getit17h28a62127471bcde1E
000000000081bac0 T _ZN100_$LT$core..iter..adapters..fuse..Fuse$LT$I$GT$$u20$as$u20$core..iter..traits..iterator..Iterator$GT$4next17h167e532383835918E
000000000081bb00 T _ZN100_$LT$core..iter..adapters..fuse..Fuse$LT$I$GT$$u20$as$u20$core..iter..traits..iterator..Iterator$GT$4next17h8e546a5f8be75397E
000000000081bb40 T _ZN100_$LT$core..iter..adapters..fuse..Fuse$LT$I$GT$$u20$as$u20$core..iter..traits..iterator..Iterator$GT$4next17he03d893782096896E
000000000081bb80 T _ZN107_$LT$core..iter..adapters..fuse..Fuse$LT$I$GT$$u20$as$u20$core..iter..adapters..fuse..FuseImpl$LT$I$GT$$GT$4next17h0b250519d4aa54aaE
000000000081bbe0 T _ZN107_$LT$core..iter..adapters..fuse..Fuse$LT$I$GT$$u20$as$u20$core..iter..adapters..fuse..FuseImpl$LT$I$GT$$GT$4next17h3cb73d4c64e65577E
000000000081bc40 T _ZN107_$LT$core..iter..adapters..fuse..Fuse$LT$I$GT$$u20$as$u20$core..iter..adapters..fuse..FuseImpl$LT$I$GT$$GT$4next17hef805aa01ddafac1E
000000000081bca0 T _ZN108_$LT$alloc..collections..btree..map..Iter$LT$K$C$V$GT$$u20$as$u20$core..iter..traits..iterator..Iterator$GT$4next17h3207a7efab3ec9c1E
000000000081bd40 T _ZN112_$LT$alloc..collections..btree..map..IntoIter$LT$K$C$V$GT$$u20$as$u20$core..iter..traits..iterator..Iterator$GT$4next17h4ba6140a07c0ae8aE
000000000081be10 T _ZN115_$LT$alloc..collections..btree..map..BTreeMap$LT$K$C$V$GT$$u20$as$u20$core..iter..traits..collect..IntoIterator$GT$9into_iter17hb03715b75dd0fe93E
000000000081c160 T _ZN41_$LT$bool$u20$as$u20$core..fmt..Debug$GT$3fmt17h26cd53c065f67f78E
000000000081c1b0 T _ZN42_$LT$$RF$T$u20$as$u20$core..fmt..Debug$GT$3fmt17h0271ebf3251291cfE
000000000081c200 T _ZN42_$LT$$RF$T$u20$as$u20$core..fmt..Debug$GT$3fmt17h04abad73631bbe3aE
000000000081c250 T _ZN45_$LT$$RF$T$u20$as$u20$core..fmt..UpperHex$GT$3fmt17hd0d4681bfa52569cE
000000000081c2a0 T _ZN4core3cmp3Ord3min17h352ea50cb56653a8E
000000000081c310 T _ZN4core3cmp3max17hca30840e63defc2cE
000000000081c380 T _ZN4core3cmp3min17hf8870f950799bcc5E
000000000081c3f0 T _ZN4core3cmp6max_by17heccaba5630519f3aE
000000000081c4d0 T _ZN4core3cmp6min_by17h1a507bca40ca1289E
000000000081c5b0 T _ZN4core3cmp8Ordering4then17h90e80ba7d20d2699E
000000000081c600 T _ZN4core3cmp9PartialEq2ne17h5b5c64bdec73b5c1E
000000000081c650 T _ZN4core3fmt10ArgumentV13new17h0966ef7541ea4b6bE
000000000081c6b0 T _ZN4core3fmt10ArgumentV13new17h0db1e9da645f8b3fE
000000000081c710 T _ZN4core3fmt10ArgumentV13new17h5618ccf994e4e819E
000000000081c770 T _ZN4core3fmt10ArgumentV13new17h627e4a2bb97475c6E
000000000081c7d0 T _ZN4core3fmt10ArgumentV13new17h67cf2a83471df245E
000000000081c830 T _ZN4core3fmt10ArgumentV13new17h76adaada1fde4d08E
000000000081c890 T _ZN4core3fmt10ArgumentV13new17h76fc0e457f5d30eeE
000000000081c8f0 T _ZN4core3fmt10ArgumentV13new17h7d2ad48e06350af3E
000000000081c950 T _ZN4core3fmt10ArgumentV13new17h88291af9281b2353E
000000000081c9b0 T _ZN4core3fmt10ArgumentV13new17h97257d98c683fbf8E
000000000081ca10 T _ZN4core3fmt10ArgumentV13new17ha78aad7ff3347a58E
000000000081ca70 T _ZN4core3fmt10ArgumentV13new17hab6455e2f395a091E
000000000081cad0 T _ZN4core3fmt10ArgumentV13new17hc3007bbe3eb2285cE
000000000081cb30 T _ZN4core3fmt10ArgumentV13new17hc6d647625c646c2eE
000000000081cb90 T _ZN4core3fmt10ArgumentV13new17hce6b3ff6a161e527E
000000000081cbf0 T _ZN4core3fmt10ArgumentV13new17hf158249d976fa20bE
000000000081cc50 T _ZN4core3fmt8builders8DebugMap7entries17h38e432d6414800d8E
000000000081cd90 T _ZN4core3fmt8builders9DebugList7entries17h012c8244d30d4275E
000000000081cea0 T _ZN4core3fmt8builders9DebugList7entries17h7b79655f61c475e0E
000000000081cf60 T _ZN4core3fmt8builders9DebugList7entries17hac983d0baa075d8eE
000000000081d010 T _ZN4core3fmt8builders9DebugList7entries17hddb1d4569fdf25a6E
000000000081d1c0 T _ZN4core3fmt9Arguments16new_v1_formatted17h060c6e374b072dadE
000000000081d260 T _ZN4core3fmt9Arguments6new_v117hfe927ea27de59041E
000000000081d2e0 T _ZN4core3mem12maybe_uninit20MaybeUninit$LT$T$GT$6zeroed17h3411a3f2154e1f5eE
000000000081d330 T _ZN4core3mem12maybe_uninit20MaybeUninit$LT$T$GT$6zeroed17h586e565b29fd4b34E
000000000081d380 T _ZN4core3mem12maybe_uninit20MaybeUninit$LT$T$GT$6zeroed17h81f5a70d1b692c44E
000000000081d3d0 T _ZN4core3mem12maybe_uninit20MaybeUninit$LT$T$GT$6zeroed17ha050f84b483c634cE
000000000081d420 T _ZN4core3mem12maybe_uninit20MaybeUninit$LT$T$GT$6zeroed17hd697338e43e24c1aE
000000000081d470 T _ZN4core3mem12maybe_uninit20MaybeUninit$LT$T$GT$6zeroed17he8093a188481f3d6E
000000000081d4c0 T _ZN4core3ptr7mut_ptr31_$LT$impl$u20$$BP$mut$u20$T$GT$11write_bytes17h89636b91d7ad71b3E
000000000081d500 T _ZN4core3ptr7mut_ptr31_$LT$impl$u20$$BP$mut$u20$T$GT$3add17h72b99f40282603c6E
000000000081d540 T _ZN4core3ptr7mut_ptr31_$LT$impl$u20$$BP$mut$u20$T$GT$3add17hdabefa3264511ec0E
000000000081d580 T _ZN4core3ptr7mut_ptr31_$LT$impl$u20$$BP$mut$u20$T$GT$6offset17h0634f65935a4f5a3E
000000000081d5d0 T _ZN4core3ptr7mut_ptr31_$LT$impl$u20$$BP$mut$u20$T$GT$6offset17hf67327b16b7ab677E
000000000081d620 T _ZN4core3ptr7mut_ptr31_$LT$impl$u20$$BP$mut$u20$T$GT$7copy_to17h143e20d8c6e5bc9cE
000000000081d670 T _ZN4core3ptr7mut_ptr31_$LT$impl$u20$$BP$mut$u20$T$GT$7is_null17h962b2f93d7433aafE
000000000081d6b0 T _ZN4core3ptr7mut_ptr31_$LT$impl$u20$$BP$mut$u20$T$GT$7is_null17hb76a25b55e3734b0E
000000000081d6f0 T _ZN4core3ptr9const_ptr33_$LT$impl$u20$$BP$const$u20$T$GT$11offset_from17he20e553dff7395cbE
000000000081d7a0 T _ZN4core3ptr9const_ptr33_$LT$impl$u20$$BP$const$u20$T$GT$13guaranteed_eq17h57f76ed25c02018dE
000000000081d7f0 T _ZN4core3ptr9const_ptr33_$LT$impl$u20$$BP$const$u20$T$GT$3add17h8359e355c9b148e8E
000000000081d830 T _ZN4core3ptr9const_ptr33_$LT$impl$u20$$BP$const$u20$T$GT$3add17he7f2fb15d2b7d754E
000000000081d870 T _ZN4core3ptr9const_ptr33_$LT$impl$u20$$BP$const$u20$T$GT$6offset17h2edd895d61032590E
000000000081d8c0 T _ZN4core3ptr9const_ptr33_$LT$impl$u20$$BP$const$u20$T$GT$6offset17h8813d6e03a7c7693E
000000000081d910 T _ZN4core3ptr9const_ptr33_$LT$impl$u20$$BP$const$u20$T$GT$6offset17haac895296f24e8b1E
000000000081d950 T _ZN4core3ptr9const_ptr33_$LT$impl$u20$$BP$const$u20$T$GT$6offset17hb20802af0767dd07E
000000000081d9a0 T _ZN4core3ptr9const_ptr33_$LT$impl$u20$$BP$const$u20$T$GT$6offset17hef42f6a14c99f724E
000000000081d9f0 T _ZN4core3ptr9const_ptr33_$LT$impl$u20$$BP$const$u20$T$GT$7is_null17h044b6bc5691d8183E
000000000081da30 T _ZN4core3ptr9const_ptr33_$LT$impl$u20$$BP$const$u20$T$GT$7is_null17h087246b1cdeaed67E
000000000081da70 T _ZN4core3ptr9const_ptr33_$LT$impl$u20$$BP$const$u20$T$GT$7is_null17h118fcb40ac24ce0aE
000000000081dab0 T _ZN4core3ptr9const_ptr33_$LT$impl$u20$$BP$const$u20$T$GT$7is_null17h3177229a385b5794E
000000000081daf0 T _ZN4core3ptr9const_ptr33_$LT$impl$u20$$BP$const$u20$T$GT$7is_null17h3e61fc373eab674bE
000000000081db30 T _ZN4core3ptr9const_ptr33_$LT$impl$u20$$BP$const$u20$T$GT$7is_null17h50cd2d78138980a3E
000000000081db70 T _ZN4core3ptr9const_ptr33_$LT$impl$u20$$BP$const$u20$T$GT$7is_null17h54e4ae6a1f078d06E
000000000081dbb0 T _ZN4core3ptr9const_ptr33_$LT$impl$u20$$BP$const$u20$T$GT$7is_null17h5e052243bc3e30bbE
000000000081dbf0 T _ZN4core3ptr9const_ptr33_$LT$impl$u20$$BP$const$u20$T$GT$7is_null17h61729cd23cd527f0E
000000000081dc30 T _ZN4core3ptr9const_ptr33_$LT$impl$u20$$BP$const$u20$T$GT$7is_null17hcb2530be88793a4aE
000000000081dc70 T _ZN4core3str7pattern7Pattern15is_contained_in17ha16a27e5788e4b5cE
000000000081dd30 T _ZN4core4hash3sip11SipHasher1313new_with_keys17h2bbe6532800c73aeE
000000000081dda0 T _ZN4core4hash3sip15Hasher$LT$S$GT$13new_with_keys17h772ec5ca2e49988cE
000000000081de50 T _ZN4core4hash3sip15Hasher$LT$S$GT$5reset17h15ec7f4d25015a73E
000000000081ded0 t _ZN4core4hash3sip9u8to64_le17hce5147f6d9b1f813E
000000000081e750 T _ZN4core4iter6traits8iterator8Iterator11partial_cmp28_$u7b$$u7b$closure$u7d$$u7d$17h3aac650ee385a89eE
000000000081e790 T _ZN4core4iter6traits8iterator8Iterator2eq28_$u7b$$u7b$closure$u7d$$u7d$17he48661ae06c4193cE
000000000081e7e0 T _ZN4core4iter6traits8iterator8Iterator3cmp28_$u7b$$u7b$closure$u7d$$u7d$17h4f7453b374cb0c80E
000000000081e820 T _ZN4core4iter6traits8iterator8Iterator8find_map5check17h7167c88ebd666723E
000000000081e840 T _ZN4core4iter6traits8iterator8Iterator8find_map5check28_$u7b$$u7b$closure$u7d$$u7d$17hbf14c7e0d2a80fc0E
000000000081e8f0 T _ZN4core4iter6traits8iterator8Iterator8for_each4call17hcf98525e39d1988cE
000000000081e940 T _ZN4core4iter6traits8iterator8Iterator8for_each4call28_$u7b$$u7b$closure$u7d$$u7d$17h583afc4f5e656570E
000000000081e9b0 T _ZN4core4iter8adapters4fuse13Fuse$LT$I$GT$3new17h0dffcfa15ed88453E
000000000081ea00 T _ZN4core4iter8adapters4fuse13Fuse$LT$I$GT$3new17h793dafa2f4af4e54E
000000000081ea50 T _ZN4core4iter8adapters4fuse13Fuse$LT$I$GT$3new17h912bd7e0666e59fdE
000000000081eaa0 T _ZN4core5slice29_$LT$impl$u20$$u5b$T$u5d$$GT$10as_mut_ptr17h133011b68e55e715E
000000000081ead0 T _ZN4core5slice29_$LT$impl$u20$$u5b$T$u5d$$GT$10as_mut_ptr17h54433a96f486667cE
000000000081eb00 T _ZN4core5slice29_$LT$impl$u20$$u5b$T$u5d$$GT$10as_mut_ptr17h5ed683813fb2e85aE
000000000081eb30 T _ZN4core5slice29_$LT$impl$u20$$u5b$T$u5d$$GT$13get_unchecked17hff380cfb85fefa91E
000000000081eb80 T _ZN4core5slice29_$LT$impl$u20$$u5b$T$u5d$$GT$17get_unchecked_mut17h21e20546fdaa7efaE
000000000081ebd0 T _ZN4core5slice29_$LT$impl$u20$$u5b$T$u5d$$GT$3len17h24469bb6462c0da9E
000000000081ec10 T _ZN4core5slice29_$LT$impl$u20$$u5b$T$u5d$$GT$6as_ptr17h8d607cd8fa332e34E
000000000081ec40 T _ZN4core7convert3num18ptr_try_from_impls69_$LT$impl$u20$core..convert..TryFrom$LT$u64$GT$$u20$for$u20$usize$GT$8try_from17h6e90440532184441E
000000000081ec80 T _ZN50_$LT$T$u20$as$u20$core..convert..From$LT$T$GT$$GT$4from17h11b2d470d4b608faE
000000000081eca0 t _ZN55_$LT$$RF$str$u20$as$u20$core..str..pattern..Pattern$GT$13into_searcher17h7f11d9022b91464cE
000000000081ed10 T _ZN5alloc11collections5btree3map17full_range_search17h2474102e415400c3E
000000000081f250 T _ZN5alloc11collections5btree3map17full_range_search17h66f824ca7f90d7dbE
000000000081f790 T _ZN5alloc11collections5btree3map18Range$LT$K$C$V$GT$14next_unchecked17h0ff77509d5c94b5dE
000000000081f7f0 T _ZN5alloc11collections5btree3map21BTreeMap$LT$K$C$V$GT$12remove_entry17h612c368b87226f8dE
000000000081f9d0 T _ZN5alloc11collections5btree3map21BTreeMap$LT$K$C$V$GT$20ensure_root_is_owned17h06373b919ceae1f3E
000000000081fa00 T _ZN5alloc11collections5btree3map21BTreeMap$LT$K$C$V$GT$3new17h2ef0e17490ff989cE
000000000081fa50 T _ZN5alloc11collections5btree3map21BTreeMap$LT$K$C$V$GT$4iter17h27362aa20604addfE
000000000081fd70 T _ZN5alloc11collections5btree3map21BTreeMap$LT$K$C$V$GT$5clear17h5342653cd23a4177E
000000000081fdc0 T _ZN5alloc11collections5btree3map21BTreeMap$LT$K$C$V$GT$5entry17h350ae0fc38ad3443E
00000000008200b0 T _ZN5alloc11collections5btree3map21BTreeMap$LT$K$C$V$GT$6insert17h2907a0b0b89a7cc9E
00000000008202a0 T _ZN5alloc11collections5btree3map21BTreeMap$LT$K$C$V$GT$6remove17h1d2ef62e060bd7caE
0000000000820310 T _ZN5alloc11collections5btree3map21BTreeMap$LT$K$C$V$GT$6remove28_$u7b$$u7b$closure$u7d$$u7d$17h0819c62e326b9651E
0000000000820360 T _ZN5alloc11collections5btree3map21handle_underfull_node17hba2c007260796a69E
00000000008208b0 T _ZN5alloc11collections5btree3map24VacantEntry$LT$K$C$V$GT$6insert17hfed114244712ac39E
0000000000820fb0 T _ZN5alloc11collections5btree3map24VacantEntry$LT$K$C$V$GT$6insert28_$u7b$$u7b$closure$u7d$$u7d$17h5186e3c9f68058f0E
0000000000821000 T _ZN5alloc11collections5btree3map24VacantEntry$LT$K$C$V$GT$6insert28_$u7b$$u7b$closure$u7d$$u7d$17hceab25657ee9568fE
0000000000821050 T _ZN5alloc11collections5btree3map26OccupiedEntry$LT$K$C$V$GT$12remove_entry17hf97e7ae4da5ac7beE
00000000008210b0 T _ZN5alloc11collections5btree3map26OccupiedEntry$LT$K$C$V$GT$6insert17h1b0b5c45743ff188E
0000000000821120 T _ZN5alloc11collections5btree3map26OccupiedEntry$LT$K$C$V$GT$7get_mut17h4f9ac021beae3066E
0000000000821150 T _ZN5alloc11collections5btree3map26OccupiedEntry$LT$K$C$V$GT$9remove_kv17haeb1008414ff7f26E
00000000008212d0 T _ZN5alloc5slice29_$LT$impl$u20$$u5b$T$u5d$$GT$6to_vec17h5baf739557198dd4E
0000000000821320 T _ZN5alloc5slice30_$LT$impl$u20$$u5b$u8$u5d$$GT$18to_ascii_lowercase17hc3ecc85e71a4f79bE
0000000000821390 T _ZN5alloc5slice30_$LT$impl$u20$$u5b$u8$u5d$$GT$18to_ascii_uppercase17hc27a311982a145d0E
0000000000821400 T _ZN5alloc5slice64_$LT$impl$u20$alloc..borrow..ToOwned$u20$for$u20$$u5b$T$u5d$$GT$8to_owned17h330e274e3c19eb26E
0000000000821450 t _ZN60_$LT$core..cmp..Ordering$u20$as$u20$core..cmp..PartialEq$GT$2eq17h0af8ef7a8a8424d2E
00000000008214e0 T _ZN63_$LT$I$u20$as$u20$core..iter..traits..collect..IntoIterator$GT$9into_iter17h1dfdb8e0d28ecbd1E
0000000000821520 T _ZN67_$LT$backtrace..print..PrintFmt$u20$as$u20$core..cmp..PartialEq$GT$2eq17h71404501747e4eb5E
00000000008215b0 T _ZN67_$LT$core..hash..sip..SipHasher13$u20$as$u20$core..hash..Hasher$GT$5write17h595feb4d39fd7c6cE
0000000000821600 T _ZN67_$LT$core..hash..sip..SipHasher13$u20$as$u20$core..hash..Hasher$GT$6finish17h88e272802dbb2c80E
0000000000821630 t _ZN69_$LT$core..hash..sip..Sip13Rounds$u20$as$u20$core..hash..sip..Sip$GT$8c_rounds17h625d1cf4bc1f0033E
00000000008217a0 t _ZN69_$LT$core..hash..sip..Sip13Rounds$u20$as$u20$core..hash..sip..Sip$GT$8d_rounds17hcceb88dfc561fc15E
0000000000821c20 T _ZN71_$LT$core..hash..sip..Hasher$LT$S$GT$$u20$as$u20$core..hash..Hasher$GT$5write17h4eac24bfa05d3ebcE
0000000000822100 T _ZN71_$LT$core..hash..sip..Hasher$LT$S$GT$$u20$as$u20$core..hash..Hasher$GT$6finish17hdb6b7c27591862e4E
00000000008221b0 t _ZN80_$LT$core..str..pattern..StrSearcher$u20$as$u20$core..str..pattern..Searcher$GT$10next_match17habe5733efce394bdE
0000000000822450 t _ZN80_$LT$core..str..pattern..StrSearcher$u20$as$u20$core..str..pattern..Searcher$GT$4next17hb81a56c0d55593f3E
00000000008228c0 T _ZN90_$LT$alloc..collections..btree..map..BTreeMap$LT$K$C$V$GT$$u20$as$u20$core..fmt..Debug$GT$3fmt17h84de9c44facdd4c0E
0000000000822940 T _ZN95_$LT$alloc..collections..btree..map..BTreeMap$LT$K$C$V$GT$$u20$as$u20$core..ops..drop..Drop$GT$4drop17h9b1ad896d72a14fbE
0000000000822990 T _ZN95_$LT$alloc..collections..btree..map..IntoIter$LT$K$C$V$GT$$u20$as$u20$core..ops..drop..Drop$GT$4drop17h2a4d1224c532eb80E
0000000000822c40 T _ZN96_$LT$alloc..collections..btree..map..BTreeMap$LT$K$C$V$GT$$u20$as$u20$core..default..Default$GT$7default17h0fa3cb12de441ff2E
0000000000822c70 T _ZN9backtrace9symbolize28resolve_frame_unsynchronized17h7f251e08225bc017E
0000000000822cc0 T _ZN9backtrace9symbolize28resolve_frame_unsynchronized17hba5272073a96c6ceE
0000000000822d30 T _ZN68_$LT$std..thread..local..AccessError$u20$as$u20$core..fmt..Debug$GT$3fmt17hbd551f459f8d46f3E
0000000000822d90 T _ZN70_$LT$std..thread..local..AccessError$u20$as$u20$core..fmt..Display$GT$3fmt17hfed0f889b9914820E
0000000000822de0 T _ZN3std6thread5local17LocalKey$LT$T$GT$4with17h64a486c96e1d7e86E
0000000000822e40 T _ZN3std6thread5local17LocalKey$LT$T$GT$4with17h98379deb6fc70ac9E
0000000000822ea0 T _ZN3std6thread5local17LocalKey$LT$T$GT$4with17h99e570d2b6eafb0eE
0000000000822f20 T _ZN3std6thread5local17LocalKey$LT$T$GT$4with17hafe5998f295ec51eE
0000000000822fa0 T _ZN3std6thread5local17LocalKey$LT$T$GT$4with17hb6ec43ee5bf8ebe8E
0000000000823020 T _ZN3std6thread5local17LocalKey$LT$T$GT$4with17hdc45a0288348913dE
0000000000823090 T _ZN3std6thread5local17LocalKey$LT$T$GT$8try_with17h33507194472d3ba7E
0000000000823150 T _ZN3std6thread5local17LocalKey$LT$T$GT$8try_with17h3712766825c9207eE
0000000000823240 T _ZN3std6thread5local17LocalKey$LT$T$GT$8try_with17h3ef17e7e4e0a3e09E
00000000008232e0 T _ZN3std6thread5local17LocalKey$LT$T$GT$8try_with17h4a0ac4ed75d07417E
0000000000823390 T _ZN3std6thread5local17LocalKey$LT$T$GT$8try_with17h516c5118adc2d1d0E
0000000000823470 T _ZN3std6thread5local17LocalKey$LT$T$GT$8try_with17h7f9f32e6b483ea4fE
0000000000823510 T _ZN3std6thread5local17LocalKey$LT$T$GT$8try_with17h87d96cb2f0b8bd9eE
00000000008235d0 T _ZN3std6thread5local17LocalKey$LT$T$GT$8try_with17ha729412c33f0aa54E
00000000008236b0 T _ZN3std6thread5local17LocalKey$LT$T$GT$8try_with17hdc2d488079dd33baE
00000000008237a0 T _ZN3std6thread5local4fast12Key$LT$T$GT$3get17h1beadefb996b565bE
0000000000823820 T _ZN3std6thread5local4fast12Key$LT$T$GT$3get17h291d2025617a95fdE
00000000008238a0 T _ZN3std6thread5local4fast12Key$LT$T$GT$3get17h52ca2097ef5e00c1E
0000000000823920 T _ZN3std6thread5local4fast12Key$LT$T$GT$3get17h845e9f2e4834a0dfE
00000000008239a0 T _ZN3std6thread5local4fast12Key$LT$T$GT$3get17hc2a8245c183a9b1aE
0000000000823a20 T _ZN3std6thread5local4fast12Key$LT$T$GT$14try_initialize17h1127151ffa49ef4eE
0000000000823ac0 T _ZN3std6thread5local4fast12Key$LT$T$GT$14try_initialize17h27c4f9e27933ec47E
0000000000823b60 T _ZN3std6thread5local4fast12Key$LT$T$GT$14try_initialize17h9c0d55c5ea43184cE
0000000000823c00 T _ZN3std6thread5local4fast12Key$LT$T$GT$14try_initialize17hb387a14094de77b6E
0000000000823ca0 T _ZN3std6thread5local4fast12Key$LT$T$GT$14try_initialize17hb9589a51cdf9613bE
0000000000823d40 T _ZN3std6thread5local4fast12Key$LT$T$GT$17try_register_dtor17h4cca020067e2f7bdE
0000000000823de0 T _ZN3std6thread5local4fast12Key$LT$T$GT$17try_register_dtor17h5f1cda15ef68eba4E
0000000000823e80 T _ZN3std6thread5local4fast12Key$LT$T$GT$17try_register_dtor17hc091971211822f58E
0000000000823f20 T _ZN3std6thread5local4fast12Key$LT$T$GT$17try_register_dtor17hf8a221c9252ec210E
0000000000823fc0 T _ZN3std6thread5local4fast13destroy_value17h430f993acca00dc5E
0000000000824030 T _ZN3std6thread5local4fast13destroy_value17h71b89dc33762ad6fE
00000000008240b0 T _ZN3std6thread5local4fast13destroy_value17hb049d02af7b76ee0E
0000000000824120 T _ZN3std6thread5local4fast13destroy_value17hc51d11ff88f98f21E
0000000000824190 T _ZN54_$LT$core..fmt..Error$u20$as$u20$std..error..Error$GT$11description17hfb640ec12243722eE
00000000008241c0 T _ZN3std3net6parser6Parser3new17h3e05111779fb5622E
0000000000824240 t _ZN3std3net6parser6Parser6is_eof17h92fd9412dff6ecd5E
0000000000824290 t _ZN3std3net6parser6Parser15read_atomically17h00bcd95fe31baa0bE
0000000000824310 t _ZN3std3net6parser6Parser15read_atomically17h02c77d31f8bbb3ecE
0000000000824380 t _ZN3std3net6parser6Parser15read_atomically17h09414af65eb22ef2E
0000000000824400 t _ZN3std3net6parser6Parser15read_atomically17h2c140f417d8f4d9fE
0000000000824480 t _ZN3std3net6parser6Parser15read_atomically17h42b30f05a86433dcE
0000000000824500 t _ZN3std3net6parser6Parser15read_atomically17h47fa2cea97424479E
0000000000824580 t _ZN3std3net6parser6Parser15read_atomically17h6396e1bb6a7ccaddE
0000000000824600 t _ZN3std3net6parser6Parser15read_atomically17h69d97a020f1acd96E
0000000000824680 t _ZN3std3net6parser6Parser15read_atomically17h79d2c82d84efaabdE
0000000000824700 t _ZN3std3net6parser6Parser15read_atomically17hb0f7559414677851E
0000000000824790 t _ZN3std3net6parser6Parser15read_atomically17hc655bbd1bba8ff67E
0000000000824810 t _ZN3std3net6parser6Parser15read_atomically17hd2f9a3e343686d90E
0000000000824880 t _ZN3std3net6parser6Parser15read_atomically17hd3eb9216640c2136E
00000000008248f0 t _ZN3std3net6parser6Parser15read_atomically17hdadf123bc4b6f90cE
0000000000824970 t _ZN3std3net6parser6Parser15read_atomically17hdcd1698790eb1257E
00000000008249f0 t _ZN3std3net6parser6Parser15read_atomically17hfc2b049ec18eb499E
0000000000824a70 T _ZN3std3net6parser6Parser13read_till_eof17h27027981dbed1f76E
0000000000824ab0 T _ZN3std3net6parser6Parser13read_till_eof17h6515fc3187d71110E
0000000000824af0 T _ZN3std3net6parser6Parser13read_till_eof17h72860b7e3f587bb9E
0000000000824b30 T _ZN3std3net6parser6Parser13read_till_eof17h9e131381b970da83E
0000000000824b70 T _ZN3std3net6parser6Parser13read_till_eof17ha506e2e525448d05E
0000000000824bb0 T _ZN3std3net6parser6Parser13read_till_eof17he1ac6f9b2e9c78deE
0000000000824bf0 T _ZN3std3net6parser6Parser13read_till_eof28_$u7b$$u7b$closure$u7d$$u7d$28_$u7b$$u7b$closure$u7d$$u7d$17h37ecc68d7aae8cb2E
0000000000824c30 T _ZN3std3net6parser6Parser13read_till_eof28_$u7b$$u7b$closure$u7d$$u7d$28_$u7b$$u7b$closure$u7d$$u7d$17h597dcaa78ba05fc9E
0000000000824c70 T _ZN3std3net6parser6Parser13read_till_eof28_$u7b$$u7b$closure$u7d$$u7d$28_$u7b$$u7b$closure$u7d$$u7d$17h72c6703a6d099fa2E
0000000000824cb0 T _ZN3std3net6parser6Parser13read_till_eof28_$u7b$$u7b$closure$u7d$$u7d$28_$u7b$$u7b$closure$u7d$$u7d$17h854222d48c384827E
0000000000824cf0 T _ZN3std3net6parser6Parser13read_till_eof28_$u7b$$u7b$closure$u7d$$u7d$28_$u7b$$u7b$closure$u7d$$u7d$17h8646ed6b4003ce59E
0000000000824d30 T _ZN3std3net6parser6Parser13read_till_eof28_$u7b$$u7b$closure$u7d$$u7d$28_$u7b$$u7b$closure$u7d$$u7d$17hfc638a5bb1ffece2E
0000000000824d70 t _ZN3std3net6parser6Parser13read_till_eof28_$u7b$$u7b$closure$u7d$$u7d$17h040fd9605153757eE
0000000000824dd0 t _ZN3std3net6parser6Parser13read_till_eof28_$u7b$$u7b$closure$u7d$$u7d$17h37beeb3de6963e74E
0000000000824e30 t _ZN3std3net6parser6Parser13read_till_eof28_$u7b$$u7b$closure$u7d$$u7d$17h4c537ec3d08290bfE
0000000000824e90 t _ZN3std3net6parser6Parser13read_till_eof28_$u7b$$u7b$closure$u7d$$u7d$17h87a10a29aefe087cE
0000000000824ef0 t _ZN3std3net6parser6Parser13read_till_eof28_$u7b$$u7b$closure$u7d$$u7d$17h93f5e4bfd1e65adcE
0000000000824f50 t _ZN3std3net6parser6Parser13read_till_eof28_$u7b$$u7b$closure$u7d$$u7d$17hcbfdfbe11bfa9d93E
0000000000824fb0 t _ZN3std3net6parser6Parser10read_seq_317h046797ab6f09ce04E
0000000000824ff0 t _ZN3std3net6parser6Parser10read_seq_317h452f6cec50f290c0E
0000000000825030 t _ZN3std3net6parser6Parser10read_seq_317hc52ff9c3bf65b8afE
0000000000825070 t _ZN3std3net6parser6Parser10read_seq_328_$u7b$$u7b$closure$u7d$$u7d$17h122b9d8b45b50b5aE
0000000000825370 t _ZN3std3net6parser6Parser10read_seq_328_$u7b$$u7b$closure$u7d$$u7d$17h66c4c979d21ac73eE
00000000008255a0 t _ZN3std3net6parser6Parser10read_seq_328_$u7b$$u7b$closure$u7d$$u7d$17hc23036dd178e6ddeE
0000000000825890 t _ZN3std3net6parser6Parser9read_char17h5b21b2b05ab919bfE
0000000000825960 t _ZN3std3net6parser6Parser15read_given_char17h3ea63f468141671eE
00000000008259b0 t _ZN3std3net6parser6Parser15read_given_char28_$u7b$$u7b$closure$u7d$$u7d$17hd566fdc446192bd9E
0000000000825a30 t _ZN3std3net6parser6Parser10read_digit17hb81d59ac612dddf3E
0000000000825a80 T _ZN3std3net6parser6Parser10read_digit28_$u7b$$u7b$closure$u7d$$u7d$28_$u7b$$u7b$closure$u7d$$u7d$17h73a95423d5daeb48E
0000000000825ac0 t _ZN3std3net6parser6Parser10read_digit28_$u7b$$u7b$closure$u7d$$u7d$17h17f697a8baf4b074E
0000000000825b20 t _ZN3std3net6parser6Parser10read_digit11parse_digit17hbceb141fd0d4583dE
0000000000825db0 t _ZN3std3net6parser6Parser16read_number_impl17h6bb00ec4b03e28d1E
0000000000825f30 t _ZN3std3net6parser6Parser11read_number17h4b2d26f8e1c1b8eeE
0000000000825fa0 t _ZN3std3net6parser6Parser11read_number28_$u7b$$u7b$closure$u7d$$u7d$17h9c4cbb747d45aa06E
0000000000826000 t _ZN3std3net6parser6Parser19read_ipv4_addr_impl17h8ae1ec6b40c50680E
00000000008261c0 T _ZN3std3net6parser6Parser19read_ipv4_addr_impl28_$u7b$$u7b$closure$u7d$$u7d$17h80f66af8c34d05d3E
00000000008261e0 t _ZN3std3net6parser6Parser14read_ipv4_addr17hef0d0aed78dfdc6cE
0000000000826220 t _ZN3std3net6parser6Parser14read_ipv4_addr28_$u7b$$u7b$closure$u7d$$u7d$17h68fba043eaea8c81E
0000000000826260 t _ZN3std3net6parser6Parser19read_ipv6_addr_impl17h29a75d89e9d37f88E
0000000000826630 t _ZN3std3net6parser6Parser19read_ipv6_addr_impl24ipv6_addr_from_head_tail17h193afffd545b67a5E
0000000000826940 t _ZN3std3net6parser6Parser19read_ipv6_addr_impl11read_groups17h76b30f7479615aedE
0000000000826ca0 t _ZN3std3net6parser6Parser19read_ipv6_addr_impl11read_groups28_$u7b$$u7b$closure$u7d$$u7d$17h01c259d08adf9f0fE
0000000000826d30 T _ZN3std3net6parser6Parser19read_ipv6_addr_impl11read_groups28_$u7b$$u7b$closure$u7d$$u7d$28_$u7b$$u7b$closure$u7d$$u7d$17h888295b158fe3ab6E
0000000000826d60 t _ZN3std3net6parser6Parser19read_ipv6_addr_impl11read_groups28_$u7b$$u7b$closure$u7d$$u7d$17h085fa432515b869fE
0000000000826e10 t _ZN3std3net6parser6Parser14read_ipv6_addr17hf09e8bbd80b3bfa1E
0000000000826e50 t _ZN3std3net6parser6Parser14read_ipv6_addr28_$u7b$$u7b$closure$u7d$$u7d$17h437b31834418b831E
0000000000826e90 t _ZN3std3net6parser6Parser12read_ip_addr17h31c3e712df56b9d8E
0000000000826f00 T _ZN3std3net6parser6Parser12read_ip_addr28_$u7b$$u7b$closure$u7d$$u7d$17hbeba42788c01ace4E
0000000000826f50 t _ZN3std3net6parser6Parser19read_socket_addr_v417h0e503f4c9d613e03E
0000000000826fa0 T _ZN3std3net6parser6Parser19read_socket_addr_v428_$u7b$$u7b$closure$u7d$$u7d$17h422c401ec7942562E
0000000000826fe0 T _ZN3std3net6parser6Parser19read_socket_addr_v428_$u7b$$u7b$closure$u7d$$u7d$17h55e8412a7c5da2bbE
0000000000827020 T _ZN3std3net6parser6Parser19read_socket_addr_v428_$u7b$$u7b$closure$u7d$$u7d$28_$u7b$$u7b$closure$u7d$$u7d$17hfa80d853339f9d08E
0000000000827050 T _ZN3std3net6parser6Parser19read_socket_addr_v428_$u7b$$u7b$closure$u7d$$u7d$17h77387e906aa127efE
00000000008270c0 T _ZN3std3net6parser6Parser19read_socket_addr_v428_$u7b$$u7b$closure$u7d$$u7d$17h2e34805eed9b7c50E
0000000000827110 t _ZN3std3net6parser6Parser19read_socket_addr_v617hdf3948f2e175b486E
0000000000827160 T _ZN3std3net6parser6Parser19read_socket_addr_v628_$u7b$$u7b$closure$u7d$$u7d$28_$u7b$$u7b$closure$u7d$$u7d$17ha4779e8920cfbcfbE
00000000008271a0 T _ZN3std3net6parser6Parser19read_socket_addr_v628_$u7b$$u7b$closure$u7d$$u7d$28_$u7b$$u7b$closure$u7d$$u7d$17h0896c9131ecd39bfE
00000000008271f0 T _ZN3std3net6parser6Parser19read_socket_addr_v628_$u7b$$u7b$closure$u7d$$u7d$28_$u7b$$u7b$closure$u7d$$u7d$17h7f992f7900b38b98E
0000000000827230 T _ZN3std3net6parser6Parser19read_socket_addr_v628_$u7b$$u7b$closure$u7d$$u7d$28_$u7b$$u7b$closure$u7d$$u7d$17h27a0371077c09107E
0000000000827270 T _ZN3std3net6parser6Parser19read_socket_addr_v628_$u7b$$u7b$closure$u7d$$u7d$17hdec35c15ec9d8cc1E
00000000008272d0 T _ZN3std3net6parser6Parser19read_socket_addr_v628_$u7b$$u7b$closure$u7d$$u7d$17h2384ded24bc0a456E
0000000000827310 T _ZN3std3net6parser6Parser19read_socket_addr_v628_$u7b$$u7b$closure$u7d$$u7d$28_$u7b$$u7b$closure$u7d$$u7d$17h8452286df83ad208E
0000000000827340 T _ZN3std3net6parser6Parser19read_socket_addr_v628_$u7b$$u7b$closure$u7d$$u7d$17h973a6e181a6691e9E
00000000008273b0 T _ZN3std3net6parser6Parser19read_socket_addr_v628_$u7b$$u7b$closure$u7d$$u7d$17hab69fc26fa97a89fE
0000000000827420 t _ZN3std3net6parser6Parser16read_socket_addr17h9ed7351def9f646cE
0000000000827490 T _ZN3std3net6parser6Parser16read_socket_addr28_$u7b$$u7b$closure$u7d$$u7d$17h877f2bef4b619c13E
00000000008274e0 t _ZN3std3net6parser69_$LT$impl$u20$core..str..FromStr$u20$for$u20$std..net..ip..IpAddr$GT$8from_str28_$u7b$$u7b$closure$u7d$$u7d$17h1ce40cb7f2959469E
0000000000827520 t _ZN3std3net6parser71_$LT$impl$u20$core..str..FromStr$u20$for$u20$std..net..ip..Ipv4Addr$GT$8from_str28_$u7b$$u7b$closure$u7d$$u7d$17h0d4af36bffe791deE
0000000000827560 t _ZN3std3net6parser71_$LT$impl$u20$core..str..FromStr$u20$for$u20$std..net..ip..Ipv6Addr$GT$8from_str28_$u7b$$u7b$closure$u7d$$u7d$17h738564a245b9303aE
00000000008275a0 t _ZN3std3net6parser77_$LT$impl$u20$core..str..FromStr$u20$for$u20$std..net..addr..SocketAddrV4$GT$8from_str28_$u7b$$u7b$closure$u7d$$u7d$17h935bd70bd19d04b2E
00000000008275e0 t _ZN3std3net6parser77_$LT$impl$u20$core..str..FromStr$u20$for$u20$std..net..addr..SocketAddrV6$GT$8from_str28_$u7b$$u7b$closure$u7d$$u7d$17h441a3cb1f82793b0E
0000000000827620 t _ZN3std3net6parser75_$LT$impl$u20$core..str..FromStr$u20$for$u20$std..net..addr..SocketAddr$GT$8from_str28_$u7b$$u7b$closure$u7d$$u7d$17hcd43ee716cb20f5dE
0000000000827660 T _ZN71_$LT$std..net..parser..AddrParseError$u20$as$u20$core..fmt..Display$GT$3fmt17h9b46159200772190E
00000000008276c0 T _ZN70_$LT$std..net..parser..AddrParseError$u20$as$u20$std..error..Error$GT$11description17h670940f0ed6947b4E
00000000008276f0 T _ZN3std5panic12catch_unwind17h953c034064b6e02aE
0000000000827730 T _ZN3std5panic13resume_unwind17hf0cd0ac88e4d8c06E
0000000000827770 T _ZN3std4sync4once4Once3new17h7113f55d12b6851aE
00000000008277b0 T _ZN3std4sync4once4Once9call_once17h7a03f816bd86700eE
0000000000827820 T _ZN3std4sync4once4Once9call_once17hb6958837c8e666a9E
0000000000827890 T _ZN3std4sync4once4Once9call_once28_$u7b$$u7b$closure$u7d$$u7d$17h177eddd462a7fd2cE
00000000008278f0 T _ZN3std4sync4once4Once9call_once28_$u7b$$u7b$closure$u7d$$u7d$17h2d0e6232b2861f87E
0000000000827950 t _ZN3std4sync4once4Once12is_completed17h7d853159cbea0c42E
00000000008279a0 T _ZN3std4sync4once4Once10call_inner17h97a93ed3d92bdbe3E
0000000000827b50 t _ZN3std4sync4once4wait17h48665086b09d2f62E
0000000000827c70 T _ZN58_$LT$std..sync..once..Once$u20$as$u20$core..fmt..Debug$GT$3fmt17h5ef4926ec1328305E
0000000000827cc0 T _ZN70_$LT$std..sync..once..WaiterQueue$u20$as$u20$core..ops..drop..Drop$GT$4drop17hd1847e1753103b68E
0000000000827f30 T _ZN3std4sync4once9OnceState8poisoned17hd7c828a95802fcafE
0000000000827f60 T _ZN3std10sys_common6rwlock6RWLock3new17h03c1b8497f0b7f0aE
0000000000827f90 T _ZN3std10sys_common6rwlock6RWLock4read17hd9d3a881b491810fE
0000000000827fc0 T _ZN3std10sys_common6rwlock6RWLock5write17hb7e80a72a9d48979E
0000000000827ff0 T _ZN3std10sys_common6rwlock6RWLock11read_unlock17h622c35d59ff8df1cE
0000000000828020 T _ZN3std10sys_common6rwlock6RWLock12write_unlock17he6dd12b8b27b2a26E
0000000000828050 T _ZN3std10sys_common6thread9min_stack17h70d4dda2de7076caE
00000000008281a0 T _ZN3std10sys_common6thread9min_stack28_$u7b$$u7b$closure$u7d$$u7d$17h5668eed7374b6c04E
0000000000828200 T _ZN69_$LT$std..net..parser..AddrParseError$u20$as$u20$core..fmt..Debug$GT$3fmt17hbf25f370c99085a0E
0000000000828290 T _ZN63_$LT$std..sync..once..OnceState$u20$as$u20$core..fmt..Debug$GT$3fmt17hb03071f37f44c835E
0000000000828340 T _ZN3std10std_detect6detect2os15detect_features17h2c2978653ede076cE
00000000008292a0 t _ZN3std10std_detect6detect2os15detect_features28_$u7b$$u7b$closure$u7d$$u7d$17hc8aacadba08abfd2E
0000000000829310 T _ZN100_$LT$alloc..string..String$u20$as$u20$core..ops..index..Index$LT$core..ops..range..RangeFull$GT$$GT$5index17h353aa486630973eeE
0000000000829360 T _ZN36_$LT$T$u20$as$u20$core..any..Any$GT$7type_id17he3ea556ee31e9ddcE
0000000000829390 T _ZN42_$LT$$RF$T$u20$as$u20$core..fmt..Debug$GT$3fmt17h233ff7b7916f757bE
00000000008293e0 T _ZN42_$LT$$RF$T$u20$as$u20$core..fmt..Debug$GT$3fmt17h8994cbb24d2af502E
0000000000829430 T _ZN42_$LT$$RF$T$u20$as$u20$core..fmt..Debug$GT$3fmt17h97b2a140696cbfe1E
0000000000829480 T _ZN47_$LT$str$u20$as$u20$alloc..string..ToString$GT$9to_string17ha25ebc19a038ace6E
00000000008294d0 T _ZN4core3ops8function5impls80_$LT$impl$u20$core..ops..function..FnOnce$LT$A$GT$$u20$for$u20$$RF$mut$u20$F$GT$9call_once17h972fe2de7bed6b99E
0000000000829520 T _ZN4core3ptr7mut_ptr31_$LT$impl$u20$$BP$mut$u20$T$GT$3add17hc1ae6c61363740aeE
0000000000829560 T _ZN4core3ptr7mut_ptr31_$LT$impl$u20$$BP$mut$u20$T$GT$3add17head8ee96f40fa9bbE
00000000008295a0 T _ZN4core3ptr7mut_ptr31_$LT$impl$u20$$BP$mut$u20$T$GT$6offset17h7a3098ad4e831b63E
00000000008295f0 T _ZN4core3ptr7mut_ptr31_$LT$impl$u20$$BP$mut$u20$T$GT$6offset17hb5dab07d7fb7e827E
0000000000829640 T _ZN4core3ptr7mut_ptr31_$LT$impl$u20$$BP$mut$u20$T$GT$7is_null17h7701b68fc91e2f58E
0000000000829680 T _ZN4core3ptr7mut_ptr31_$LT$impl$u20$$BP$mut$u20$T$GT$7is_null17hafb4801889fb7f63E
00000000008296c0 T _ZN4core3ptr9const_ptr33_$LT$impl$u20$$BP$const$u20$T$GT$3add17h3c8a72af73361bf8E
0000000000829700 T _ZN4core3ptr9const_ptr33_$LT$impl$u20$$BP$const$u20$T$GT$3add17h63da35c07cb13d3cE
0000000000829740 T _ZN4core3ptr9const_ptr33_$LT$impl$u20$$BP$const$u20$T$GT$6offset17h4d0a1b64614b2242E
0000000000829790 T _ZN4core3ptr9const_ptr33_$LT$impl$u20$$BP$const$u20$T$GT$6offset17hca904b38fd17da13E
00000000008297e0 T _ZN4core3ptr9const_ptr33_$LT$impl$u20$$BP$const$u20$T$GT$7is_null17h16be0159fa22bd71E
0000000000829820 T _ZN4core3ptr9const_ptr33_$LT$impl$u20$$BP$const$u20$T$GT$7is_null17h8e32bcfe8ead0d61E
0000000000829860 T _ZN4core4char7methods15encode_utf8_raw17h4015badaab5b4fa1E
0000000000829d60 T _ZN4core4char7methods22_$LT$impl$u20$char$GT$11encode_utf817h1605d1e9cb90dce1E
0000000000829dd0 T _ZN4core4char7methods22_$LT$impl$u20$char$GT$12escape_debug17h57b15dc6998103e7E
0000000000829e10 t _ZN4core4char7methods22_$LT$impl$u20$char$GT$14escape_unicode17h7f9bd9162c45a6ceE
0000000000829ea0 t _ZN4core4char7methods22_$LT$impl$u20$char$GT$16escape_debug_ext17hcc35f2ac5509e61bE
000000000082a070 t _ZN4core4char7methods22_$LT$impl$u20$char$GT$20is_grapheme_extended17hbc1d25d19c9b37a8E
000000000082a0a0 T _ZN4core4char7methods22_$LT$impl$u20$char$GT$8is_ascii17hd31382f49c2cb6a5E
000000000082a0d0 T _ZN4core4char7methods22_$LT$impl$u20$char$GT$8len_utf817h4d9c1dd5007051daE
000000000082a100 t _ZN4core4char7methods8len_utf817h7ca988176aebf352E
000000000082a170 T _ZN4core4hash5impls49_$LT$impl$u20$core..hash..Hash$u20$for$u20$u8$GT$10hash_slice17h6f2bf9f59ccaaee8E
000000000082a240 T _ZN4core4hash5impls52_$LT$impl$u20$core..hash..Hash$u20$for$u20$usize$GT$4hash17h038a3557569b7c64E
000000000082a280 T _ZN4core4hash5impls58_$LT$impl$u20$core..hash..Hash$u20$for$u20$$u5b$T$u5d$$GT$4hash17h4a4d4820b4ea8d27E
000000000082a2f0 T _ZN4core5slice29_$LT$impl$u20$$u5b$T$u5d$$GT$10as_mut_ptr17h7a1f587ca7eb5dedE
000000000082a320 T _ZN4core5slice29_$LT$impl$u20$$u5b$T$u5d$$GT$3len17h972060fc8cb11106E
000000000082a360 T _ZN4core5slice29_$LT$impl$u20$$u5b$T$u5d$$GT$3len17h9abebe0e2f488db4E
000000000082a3a0 T _ZN4core5slice29_$LT$impl$u20$$u5b$T$u5d$$GT$4iter17h04de81951608eaa6E
000000000082a490 T _ZN4core5slice29_$LT$impl$u20$$u5b$T$u5d$$GT$4iter17h6a71077e3c273ccdE
000000000082a580 T _ZN4core5slice29_$LT$impl$u20$$u5b$T$u5d$$GT$6as_ptr17h5993ab8b1fa0d9f6E
000000000082a5b0 T _ZN4core5slice29_$LT$impl$u20$$u5b$T$u5d$$GT$6as_ptr17h82e0139e0b0d5aafE
000000000082a5e0 T _ZN4core5slice29_$LT$impl$u20$$u5b$T$u5d$$GT$8iter_mut17hacf7ac82724436a0E
000000000082a6d0 T _ZN4core5slice74_$LT$impl$u20$core..ops..index..Index$LT$I$GT$$u20$for$u20$$u5b$T$u5d$$GT$5index17h11c4f051ae6e1375E
000000000082a730 T _ZN4core5slice74_$LT$impl$u20$core..ops..index..Index$LT$I$GT$$u20$for$u20$$u5b$T$u5d$$GT$5index17h4aa150e104787f59E
000000000082a780 T _ZN4core5slice87_$LT$impl$u20$core..iter..traits..collect..IntoIterator$u20$for$u20$$RF$$u5b$T$u5d$$GT$9into_iter17hf92aac01b330d653E
000000000082a7d0 T _ZN50_$LT$T$u20$as$u20$core..convert..Into$LT$U$GT$$GT$4into17h371d23007281a950E
000000000082a820 T _ZN58_$LT$alloc..string..String$u20$as$u20$core..fmt..Debug$GT$3fmt17h6b2bf20e5b968fddE
000000000082a880 T _ZN5alloc11collections5btree8navigate25next_kv_unchecked_dealloc17h7d85a9d9fb8b3da4E
000000000082aac0 T _ZN5alloc11collections5btree8navigate261_$LT$impl$u20$alloc..collections..btree..node..Handle$LT$alloc..collections..btree..node..NodeRef$LT$alloc..collections..btree..node..marker..Mut$C$K$C$V$C$alloc..collections..btree..node..marker..Leaf$GT$$C$alloc..collections..btree..node..marker..Edge$GT$$GT$14next_unchecked28_$u7b$$u7b$closure$u7d$$u7d$17hf35db723e0110228E
000000000082ac50 T _ZN5alloc11collections5btree8navigate263_$LT$impl$u20$alloc..collections..btree..node..Handle$LT$alloc..collections..btree..node..NodeRef$LT$alloc..collections..btree..node..marker..Immut$C$K$C$V$C$alloc..collections..btree..node..marker..Leaf$GT$$C$alloc..collections..btree..node..marker..Edge$GT$$GT$14next_unchecked28_$u7b$$u7b$closure$u7d$$u7d$17h38886a1c9bced028E
000000000082ae10 T _ZN5alloc11collections5btree8navigate263_$LT$impl$u20$alloc..collections..btree..node..Handle$LT$alloc..collections..btree..node..NodeRef$LT$alloc..collections..btree..node..marker..Owned$C$K$C$V$C$alloc..collections..btree..node..marker..Leaf$GT$$C$alloc..collections..btree..node..marker..Edge$GT$$GT$14next_unchecked28_$u7b$$u7b$closure$u7d$$u7d$17h54c04f7e5a91bb01E
000000000082b010 T _ZN5alloc11collections5btree8navigate7replace17h58655491ac9cca04E
000000000082b170 T _ZN5alloc11collections5btree8navigate7replace17hcc1106cc63caf8beE
000000000082b2c0 T _ZN5alloc11collections5btree8navigate7replace17hd5cc52c321ad4fb4E
000000000082b400 T _ZN5alloc6string6String10as_mut_vec17h633e6dd47c95bcfdE
000000000082b420 t _ZN5alloc6string6String10into_bytes17ha3f5115b036ade15E
000000000082b470 T _ZN5alloc6string6String13shrink_to_fit17hbbfa87b5f5ce5a65E
000000000082b4a0 T _ZN5alloc6string6String13with_capacity17h708795bc497b6c71E
000000000082b500 T _ZN5alloc6string6String19from_utf8_unchecked17h037ea3277ef010aeE
000000000082b560 T _ZN5alloc6string6String3len17hf251d466fa2c6d62E
000000000082b590 T _ZN5alloc6string6String3new17h0733e30c0a7da9f6E
000000000082b5e0 T _ZN5alloc6string6String8as_bytes17h05db279e069cca3dE
000000000082b620 T _ZN5alloc6string6String9from_utf817h10e4daf76f10b7d6E
000000000082b7b0 T _ZN60_$LT$alloc..string..String$u20$as$u20$core..fmt..Display$GT$3fmt17h1a07ac8ff1bfb0efE
000000000082b810 T _ZN65_$LT$alloc..string..String$u20$as$u20$core..ops..deref..Deref$GT$5deref17h9dd8b41181905f32E
000000000082b860 T _ZN76_$LT$alloc..string..String$u20$as$u20$core..convert..From$LT$$RF$str$GT$$GT$4from17hcc3a98f565af1262E
000000000082b8b0 t _ZN77_$LT$alloc..string..String$u20$as$u20$core..cmp..PartialEq$LT$$RF$str$GT$$GT$2ne17h9c6eb12437ada686E
000000000082b940 T _ZN94_$LT$hashbrown..raw..bitmask..BitMask$u20$as$u20$core..iter..traits..collect..IntoIterator$GT$9into_iter17h0ce0a028f9a68fc9E
000000000082b970 T _ZN95_$LT$hashbrown..raw..bitmask..BitMaskIter$u20$as$u20$core..iter..traits..iterator..Iterator$GT$4next17h08f458276eaf0555E
000000000082ba20 T _ZN9hashbrown3raw7bitmask7BitMask11any_bit_set17h5a226166d070a20aE
000000000082ba50 T _ZN9hashbrown3raw7bitmask7BitMask13leading_zeros17he6eb776713baccd9E
000000000082ba90 T _ZN9hashbrown3raw7bitmask7BitMask14lowest_set_bit17hfe1643499f9bcfebE
000000000082baf0 T _ZN9hashbrown3raw7bitmask7BitMask14trailing_zeros17he72987bc6db1cc67E
000000000082bb30 T _ZN9hashbrown3raw7bitmask7BitMask17remove_lowest_bit17h0eb53a0bca0a3908E
000000000082bb90 T _ZN9hashbrown3raw7bitmask7BitMask22lowest_set_bit_nonzero17h3e3d26aa7ac7770eE
000000000082bbd0 T _ZN9hashbrown3raw7bitmask7BitMask6invert17hd919085c03d7b3fdE
000000000082bc00 T _ZN3std6thread5local4lazy21LazyKeyInner$LT$T$GT$3get17h1e32a44520ec0462E
000000000082bc40 T _ZN3std6thread5local4lazy21LazyKeyInner$LT$T$GT$3get17h297d82ae9cd99052E
000000000082bc80 T _ZN3std6thread5local4lazy21LazyKeyInner$LT$T$GT$3get17h8df58e643c380fb6E
000000000082bcc0 T _ZN3std6thread5local4lazy21LazyKeyInner$LT$T$GT$3get17h93a05c8edfcb8340E
000000000082bd00 T _ZN3std6thread5local4lazy21LazyKeyInner$LT$T$GT$10initialize17h4537837b000c1d61E
000000000082bdb0 T _ZN3std6thread5local4lazy21LazyKeyInner$LT$T$GT$10initialize17h705a21174c200a34E
000000000082be50 T _ZN3std6thread5local4lazy21LazyKeyInner$LT$T$GT$10initialize17h7b0de7d952a76ca0E
000000000082bee0 T _ZN3std6thread5local4lazy21LazyKeyInner$LT$T$GT$10initialize17h7f5797be2a7f244fE
000000000082bfc0 T _ZN3std6thread5local4lazy21LazyKeyInner$LT$T$GT$10initialize17h92665304173030b9E
000000000082c0a0 T _ZN3std6thread5local4lazy21LazyKeyInner$LT$T$GT$4take17h65b56dda0641cb01E
000000000082c0f0 T _ZN3std6thread5local4lazy21LazyKeyInner$LT$T$GT$4take17h7b996f82d12ab255E
000000000082c140 T _ZN3std6thread5local4lazy21LazyKeyInner$LT$T$GT$4take17hb56a531461a30b8cE
000000000082c190 T _ZN3std6thread5local4lazy21LazyKeyInner$LT$T$GT$4take17hc02e19207d82f07eE
000000000082c1e0 T _ZN3std6thread7Builder3new17hf1a4d3aefc17b776E
000000000082c240 T _ZN3std6thread7Builder4name17hff3780d1025e3e64E
000000000082c2e0 T _ZN3std6thread7Builder10stack_size17h151efb667dd26c05E
000000000082c350 T _ZN3std6thread7current17he815b349427588b1E
000000000082c3a0 T _ZN3std6thread9yield_now17h28490d428a45e25aE
000000000082c3b0 T _ZN3std6thread9panicking17hec66971dd38b193aE
000000000082c3e0 T _ZN3std6thread8sleep_ms17hd2136607ba2fb4e2E
000000000082c420 T _ZN3std6thread5sleep17h1d76492d3f477c03E
000000000082c460 T _ZN3std6thread4park17h3fa86f7595ca4a1fE
000000000082c910 T _ZN3std6thread15park_timeout_ms17hc88b2e0068babcf8E
000000000082c950 T _ZN3std6thread12park_timeout17h9b7540664caa1943E
000000000082cf00 t _ZN3std6thread8ThreadId3new17h49c5cefd648e6912E
000000000082cfe0 T _ZN3std6thread8ThreadId6as_u6417hf9c8ea94b0f2c195E
000000000082d010 T _ZN3std6thread6Thread3new17hba390222e7c4ec59E
000000000082d120 T _ZN3std6thread6Thread3new28_$u7b$$u7b$closure$u7d$$u7d$17hf8dc562ab3ae240aE
000000000082d1a0 T _ZN3std6thread6Thread6unpark17h666bc51c57ceaf6bE
000000000082d2a0 T _ZN3std6thread6Thread2id17h5ee87cbc152cd76eE
000000000082d2e0 T _ZN3std6thread6Thread4name17h03c517b37b41f40dE
000000000082d330 T _ZN3std6thread6Thread4name28_$u7b$$u7b$closure$u7d$$u7d$17ha14e0d2551ad3a4cE
000000000082d390 T _ZN3std6thread6Thread5cname17h966d0e7ed713063eE
000000000082d3e0 T _ZN56_$LT$std..thread..Thread$u20$as$u20$core..fmt..Debug$GT$3fmt17he6b05a095ad8dae7E
000000000082d4f0 T _ZN62_$LT$std..backtrace..Backtrace$u20$as$u20$core..fmt..Debug$GT$3fmt17hf9a91bb056c5fd3aE
000000000082d840 T _ZN68_$LT$std..backtrace..BacktraceSymbol$u20$as$u20$core..fmt..Debug$GT$3fmt17h519d1bc9f4c8b61fE
000000000082de20 T _ZN68_$LT$std..backtrace..BacktraceSymbol$u20$as$u20$core..fmt..Debug$GT$3fmt28_$u7b$$u7b$closure$u7d$$u7d$17he3c44dd7895197dbE
000000000082de70 T _ZN64_$LT$std..backtrace..BytesOrWide$u20$as$u20$core..fmt..Debug$GT$3fmt17h195a68b4eb96dee6E
000000000082df90 t _ZN3std9backtrace9Backtrace7enabled17hebe67092c073e702E
000000000082e190 T _ZN3std9backtrace9Backtrace7capture17hf16b0d6f9d0dac33E
000000000082e200 T _ZN3std9backtrace9Backtrace13force_capture17h0c223b17040aa2a4E
000000000082e240 t _ZN3std9backtrace9Backtrace6create17h0bd54ad3cdb4f11fE
000000000082e440 T _ZN3std9backtrace9Backtrace6create28_$u7b$$u7b$closure$u7d$$u7d$17ha50167bcd770722aE
000000000082e550 T _ZN3std9backtrace9Backtrace6status17h6d059b4b69239130E
000000000082e5a0 T _ZN64_$LT$std..backtrace..Backtrace$u20$as$u20$core..fmt..Display$GT$3fmt17hd7731cff895bf6a6E
000000000082ed10 T _ZN64_$LT$std..backtrace..Backtrace$u20$as$u20$core..fmt..Display$GT$3fmt28_$u7b$$u7b$closure$u7d$$u7d$17h9bdfb43c2bb9d2edE
000000000082edb0 T _ZN64_$LT$std..backtrace..Backtrace$u20$as$u20$core..fmt..Display$GT$3fmt28_$u7b$$u7b$closure$u7d$$u7d$17h26822c82f98c59deE
000000000082ee00 T _ZN64_$LT$std..backtrace..Backtrace$u20$as$u20$core..fmt..Display$GT$3fmt28_$u7b$$u7b$closure$u7d$$u7d$17h8d281a5d7bc50a1cE
000000000082eeb0 t _ZN3std9backtrace7Capture7resolve17h04c54b942dc44591E
000000000082efd0 T _ZN3std9backtrace7Capture7resolve28_$u7b$$u7b$closure$u7d$$u7d$28_$u7b$$u7b$closure$u7d$$u7d$17h916b9f7353d72c6cE
000000000082f020 T _ZN3std9backtrace7Capture7resolve28_$u7b$$u7b$closure$u7d$$u7d$28_$u7b$$u7b$closure$u7d$$u7d$17hd0ad652d116f95f6E
000000000082f0e0 T _ZN3std9backtrace7Capture7resolve28_$u7b$$u7b$closure$u7d$$u7d$17h0afa73fcc3542931E
000000000082f210 t _ZN3std9backtrace8RawFrame2ip17h5b67196d7102d484E
000000000082f250 T _ZN66_$LT$alloc..string..FromUtf8Error$u20$as$u20$std..error..Error$GT$11description17h726d48abd33c2a75E
000000000082f280 T _ZN67_$LT$alloc..string..FromUtf16Error$u20$as$u20$std..error..Error$GT$11description17h8d76d8dd080ed26bE
000000000082f2b0 T _ZN64_$LT$T$u20$as$u20$std..ffi..c_str..CString..new..SpecIntoVec$GT$8into_vec17h2e4978cb873cc499E
000000000082f300 T _ZN3std3ffi6os_str103_$LT$impl$u20$core..convert..AsRef$LT$std..ffi..os_str..OsStr$GT$$u20$for$u20$alloc..string..String$GT$6as_ref17h45bf61d027542320E
000000000082f350 T _ZN3std2io5impls57_$LT$impl$u20$std..io..Read$u20$for$u20$$RF$mut$u20$R$GT$11initializer17h77b30f6b29828b47E
000000000082f390 T _ZN3std2io5stdio8StdinRaw17h44ac44507c2fbb80E
000000000082f3b0 T _ZN3std2io5stdio9StdoutRaw17h0561a1160836082cE
000000000082f3d0 T _ZN3std2io5stdio9StderrRaw17hbd5f9de758a59cfdE
000000000082f3f0 t _ZN3std2io5stdio9stdin_raw17h5f3cda56b82e7f5bE
000000000082f430 t _ZN3std2io5stdio10stdout_raw17h92df8962da7b5a86E
000000000082f470 t _ZN3std2io5stdio10stderr_raw17h40060aa6f2eb2bf2E
000000000082f4b0 T _ZN58_$LT$std..io..stdio..StdinRaw$u20$as$u20$std..io..Read$GT$4read17h27ec20115443833eE
000000000082f510 T _ZN58_$LT$std..io..stdio..StdinRaw$u20$as$u20$std..io..Read$GT$13read_vectored17hc9aa1e48e4066f76E
000000000082f570 T _ZN60_$LT$std..io..stdio..StdoutRaw$u20$as$u20$std..io..Write$GT$5write17hcc771588453ae6afE
000000000082f5d0 T _ZN60_$LT$std..io..stdio..StdoutRaw$u20$as$u20$std..io..Write$GT$14write_vectored17h307db56f5c9914daE
000000000082f630 T _ZN60_$LT$std..io..stdio..StdoutRaw$u20$as$u20$std..io..Write$GT$5flush17h01f3e529c7e61a93E
000000000082f670 T _ZN60_$LT$std..io..stdio..StderrRaw$u20$as$u20$std..io..Write$GT$5write17h8540a63759f7cff6E
000000000082f6d0 T _ZN60_$LT$std..io..stdio..StderrRaw$u20$as$u20$std..io..Write$GT$14write_vectored17h6c46b80c4327d3e3E
000000000082f730 T _ZN60_$LT$std..io..stdio..StderrRaw$u20$as$u20$std..io..Write$GT$5flush17hf688672f62091aabE
000000000082f770 T _ZN65_$LT$std..io..stdio..Maybe$LT$W$GT$$u20$as$u20$std..io..Write$GT$5write17h5705ff945ba24795E
000000000082f840 T _ZN65_$LT$std..io..stdio..Maybe$LT$W$GT$$u20$as$u20$std..io..Write$GT$5write17h9c8340fb1f3951ccE
000000000082f910 T _ZN65_$LT$std..io..stdio..Maybe$LT$W$GT$$u20$as$u20$std..io..Write$GT$14write_vectored17h1bbe2c56aec3e228E
000000000082fa10 T _ZN65_$LT$std..io..stdio..Maybe$LT$W$GT$$u20$as$u20$std..io..Write$GT$14write_vectored17h1df28df6f1af9984E
000000000082fb10 T _ZN65_$LT$std..io..stdio..Maybe$LT$W$GT$$u20$as$u20$std..io..Write$GT$14write_vectored28_$u7b$$u7b$closure$u7d$$u7d$17ha2cec3f08321b466E
000000000082fb60 T _ZN65_$LT$std..io..stdio..Maybe$LT$W$GT$$u20$as$u20$std..io..Write$GT$14write_vectored28_$u7b$$u7b$closure$u7d$$u7d$17hbbe8919f60d55863E
000000000082fbb0 T _ZN65_$LT$std..io..stdio..Maybe$LT$W$GT$$u20$as$u20$std..io..Write$GT$5flush17h99c61f950ab8dc85E
000000000082fc20 T _ZN65_$LT$std..io..stdio..Maybe$LT$W$GT$$u20$as$u20$std..io..Write$GT$5flush17hd0e53bc2ab001953E
000000000082fc90 T _ZN64_$LT$std..io..stdio..Maybe$LT$R$GT$$u20$as$u20$std..io..Read$GT$4read17h361451038e9614b7E
000000000082fd40 T _ZN64_$LT$std..io..stdio..Maybe$LT$R$GT$$u20$as$u20$std..io..Read$GT$13read_vectored17h50f3cdfbcdc0353bE
000000000082fdf0 T _ZN3std2io5stdio12handle_ebadf17hd179e8e9114a9698E
000000000082fed0 T _ZN3std2io5stdio12handle_ebadf17heebd98ed225db559E
000000000082ffd0 T _ZN3std2io5stdio5stdin17hc6a3d0afdb18cd2aE
0000000000830040 t _ZN3std2io5stdio5stdin10stdin_init17hac3ccb7c7b9e623fE
00000000008300f0 T _ZN3std2io5stdio5Stdin4lock17ha28cf1ca0ea8eaf6E
0000000000830150 T _ZN3std2io5stdio5Stdin4lock28_$u7b$$u7b$closure$u7d$$u7d$17h9f79703ae15d47d6E
00000000008301b0 T _ZN3std2io5stdio5Stdin9read_line17hf2aa7413e117d399E
0000000000830220 T _ZN58_$LT$std..io..stdio..Stdin$u20$as$u20$core..fmt..Debug$GT$3fmt17hbeb43989a8fd0869E
0000000000830270 T _ZN55_$LT$std..io..stdio..Stdin$u20$as$u20$std..io..Read$GT$4read17h1e6e1f1e5645cb45E
00000000008302f0 T _ZN55_$LT$std..io..stdio..Stdin$u20$as$u20$std..io..Read$GT$13read_vectored17h926d878e4d0558a3E
0000000000830370 T _ZN55_$LT$std..io..stdio..Stdin$u20$as$u20$std..io..Read$GT$11read_to_end17h91b982d23bd02344E
00000000008303e0 T _ZN55_$LT$std..io..stdio..Stdin$u20$as$u20$std..io..Read$GT$14read_to_string17hf1095bd9acc506b2E
0000000000830450 T _ZN55_$LT$std..io..stdio..Stdin$u20$as$u20$std..io..Read$GT$10read_exact17h0e8808278ee02f73E
00000000008304d0 T _ZN59_$LT$std..io..stdio..StdinLock$u20$as$u20$std..io..Read$GT$4read17h0afa2a343465d52cE
0000000000830540 T _ZN59_$LT$std..io..stdio..StdinLock$u20$as$u20$std..io..Read$GT$13read_vectored17h7b1d2528c609f96eE
00000000008305b0 t _ZN59_$LT$std..io..stdio..StdinLock$u20$as$u20$std..io..Read$GT$11initializer17h28a44fe70ed59da7E
00000000008305e0 T _ZN62_$LT$std..io..stdio..StdinLock$u20$as$u20$std..io..BufRead$GT$8fill_buf17ha15551f3a2e6628eE
0000000000830630 T _ZN62_$LT$std..io..stdio..StdinLock$u20$as$u20$std..io..BufRead$GT$7consume17hd4c841b59b84bca3E
0000000000830680 T _ZN62_$LT$std..io..stdio..StdinLock$u20$as$u20$core..fmt..Debug$GT$3fmt17h8baf2f659730080cE
00000000008306d0 T _ZN3std2io5stdio6stdout17h58bdbf4f940d7d0dE
0000000000830740 t _ZN3std2io5stdio6stdout11stdout_init17h7d6ea3eb5430b03dE
0000000000830840 T _ZN3std2io5stdio6Stdout4lock17h0608d349991b3aeeE
0000000000830890 T _ZN59_$LT$std..io..stdio..Stdout$u20$as$u20$core..fmt..Debug$GT$3fmt17h57c11d15bfabd275E
00000000008308e0 T _ZN57_$LT$std..io..stdio..Stdout$u20$as$u20$std..io..Write$GT$5write17h83281e1bd5c6a072E
0000000000830950 T _ZN57_$LT$std..io..stdio..Stdout$u20$as$u20$std..io..Write$GT$14write_vectored17h53ba9e1c8fd2bfa3E
00000000008309c0 T _ZN57_$LT$std..io..stdio..Stdout$u20$as$u20$std..io..Write$GT$5flush17hd0ede644e4b00025E
0000000000830a10 T _ZN57_$LT$std..io..stdio..Stdout$u20$as$u20$std..io..Write$GT$9write_all17hdb879036366ad7eeE
0000000000830a80 T _ZN57_$LT$std..io..stdio..Stdout$u20$as$u20$std..io..Write$GT$9write_fmt17h0553c22ee5b7d105E
0000000000830b00 T _ZN61_$LT$std..io..stdio..StdoutLock$u20$as$u20$std..io..Write$GT$5write17hb69bc244c5734e69E
0000000000830b90 T _ZN61_$LT$std..io..stdio..StdoutLock$u20$as$u20$std..io..Write$GT$14write_vectored17h41720d811eb51c34E
0000000000830c20 T _ZN61_$LT$std..io..stdio..StdoutLock$u20$as$u20$std..io..Write$GT$5flush17h5425c7f3fe5fec3fE
0000000000830c90 T _ZN63_$LT$std..io..stdio..StdoutLock$u20$as$u20$core..fmt..Debug$GT$3fmt17hff4fa76aad7e7887E
0000000000830ce0 T _ZN3std2io5stdio6stderr17hc99c14a9c2d70523E
0000000000830d20 T _ZN3std2io5stdio6stderr28_$u7b$$u7b$closure$u7d$$u7d$17h826f0b9cb92274fcE
0000000000830e00 T _ZN3std2io5stdio6Stderr4lock17h577087635ab87b75E
0000000000830e40 T _ZN59_$LT$std..io..stdio..Stderr$u20$as$u20$core..fmt..Debug$GT$3fmt17h81ed2bfef4bd4c6eE
0000000000830e90 T _ZN57_$LT$std..io..stdio..Stderr$u20$as$u20$std..io..Write$GT$5write17h70d06c757a765b2aE
0000000000830f00 T _ZN57_$LT$std..io..stdio..Stderr$u20$as$u20$std..io..Write$GT$14write_vectored17h62a9d35f81f5354fE
0000000000830f70 T _ZN57_$LT$std..io..stdio..Stderr$u20$as$u20$std..io..Write$GT$5flush17ha7ad9b623a3c6631E
0000000000830fc0 T _ZN57_$LT$std..io..stdio..Stderr$u20$as$u20$std..io..Write$GT$9write_all17h47334a6369981a48E
0000000000831030 T _ZN57_$LT$std..io..stdio..Stderr$u20$as$u20$std..io..Write$GT$9write_fmt17h7319a1f9c112d81dE
00000000008310b0 T _ZN61_$LT$std..io..stdio..StderrLock$u20$as$u20$std..io..Write$GT$5write17h7b754171d683e568E
0000000000831140 T _ZN61_$LT$std..io..stdio..StderrLock$u20$as$u20$std..io..Write$GT$14write_vectored17h8e9c5e60baff75adE
00000000008311d0 T _ZN61_$LT$std..io..stdio..StderrLock$u20$as$u20$std..io..Write$GT$5flush17hd51b0b5665e7fde5E
0000000000831240 T _ZN63_$LT$std..io..stdio..StderrLock$u20$as$u20$core..fmt..Debug$GT$3fmt17h66169c6a3aa034d8E
0000000000831290 T _ZN3std2io5stdio9set_panic17h977371abd1c6def9E
0000000000831300 T _ZN3std2io5stdio9set_panic28_$u7b$$u7b$closure$u7d$$u7d$17h2809dfd036ab1589E
0000000000831380 T _ZN3std2io5stdio9set_panic28_$u7b$$u7b$closure$u7d$$u7d$17h43809d14baecc5f3E
00000000008313e0 T _ZN3std2io5stdio9set_print17h13b323b5b2a999f3E
0000000000831450 T _ZN3std2io5stdio9set_print28_$u7b$$u7b$closure$u7d$$u7d$17hf97273f5fbe9b04bE
00000000008314d0 T _ZN3std2io5stdio9set_print28_$u7b$$u7b$closure$u7d$$u7d$17hc7d08bee5f4cd1a2E
0000000000831530 t _ZN3std2io5stdio8print_to17h43ff8a543d34d2b8E
0000000000831750 t _ZN3std2io5stdio8print_to17hd28add4f466b31a0E
0000000000831970 T _ZN3std2io5stdio8print_to28_$u7b$$u7b$closure$u7d$$u7d$17h23316c2102cfca19E
0000000000831b90 T _ZN3std2io5stdio8print_to28_$u7b$$u7b$closure$u7d$$u7d$17hb209e317e77fdceaE
0000000000831db0 T _ZN3std2io5stdio8print_to28_$u7b$$u7b$closure$u7d$$u7d$17h6f72868a35b23dbeE
0000000000831e30 T _ZN3std2io5stdio8print_to28_$u7b$$u7b$closure$u7d$$u7d$17hf35f18f9bcfd8f26E
0000000000831eb0 T _ZN3std2io5stdio6_print17h22280275485812faE
0000000000831f20 T _ZN3std2io5stdio7_eprint17ha3df8f975439f72cE
0000000000831f90 T _ZN3std2io4Read11initializer17ha6466ffc503031dbE
0000000000831fc0 T _ZN3std2io4Read11read_to_end17he47dfca16caee173E
0000000000832010 T _ZN3std2io4Read14read_to_string17h2553398cc86d062dE
0000000000832070 T _ZN3std2io4Read10read_exact17hb13c6f662533a165E
00000000008322c0 T _ZN3std2io5Write9write_all17h2de9abd63c628213E
00000000008324c0 T _ZN3std2io5Write9write_all17hce05fcf8771a2d2cE
00000000008326c0 T _ZN3std2io5Write9write_all17hf21726a5261eaf99E
00000000008328c0 T _ZN3std2io5Write18write_all_vectored17h638f90a419242694E
0000000000832ac0 T _ZN3std2io5Write9write_fmt17h14a22d2ce7388d5fE
0000000000832c50 T _ZN3std2io5Write9write_fmt17h2874f75af2c0211eE
0000000000832de0 T _ZN3std2io5Write9write_fmt17h9e45e5be7d12fff7E
0000000000832f70 T _ZN3std2io7BufRead9read_line17hb06b1b5c86434a62E
0000000000832fd0 T _ZN85_$LT$$LP$alloc..string..String$C$u16$RP$$u20$as$u20$std..net..addr..ToSocketAddrs$GT$15to_socket_addrs17h3bb4ba812fc64c59E
0000000000833040 T _ZN71_$LT$alloc..string..String$u20$as$u20$std..net..addr..ToSocketAddrs$GT$15to_socket_addrs17h011a3af221d29c00E
0000000000833090 T _ZN3std3net5htons17h83badce59e49359bE
00000000008330c0 T _ZN3std3net5ntohs17h7c9bdc10c19fe2a3E
00000000008330f0 T _ZN3std4path95_$LT$impl$u20$core..convert..AsRef$LT$std..path..Path$GT$$u20$for$u20$alloc..string..String$GT$6as_ref17h3fc7b35e29c49347E
0000000000833130 T _ZN3std4sync5mutex14Mutex$LT$T$GT$3new17h58a6ba96c697a6a3E
0000000000833220 T _ZN3std4sync5mutex14Mutex$LT$T$GT$3new17h8a09594b17f46598E
00000000008332d0 T _ZN3std4sync5mutex14Mutex$LT$T$GT$3new17hd5c7cd6a88057dacE
0000000000833350 T _ZN3std4sync5mutex14Mutex$LT$T$GT$3new17heb9940f02075403fE
0000000000833420 T _ZN3std4sync5mutex14Mutex$LT$T$GT$3new17hfcf19fa5db10f025E
00000000008334f0 T _ZN3std4sync5mutex14Mutex$LT$T$GT$4lock17h027122584e79c434E
0000000000833540 T _ZN3std4sync5mutex14Mutex$LT$T$GT$4lock17h0ee81dd22d8e035bE
0000000000833590 T _ZN3std4sync5mutex14Mutex$LT$T$GT$4lock17h48905ba7ea3fbd81E
00000000008335e0 T _ZN3std4sync5mutex14Mutex$LT$T$GT$4lock17h4f86d674ba832a9cE
0000000000833630 T _ZN3std4sync5mutex14Mutex$LT$T$GT$4lock17hfe7a9df23fa9d952E
0000000000833680 T _ZN74_$LT$std..sync..mutex..Mutex$LT$T$GT$$u20$as$u20$core..ops..drop..Drop$GT$4drop17h009d727aa045ca4bE
00000000008336b0 T _ZN74_$LT$std..sync..mutex..Mutex$LT$T$GT$$u20$as$u20$core..ops..drop..Drop$GT$4drop17h291775ae8a16575aE
00000000008336e0 T _ZN74_$LT$std..sync..mutex..Mutex$LT$T$GT$$u20$as$u20$core..ops..drop..Drop$GT$4drop17hd256ded932ce7cb1E
0000000000833710 T _ZN129_$LT$$LT$std..sync..mutex..Mutex$LT$T$GT$$u20$as$u20$core..fmt..Debug$GT$..fmt..LockedPlaceholder$u20$as$u20$core..fmt..Debug$GT$3fmt17h5ac0ae630fc5e121E
0000000000833760 T _ZN3std4sync5mutex19MutexGuard$LT$T$GT$3new17h0880a4b6deb9dfa0E
00000000008337e0 T _ZN3std4sync5mutex19MutexGuard$LT$T$GT$3new17h14b6d3223c3f699dE
0000000000833860 T _ZN3std4sync5mutex19MutexGuard$LT$T$GT$3new17h9b5597d13edb3a2cE
00000000008338e0 T _ZN3std4sync5mutex19MutexGuard$LT$T$GT$3new17hd7904ff16408f1e2E
0000000000833960 T _ZN3std4sync5mutex19MutexGuard$LT$T$GT$3new17he593c079ea3565a3E
00000000008339e0 T _ZN3std4sync5mutex19MutexGuard$LT$T$GT$3new28_$u7b$$u7b$closure$u7d$$u7d$17h0d57246290351068E
0000000000833a20 T _ZN3std4sync5mutex19MutexGuard$LT$T$GT$3new28_$u7b$$u7b$closure$u7d$$u7d$17h10ed412d828581b5E
0000000000833a60 T _ZN3std4sync5mutex19MutexGuard$LT$T$GT$3new28_$u7b$$u7b$closure$u7d$$u7d$17ha3cff47183970031E
0000000000833aa0 T _ZN3std4sync5mutex19MutexGuard$LT$T$GT$3new28_$u7b$$u7b$closure$u7d$$u7d$17he33449be4e9e8386E
0000000000833ae0 T _ZN3std4sync5mutex19MutexGuard$LT$T$GT$3new28_$u7b$$u7b$closure$u7d$$u7d$17he99861ab276d822eE
0000000000833b20 T _ZN81_$LT$std..sync..mutex..MutexGuard$LT$T$GT$$u20$as$u20$core..ops..deref..Deref$GT$5deref17h36412d5bbca31019E
0000000000833b60 T _ZN81_$LT$std..sync..mutex..MutexGuard$LT$T$GT$$u20$as$u20$core..ops..deref..Deref$GT$5deref17h88c1be683ffc245bE
0000000000833ba0 T _ZN81_$LT$std..sync..mutex..MutexGuard$LT$T$GT$$u20$as$u20$core..ops..deref..Deref$GT$5deref17hdc7cf0b55144ec87E
0000000000833be0 T _ZN84_$LT$std..sync..mutex..MutexGuard$LT$T$GT$$u20$as$u20$core..ops..deref..DerefMut$GT$9deref_mut17h2dc4129f50bfee52E
0000000000833c20 T _ZN84_$LT$std..sync..mutex..MutexGuard$LT$T$GT$$u20$as$u20$core..ops..deref..DerefMut$GT$9deref_mut17h516009685d95b6b1E
0000000000833c60 T _ZN84_$LT$std..sync..mutex..MutexGuard$LT$T$GT$$u20$as$u20$core..ops..deref..DerefMut$GT$9deref_mut17h6f91ae42e08e95f8E
0000000000833ca0 T _ZN84_$LT$std..sync..mutex..MutexGuard$LT$T$GT$$u20$as$u20$core..ops..deref..DerefMut$GT$9deref_mut17hf214fd7a32d20cc1E
0000000000833ce0 T _ZN79_$LT$std..sync..mutex..MutexGuard$LT$T$GT$$u20$as$u20$core..ops..drop..Drop$GT$4drop17h02808b2873ed32b2E
0000000000833d30 T _ZN79_$LT$std..sync..mutex..MutexGuard$LT$T$GT$$u20$as$u20$core..ops..drop..Drop$GT$4drop17h4b67761c9858941cE
0000000000833d80 T _ZN79_$LT$std..sync..mutex..MutexGuard$LT$T$GT$$u20$as$u20$core..ops..drop..Drop$GT$4drop17h97a9eca19ecde83dE
0000000000833dd0 T _ZN79_$LT$std..sync..mutex..MutexGuard$LT$T$GT$$u20$as$u20$core..ops..drop..Drop$GT$4drop17ha5dbb1997b77d45aE
0000000000833e20 T _ZN79_$LT$std..sync..mutex..MutexGuard$LT$T$GT$$u20$as$u20$core..ops..drop..Drop$GT$4drop17hf6d220900f398572E
0000000000833e70 T _ZN3std4sync5mutex10guard_lock17h899d768953df15b7E
0000000000833ea0 T _ZN3std4sync5mutex10guard_lock17he702fa85912fc994E
0000000000833ed0 T _ZN3std4sync5mutex12guard_poison17ha968b6312edc70f9E
0000000000833f00 T _ZN3std4sync5mutex12guard_poison17hc181299f01336b6eE
0000000000833f30 T _ZN73_$LT$std..sys_common..os_str_bytes..Slice$u20$as$u20$core..fmt..Debug$GT$3fmt17h092c7be3739f5b63E
0000000000833f80 T _ZN75_$LT$std..sys_common..os_str_bytes..Slice$u20$as$u20$core..fmt..Display$GT$3fmt17h3f99cba24f74dc24E
0000000000833ff0 T _ZN71_$LT$std..sys_common..os_str_bytes..Buf$u20$as$u20$core..fmt..Debug$GT$3fmt17h9122b01cc23fe227E
0000000000834050 T _ZN73_$LT$std..sys_common..os_str_bytes..Buf$u20$as$u20$core..fmt..Display$GT$3fmt17hcdba932371a6132cE
00000000008340b0 T _ZN114_$LT$std..sys_common..os_str_bytes..Buf$u20$as$u20$std..sys_common..IntoInner$LT$alloc..vec..Vec$LT$u8$GT$$GT$$GT$10into_inner17ha28013b0585b613eE
0000000000834100 T _ZN99_$LT$std..sys_common..os_str_bytes..Buf$u20$as$u20$std..sys_common..AsInner$LT$$u5b$u8$u5d$$GT$$GT$8as_inner17h2a97c7ed35782a43E
0000000000834140 T _ZN3std10sys_common12os_str_bytes3Buf11from_string17ha6a79381808a5c16E
00000000008341b0 T _ZN3std10sys_common12os_str_bytes3Buf13with_capacity17hed23b745a3efd960E
0000000000834210 T _ZN3std10sys_common12os_str_bytes3Buf5clear17h0854daa962ccd1dcE
0000000000834240 T _ZN3std10sys_common12os_str_bytes3Buf8capacity17h5240635606817fceE
0000000000834270 T _ZN3std10sys_common12os_str_bytes3Buf7reserve17h136d7df3b0703edaE
00000000008342b0 T _ZN3std10sys_common12os_str_bytes3Buf13reserve_exact17h8a30b0ff8675d036E
00000000008342f0 T _ZN3std10sys_common12os_str_bytes3Buf13shrink_to_fit17ha9cd72819df1742bE
0000000000834320 T _ZN3std10sys_common12os_str_bytes3Buf9shrink_to17hf8402a97b4cda688E
0000000000834360 T _ZN3std10sys_common12os_str_bytes3Buf8as_slice17h14677bd9aaadf106E
00000000008343c0 T _ZN3std10sys_common12os_str_bytes3Buf11into_string17h8d4b8dddcd4cdd9cE
0000000000834420 T _ZN3std10sys_common12os_str_bytes3Buf11into_string28_$u7b$$u7b$closure$u7d$$u7d$17h8d0e28f48ef8e158E
0000000000834490 T _ZN3std10sys_common12os_str_bytes3Buf10push_slice17hb69a4f14de32bbe8E
00000000008344e0 T _ZN3std10sys_common12os_str_bytes3Buf8into_box17h3833fa1c48bfb88cE
0000000000834550 T _ZN3std10sys_common12os_str_bytes3Buf8from_box17h27f09138be00c2a4E
00000000008345e0 t _ZN3std10sys_common12os_str_bytes5Slice13from_u8_slice17h02ef3c14c2e617ffE
0000000000834630 T _ZN3std10sys_common12os_str_bytes5Slice8from_str17h47bd3ac04a2c48efE
00000000008346a0 T _ZN3std10sys_common12os_str_bytes5Slice6to_str17h5da035098bc421b6E
0000000000834700 T _ZN3std10sys_common12os_str_bytes5Slice15to_string_lossy17he783a81dd23dbcc8E
0000000000834750 T _ZN3std10sys_common12os_str_bytes5Slice8to_owned17hd7775a556a1909c8E
00000000008347c0 T _ZN3std10sys_common12os_str_bytes5Slice10clone_into17h488f0b8a5dd6ad01E
0000000000834810 T _ZN3std10sys_common12os_str_bytes5Slice8into_box17h562bf1779816a03cE
0000000000834880 T _ZN3std10sys_common12os_str_bytes5Slice9empty_box17h8535c835d5793e9bE
00000000008348d0 T _ZN3std10sys_common12os_str_bytes5Slice20make_ascii_lowercase17hcb75df92b58bb8afE
0000000000834910 T _ZN3std10sys_common12os_str_bytes5Slice20make_ascii_uppercase17h4e2e7f3c85f9ed64E
0000000000834950 T _ZN3std10sys_common12os_str_bytes5Slice18to_ascii_lowercase17h0086c8b3c9fd50d1E
00000000008349c0 T _ZN3std10sys_common12os_str_bytes5Slice18to_ascii_uppercase17h313003dec5b5c8d3E
0000000000834a30 T _ZN3std10sys_common12os_str_bytes5Slice8is_ascii17h4cc1e2c1b97f4e37E
0000000000834a80 T _ZN57_$LT$std..thread..Builder$u20$as$u20$core..fmt..Debug$GT$3fmt17hf3609cd2ad0dc391E
0000000000834b90 T _ZN58_$LT$std..thread..ThreadId$u20$as$u20$core..fmt..Debug$GT$3fmt17hda58dade0b3db84cE
0000000000834c20 T _ZN58_$LT$std..thread..Thread$u20$as$u20$core..clone..Clone$GT$5clone17h9671d370b937b599E
0000000000834c60 T _ZN68_$LT$std..backtrace..BacktraceStatus$u20$as$u20$core..fmt..Debug$GT$3fmt17h85882d11bbffbca0E
0000000000834d50 T _ZN3std2io5stdio12LOCAL_STDOUT6__init17ha544590f44b92d72E
0000000000834d90 t _ZN3std2io5stdio12LOCAL_STDOUT7__getit17h35c452b02fa48938E
0000000000834dc0 T _ZN3std2io5stdio12LOCAL_STDERR6__init17hdc8cdb24cc7a7558E
0000000000834e00 t _ZN3std2io5stdio12LOCAL_STDERR7__getit17he9f6bba9993c4665E
0000000000834e30 T _ZN55_$LT$std..net..Shutdown$u20$as$u20$core..fmt..Debug$GT$3fmt17h1a41577f0b6542c4E
0000000000834f20 T _ZN73_$LT$std..sys_common..os_str_bytes..Buf$u20$as$u20$core..clone..Clone$GT$5clone17h784f7c5b9042e433E
0000000000834f80 T _ZN3std3sys6hermit4args3imp4init17h2345c6e10c034f15E
0000000000834ff0 T _ZN3std3sys6hermit4args3imp7cleanup17h7c19d49480fa7297E
0000000000835040 T _ZN3std3sys6hermit4args3imp4args17h584b78038665fd73E
00000000008350a0 t _ZN3std3sys6hermit4args3imp5clone17h2ed2a174e69aef2dE
0000000000835120 T _ZN3std3sys6hermit4args3imp5clone28_$u7b$$u7b$closure$u7d$$u7d$17hc0811cb35e75255bE
00000000008351d0 T _ZN3std3sys6hermit7condvar7Condvar3new17h691901aa3ca934f1E
00000000008351e0 T _ZN3std3sys6hermit7condvar7Condvar4init17hea49815fe1ba9ba6E
0000000000835220 T _ZN3std3sys6hermit7condvar7Condvar10notify_one17hf56688ce9890f93fE
0000000000835270 T _ZN3std3sys6hermit7condvar7Condvar10notify_all17he35ae7302eb2e662E
00000000008352c0 T _ZN3std3sys6hermit7condvar7Condvar4wait17h69bc01dd58ee86bfE
0000000000835350 T _ZN3std3sys6hermit7condvar7Condvar12wait_timeout17hc642c466f45e1e5fE
0000000000835490 T _ZN3std3sys6hermit7condvar7Condvar7destroy17he99b5e05e06a9e4fE
00000000008354d0 t _ZN3std3sys6hermit7condvar7Condvar2id17h73a4d00a6e1c5612E
00000000008354f0 t _ZN3std3sys6hermit5stdio5Stdin3new17hf402c678f65d74cfE
0000000000835520 T _ZN64_$LT$std..sys..hermit..stdio..Stdin$u20$as$u20$std..io..Read$GT$4read17ha3effb53b7012894E
00000000008355a0 T _ZN64_$LT$std..sys..hermit..stdio..Stdin$u20$as$u20$std..io..Read$GT$13read_vectored17h3e929af0009ae3b0E
0000000000835600 t _ZN3std3sys6hermit5stdio6Stdout3new17hd4632440fd7a5cf4E
0000000000835630 T _ZN66_$LT$std..sys..hermit..stdio..Stdout$u20$as$u20$std..io..Write$GT$5write17h4c0d301bf325ed4bE
0000000000835730 T _ZN66_$LT$std..sys..hermit..stdio..Stdout$u20$as$u20$std..io..Write$GT$14write_vectored17h544a1d5364dc7403E
0000000000835840 T _ZN66_$LT$std..sys..hermit..stdio..Stdout$u20$as$u20$std..io..Write$GT$5flush17h571bb5debc9bc03dE
0000000000835880 T _ZN3std3sys6hermit5stdio6Stderr3new17h66bde0c53bf34920E
00000000008358b0 T _ZN66_$LT$std..sys..hermit..stdio..Stderr$u20$as$u20$std..io..Write$GT$5write17h5453a047cbfc5facE
00000000008359b0 T _ZN66_$LT$std..sys..hermit..stdio..Stderr$u20$as$u20$std..io..Write$GT$14write_vectored17hc214d4b0d12d203eE
0000000000835ac0 T _ZN66_$LT$std..sys..hermit..stdio..Stderr$u20$as$u20$std..io..Write$GT$17is_write_vectored17h67db1c4121331e2dE
0000000000835af0 T _ZN66_$LT$std..sys..hermit..stdio..Stderr$u20$as$u20$std..io..Write$GT$5flush17hd465596640a9da1fE
0000000000835b30 T _ZN3std3sys6hermit5stdio8is_ebadf17hdccf2d2e3cb0c8a2E
0000000000835b60 T _ZN3std3sys6hermit5stdio12panic_output17h86763298627a9af9E
0000000000835b90 T _ZN42_$LT$$RF$T$u20$as$u20$core..fmt..Debug$GT$3fmt17h18257b2c86a99f76E
0000000000835be0 T _ZN42_$LT$$RF$T$u20$as$u20$core..fmt..Debug$GT$3fmt17h18297bd08fbbd150E
0000000000835c30 T _ZN42_$LT$$RF$T$u20$as$u20$core..fmt..Debug$GT$3fmt17h422d17a9900de5bfE
0000000000835c80 T _ZN42_$LT$$RF$T$u20$as$u20$core..fmt..Debug$GT$3fmt17h6a37e512ecae45efE
0000000000835cd0 T _ZN42_$LT$$RF$T$u20$as$u20$core..fmt..Debug$GT$3fmt17h6e5fd55ee5f634a1E
0000000000835d20 T _ZN42_$LT$$RF$T$u20$as$u20$core..fmt..Debug$GT$3fmt17h77414d0aac15a4a4E
0000000000835d70 T _ZN42_$LT$$RF$T$u20$as$u20$core..fmt..Debug$GT$3fmt17ha91a5f58b4a480d9E
0000000000835dc0 T _ZN42_$LT$$RF$T$u20$as$u20$core..fmt..Debug$GT$3fmt17hd283963fad64f55fE
0000000000835e10 T _ZN42_$LT$$RF$T$u20$as$u20$core..fmt..Debug$GT$3fmt17hdf7f9bf2f0100bacE
0000000000835e60 T _ZN4core3cmp10PartialOrd2ge17h105c4f83093d0cd3E
0000000000835ee0 T _ZN4core3cmp3Ord3max17h89316e36eba28460E
0000000000835f50 T _ZN4core3cmp5impls47_$LT$impl$u20$core..cmp..Ord$u20$for$u20$u8$GT$3cmp17h373414bc92a4931aE
0000000000835fb0 t _ZN4core3cmp5impls48_$LT$impl$u20$core..cmp..Ord$u20$for$u20$i64$GT$3cmp17h9e31fe7012eaa7f0E
0000000000836010 T _ZN4core3cmp5impls48_$LT$impl$u20$core..cmp..Ord$u20$for$u20$u16$GT$3cmp17h582cf77b85065a57E
0000000000836070 T _ZN4core3cmp5impls48_$LT$impl$u20$core..cmp..Ord$u20$for$u20$u32$GT$3cmp17h104fe5cfb4a5668dE
00000000008360d0 T _ZN4core3cmp5impls49_$LT$impl$u20$core..cmp..Ord$u20$for$u20$u128$GT$3cmp17h0a7ac93fc2903976E
0000000000836150 T _ZN4core3cmp5impls50_$LT$impl$u20$core..cmp..Ord$u20$for$u20$$RF$A$GT$3cmp17h1f6b28d0047fd337E
00000000008361a0 T _ZN4core3cmp5impls50_$LT$impl$u20$core..cmp..Ord$u20$for$u20$isize$GT$3cmp17h2e0052c1b2c41628E
0000000000836200 T _ZN4core3cmp5impls50_$LT$impl$u20$core..cmp..Ord$u20$for$u20$usize$GT$3cmp17h304ebfb766ca83beE
0000000000836260 T _ZN4core3cmp5impls54_$LT$impl$u20$core..cmp..PartialOrd$u20$for$u20$u8$GT$11partial_cmp17h8b342508fb80ba3aE
00000000008362b0 T _ZN4core3cmp5impls57_$LT$impl$u20$core..cmp..PartialOrd$u20$for$u20$isize$GT$11partial_cmp17ha562b38bce50a544E
0000000000836300 T _ZN4core3cmp5impls57_$LT$impl$u20$core..cmp..PartialOrd$u20$for$u20$isize$GT$2lt17h3a4db49099141d39E
0000000000836340 T _ZN4core3cmp5impls57_$LT$impl$u20$core..cmp..PartialOrd$u20$for$u20$usize$GT$2le17h24f7af677a5998b3E
0000000000836380 T _ZN4core3cmp5impls57_$LT$impl$u20$core..cmp..PartialOrd$u20$for$u20$usize$GT$2lt17hf64847d93102a91aE
00000000008363c0 T _ZN4core3cmp5impls69_$LT$impl$u20$core..cmp..PartialEq$LT$$RF$B$GT$$u20$for$u20$$RF$A$GT$2eq17h2ab5e1e9c8ff97e2E
0000000000836410 T _ZN4core3cmp5impls70_$LT$impl$u20$core..cmp..PartialOrd$LT$$RF$B$GT$$u20$for$u20$$RF$A$GT$2ge17hc090a12a8c844715E
0000000000836460 T _ZN4core3ops8function5impls80_$LT$impl$u20$core..ops..function..FnOnce$LT$A$GT$$u20$for$u20$$RF$mut$u20$F$GT$9call_once17h229613cffcf471b5E
00000000008364b0 T _ZN4core4iter6traits10exact_size17ExactSizeIterator8is_empty17hcdfa846dd233f9dbE
00000000008364f0 T _ZN4core4sync6atomic10AtomicBool16compare_and_swap17hdaac71920fb76dd6E
00000000008365c0 t _ZN4core4sync6atomic10AtomicBool16compare_exchange17h5800b71e2ebb0d16E
00000000008366a0 T _ZN4core4sync6atomic10AtomicBool3new17he2408eabdd8f670cE
00000000008366e0 T _ZN4core4sync6atomic10AtomicBool4load17hf13403b6db22d5efE
0000000000836740 T _ZN4core4sync6atomic10AtomicBool4swap17h77857dfb140a2184E
00000000008367b0 T _ZN4core4sync6atomic10AtomicBool5store17h10f56731dfd9ac34E
0000000000836810 T _ZN4core4sync6atomic10atomic_add17ha28d3f1ed5588bcbE
00000000008368d0 T _ZN4core4sync6atomic10atomic_sub17hdc7c0ffaca3ed325E
00000000008369a0 T _ZN4core4sync6atomic11AtomicIsize4load17h5e5b59eecceac855E
00000000008369f0 T _ZN4core4sync6atomic11AtomicIsize5store17h222daec6c2369519E
0000000000836a50 T _ZN4core4sync6atomic11AtomicUsize16compare_and_swap17hdb001a1312bdf37fE
0000000000836af0 T _ZN4core4sync6atomic11AtomicUsize16compare_exchange17hded4d9da92c9edf7E
0000000000836b80 T _ZN4core4sync6atomic11AtomicUsize3new17hea86373732ef3e26E
0000000000836bc0 T _ZN4core4sync6atomic11AtomicUsize4load17h5559eadc01ed1115E
0000000000836c10 T _ZN4core4sync6atomic11AtomicUsize4swap17hc03f62c16da2d8e5E
0000000000836c70 T _ZN4core4sync6atomic11AtomicUsize5store17h4653feb976ad8745E
0000000000836cd0 T _ZN4core4sync6atomic11AtomicUsize9fetch_add17hfa60b6fce136df01E
0000000000836d30 T _ZN4core4sync6atomic11AtomicUsize9fetch_sub17h81b774742d39fe22E
0000000000836d90 T _ZN4core4sync6atomic11atomic_swap17h2e789c7ae2cc1929E
0000000000836e40 T _ZN4core4sync6atomic11atomic_swap17h73263a9a5b2a4436E
0000000000836ee0 T _ZN4core4sync6atomic12atomic_store17h3db82e0132a0f426E
0000000000836f80 T _ZN4core4sync6atomic12atomic_store17h8f00d966152ddab0E
0000000000837030 T _ZN4core4sync6atomic12atomic_store17hee7714beff4c0464E
00000000008370e0 T _ZN4core4sync6atomic18AtomicPtr$LT$T$GT$4load17h9c7d7c49e8475bc7E
0000000000837130 T _ZN4core4sync6atomic18AtomicPtr$LT$T$GT$4swap17hbc7481ab32ef3b5cE
0000000000837190 T _ZN4core4sync6atomic18AtomicPtr$LT$T$GT$5store17he57005f4520c9791E
00000000008371f0 T _ZN4core4sync6atomic23atomic_compare_exchange17h253d6892b4b88785E
00000000008374e0 T _ZN4core4sync6atomic23atomic_compare_exchange17h96f5cd57740d6efaE
0000000000837830 t _ZN4core4sync6atomic26strongest_failure_ordering17h9865c8aaafc72244E
0000000000837890 T _ZN4core4sync6atomic5fence17hbcd53004ffe6de54E
00000000008378f0 T _ZN4core5alloc6layout10size_align17h46e8e338e2f009cbE
0000000000837940 T _ZN4core5alloc6layout10size_align17h567b89b050342745E
0000000000837990 T _ZN4core5alloc6layout10size_align17h5e789b9c1dbdea57E
00000000008379e0 T _ZN4core5alloc6layout10size_align17h8ec5b48e2355cfbfE
0000000000837a30 T _ZN4core5alloc6layout10size_align17h935f832b48f06120E
0000000000837a80 T _ZN4core5alloc6layout10size_align17hac58ee95f505abc7E
0000000000837ad0 T _ZN4core5alloc6layout10size_align17hbad519a733373069E
0000000000837b20 T _ZN4core5alloc6layout10size_align17he564131fb9ef2b08E
0000000000837b70 T _ZN4core5alloc6layout10size_align17hfd40f4d12b2941cdE
0000000000837bc0 t _ZN4core5alloc6layout6Layout12pad_to_align17hae28a0e3f11bd809E
0000000000837c90 t _ZN4core5alloc6layout6Layout15from_size_align17hd6cf10db177433faE
0000000000837d80 t _ZN4core5alloc6layout6Layout18padding_needed_for17hdda7c6c10d1b8500E
0000000000837e20 T _ZN4core5alloc6layout6Layout25from_size_align_unchecked17h1e380be99dec3c3fE
0000000000837e70 T _ZN4core5alloc6layout6Layout3new17h2b9cae3e513cace3E
0000000000837ec0 T _ZN4core5alloc6layout6Layout3new17hc4ffff473ade0489E
0000000000837f10 T _ZN4core5alloc6layout6Layout3new17hcef8459b502666deE
0000000000837f60 T _ZN4core5alloc6layout6Layout3new17hd75432eeea67b1f7E
0000000000837fb0 T _ZN4core5alloc6layout6Layout3new17hd76628bad89d28c4E
0000000000838000 T _ZN4core5alloc6layout6Layout3new17hdd37db44f4b88dbaE
0000000000838050 T _ZN4core5alloc6layout6Layout3new17heb26e7bb7f0593a8E
00000000008380a0 T _ZN4core5alloc6layout6Layout3new17hf0dccd414e1d6c64E
00000000008380f0 T _ZN4core5alloc6layout6Layout3new17hf3b70a8f30fc1a57E
0000000000838140 T _ZN4core5alloc6layout6Layout4size17h6e8d0da258c98d14E
0000000000838170 T _ZN4core5alloc6layout6Layout5align17h5ca6c7fa8c9c1124E
00000000008381a0 T _ZN4core5alloc6layout6Layout5array17h0692782e7a9f9da2E
0000000000838470 T _ZN4core5alloc6layout6Layout5array17h0ca4af5b91c18dddE
0000000000838740 T _ZN4core5alloc6layout6Layout5array17h0daed93ec2f93966E
0000000000838a10 T _ZN4core5alloc6layout6Layout5array17h282fc7485988757fE
0000000000838ce0 T _ZN4core5alloc6layout6Layout5array17h34bae0a780d2d59aE
0000000000838fb0 T _ZN4core5alloc6layout6Layout5array17hc0d6f9d97a6eec4cE
0000000000839280 T _ZN4core5alloc6layout6Layout5array17hd4bad8d338052424E
0000000000839550 T _ZN4core5alloc6layout6Layout6extend17h565b715d0bdb7fb3E
0000000000839860 t _ZN4core5alloc6layout6Layout6repeat17h28f54ab88f7512c5E
0000000000839a10 T _ZN4core5alloc6layout6Layout8dangling17hea4ea173d2dadbd2E
0000000000839a50 T _ZN4core5alloc6layout6Layout9for_value17h62c0f63cd8d7f9b8E
0000000000839b10 T _ZN4core5alloc6layout6Layout9for_value17ha65340bba33633f0E
0000000000839bd0 T _ZN4core5alloc6layout6Layout9for_value17ha7ce23de03a0f245E
0000000000839c90 T _ZN4core5alloc6layout6Layout9for_value17hcc614fcbb0ffdf32E
0000000000839d50 T _ZN4core5tuple58_$LT$impl$u20$core..cmp..Ord$u20$for$u20$$LP$A$C$B$RP$$GT$3cmp17h5429f46080e7a333E
0000000000839dd0 T _ZN4core7convert3num66_$LT$impl$u20$core..convert..From$LT$u16$GT$$u20$for$u20$usize$GT$4from17hb30b4eb277ec6efeE
0000000000839e00 T _ZN4core7convert3num67_$LT$impl$u20$core..convert..TryFrom$LT$u64$GT$$u20$for$u20$i64$GT$8try_from17h2fe439bfe1ab0b3eE
0000000000839e50 T _ZN50_$LT$T$u20$as$u20$core..convert..From$LT$T$GT$$GT$4from17h9f57022b2e27ee53E
0000000000839e90 T _ZN50_$LT$T$u20$as$u20$core..convert..Into$LT$U$GT$$GT$4into17hcd3374fc92973a4eE
0000000000839ec0 T _ZN3std3ffi5c_str104_$LT$impl$u20$core..convert..From$LT$std..ffi..c_str..NulError$GT$$u20$for$u20$std..io..error..Error$GT$4from17h72e54f44aafe6e57E
0000000000839f10 T _ZN58_$LT$std..io..error..Error$u20$as$u20$core..fmt..Debug$GT$3fmt17hde20b6d575e28df1E
0000000000839f60 t _ZN3std2io5error9ErrorKind6as_str17h4729588550713165E
000000000083a180 T _ZN3std2io5error5Error3new17hccd675a84faca42dE
000000000083a1f0 T _ZN3std2io5error5Error4_new17h9bdfa67149409148E
000000000083a290 T _ZN3std2io5error5Error13last_os_error17ha071e3143689e92cE
000000000083a2d0 T _ZN3std2io5error5Error17from_raw_os_error17h9da1ab17353dc793E
000000000083a320 T _ZN3std2io5error5Error12raw_os_error17h9ed1a58d4232e02dE
000000000083a390 T _ZN3std2io5error5Error7get_ref17h6a2aae5471780f41E
000000000083a410 T _ZN3std2io5error5Error7get_mut17hdf6719af105630d2E
000000000083a490 T _ZN3std2io5error5Error10into_inner17h63048b9f463d659aE
000000000083a520 T _ZN3std2io5error5Error4kind17ha34ecab4bf9b9e96E
000000000083a5b0 T _ZN57_$LT$std..io..error..Repr$u20$as$u20$core..fmt..Debug$GT$3fmt17h69490e5143f779d7E
000000000083a800 T _ZN60_$LT$std..io..error..Error$u20$as$u20$core..fmt..Display$GT$3fmt17ha8dcde42d5a40e22E
000000000083aac0 T _ZN59_$LT$std..io..error..Error$u20$as$u20$std..error..Error$GT$11description17h8f2bdc64c5f3f6b0E
000000000083ab60 T _ZN59_$LT$std..io..error..Error$u20$as$u20$std..error..Error$GT$5cause17hccd21bfd4c12431dE
000000000083abf0 T _ZN59_$LT$std..io..error..Error$u20$as$u20$std..error..Error$GT$6source17h0f9f56b7b99a0665E
000000000083ac80 T _ZN79_$LT$std..sys_common..process..CommandEnv$u20$as$u20$core..default..Default$GT$7default17h5ae20461e4cbde56E
000000000083acd0 T _ZN3std10sys_common7process10CommandEnv3set17h1944ee91d4faca1dE
000000000083adf0 T _ZN3std10sys_common7process10CommandEnv6remove17h89d5e951b84b2daeE
000000000083af00 T _ZN3std10sys_common7process10CommandEnv5clear17h4962225fa0c867f4E
000000000083af30 t _ZN3std10sys_common7process10CommandEnv14maybe_saw_path17h98040b350c22c343E
000000000083afc0 T _ZN74_$LT$std..sys_common..wtf8..Wtf8Buf$u20$as$u20$core..ops..deref..Deref$GT$5deref17h17488765f4adf7c3E
000000000083b000 T _ZN77_$LT$std..sys_common..wtf8..Wtf8Buf$u20$as$u20$core..ops..deref..DerefMut$GT$9deref_mut17ha6c98d21b83d2637E
000000000083b040 T _ZN3std10sys_common4wtf87Wtf8Buf25push_code_point_unchecked17h2d223656c1684cacE
000000000083b0c0 t _ZN3std10sys_common4wtf87Wtf8Buf8as_slice17h5952ab7b34b9b131E
000000000083b110 t _ZN3std10sys_common4wtf87Wtf8Buf12as_mut_slice17hc77e57d217082aedE
000000000083b160 T _ZN92_$LT$std..sys_common..wtf8..Wtf8$u20$as$u20$std..sys_common..AsInner$LT$$u5b$u8$u5d$$GT$$GT$8as_inner17hba7b9c4393337b94E
000000000083b190 T _ZN64_$LT$std..sys_common..wtf8..Wtf8$u20$as$u20$core..fmt..Debug$GT$3fmt17h5f3a68cc7b106297E
000000000083b5d0 t _ZN64_$LT$std..sys_common..wtf8..Wtf8$u20$as$u20$core..fmt..Debug$GT$3fmt17write_str_escaped17h85a6ad0f30256088E
000000000083b720 t _ZN64_$LT$std..sys_common..wtf8..Wtf8$u20$as$u20$core..fmt..Debug$GT$3fmt17write_str_escaped28_$u7b$$u7b$closure$u7d$$u7d$17hbcd325da3e2fcad3E
000000000083b770 T _ZN66_$LT$std..sys_common..wtf8..Wtf8$u20$as$u20$core..fmt..Display$GT$3fmt17hb8b6a004c77fb72eE
000000000083ba80 t _ZN3std10sys_common4wtf84Wtf820from_bytes_unchecked17ha4d531865c210313E
000000000083bad0 t _ZN3std10sys_common4wtf84Wtf824from_mut_bytes_unchecked17h1e571fbb2e9cadafE
000000000083bb20 t _ZN3std10sys_common4wtf84Wtf814next_surrogate17hf3a240a6368523e0E
000000000083bf10 t _ZN3std10sys_common4wtf816decode_surrogate17hf63cda58a3ab3560E
000000000083bf60 T _ZN3std10sys_common4wtf816slice_error_fail17h2952196039c1c752E
000000000083c140 T _ZN3std5alloc20set_alloc_error_hook17ha303153747f74e65E
000000000083c180 T _ZN3std5alloc21take_alloc_error_hook17h137caa857c6a053eE
000000000083c1f0 t _ZN3std5alloc24default_alloc_error_hook17hc9da18f381a6754bE
000000000083c2c0 T rust_oom
000000000083c350 T _ZN59_$LT$std..io..error..Custom$u20$as$u20$core..fmt..Debug$GT$3fmt17ha9e5368ee4e2176aE
000000000083c460 T _ZN66_$LT$std..io..error..ErrorKind$u20$as$u20$core..cmp..PartialEq$GT$2eq17hace50d81d25bf65eE
000000000083c4f0 T _ZN62_$LT$std..io..error..ErrorKind$u20$as$u20$core..fmt..Debug$GT$3fmt17h1c1e953e064b1bf6E
000000000083c9b0 T _ZN73_$LT$std..sys_common..process..CommandEnv$u20$as$u20$core..fmt..Debug$GT$3fmt17h80d3b2347b920e5dE
000000000083cb40 T _ZN3std3sys6hermit5alloc81_$LT$impl$u20$core..alloc..global..GlobalAlloc$u20$for$u20$std..alloc..System$GT$5alloc17h58472f039fbcb3e5E
000000000083cbc0 T _ZN3std3sys6hermit5alloc81_$LT$impl$u20$core..alloc..global..GlobalAlloc$u20$for$u20$std..alloc..System$GT$12alloc_zeroed17hefba93f94c79dfceE
000000000083cc70 T _ZN3std3sys6hermit5alloc81_$LT$impl$u20$core..alloc..global..GlobalAlloc$u20$for$u20$std..alloc..System$GT$7dealloc17h9fd556ec0f752355E
000000000083ccf0 T _ZN3std3sys6hermit5alloc81_$LT$impl$u20$core..alloc..global..GlobalAlloc$u20$for$u20$std..alloc..System$GT$7realloc17ha870a2397ea3b92dE
000000000083cda0 T _ZN3std3sys6hermit4args4init17h8e333d43d3d0c348E
000000000083cde0 T _ZN3std3sys6hermit4args7cleanup17hbf56e51c690fd486E
000000000083cdf0 T _ZN3std3sys6hermit4args4args17hea1bc8f800b4b4b9E
000000000083ce20 T _ZN3std3sys6hermit4args4Args11inner_debug17h45426fd413d8ce07E
000000000083ce60 T _ZN87_$LT$std..sys..hermit..args..Args$u20$as$u20$core..iter..traits..iterator..Iterator$GT$4next17hcb08b0bd9020a799E
000000000083cea0 T _ZN87_$LT$std..sys..hermit..args..Args$u20$as$u20$core..iter..traits..iterator..Iterator$GT$9size_hint17h56f7259fb5804fabE
000000000083cee0 T _ZN98_$LT$std..sys..hermit..args..Args$u20$as$u20$core..iter..traits..exact_size..ExactSizeIterator$GT$3len17h810c6d476cf5bfbbE
000000000083cf10 T _ZN102_$LT$std..sys..hermit..args..Args$u20$as$u20$core..iter..traits..double_ended..DoubleEndedIterator$GT$9next_back17ha21a49d129829e34E
000000000083cf50 t _ZN3std3sys6hermit2fs4cstr17h5e150d0829fd0c08E
000000000083d0c0 T _ZN3std3sys6hermit2fs8FileAttr4size17hf455132804770bc9E
000000000083d0e0 T _ZN3std3sys6hermit2fs8FileAttr4perm17h230b3c84828c6934E
000000000083d100 T _ZN3std3sys6hermit2fs8FileAttr9file_type17h9c02886844ea4b20E
000000000083d120 T _ZN3std3sys6hermit2fs8FileAttr8modified17he0dca3f1093ca2d2E
000000000083d140 T _ZN3std3sys6hermit2fs8FileAttr8accessed17hf60ff8227e598ba4E
000000000083d160 T _ZN3std3sys6hermit2fs8FileAttr7created17h80bc5d728565277aE
000000000083d180 T _ZN69_$LT$std..sys..hermit..fs..FileAttr$u20$as$u20$core..clone..Clone$GT$5clone17h8e69b6cf6b0fa7b6E
000000000083d1a0 T _ZN3std3sys6hermit2fs15FilePermissions8readonly17h5b4bfc980c6c7c79E
000000000083d1c0 T _ZN3std3sys6hermit2fs15FilePermissions12set_readonly17he482b32682a29309E
000000000083d1f0 T _ZN76_$LT$std..sys..hermit..fs..FilePermissions$u20$as$u20$core..clone..Clone$GT$5clone17h58ec5c3bce401f13E
000000000083d210 T _ZN78_$LT$std..sys..hermit..fs..FilePermissions$u20$as$u20$core..cmp..PartialEq$GT$2eq17hfc390e6a911ca28fE
000000000083d240 T _ZN74_$LT$std..sys..hermit..fs..FilePermissions$u20$as$u20$core..fmt..Debug$GT$3fmt17h61def90262ada14fE
000000000083d270 T _ZN3std3sys6hermit2fs8FileType6is_dir17hbeeba87b66248d2fE
000000000083d290 T _ZN3std3sys6hermit2fs8FileType7is_file17h20ad6fad5e412b5cE
000000000083d2b0 T _ZN3std3sys6hermit2fs8FileType10is_symlink17h88715b2c1e227d58E
000000000083d2d0 T _ZN69_$LT$std..sys..hermit..fs..FileType$u20$as$u20$core..clone..Clone$GT$5clone17h4adaa1c8225e4d03E
000000000083d2f0 T _ZN71_$LT$std..sys..hermit..fs..FileType$u20$as$u20$core..cmp..PartialEq$GT$2eq17h6cce5e4b09fa54b1E
000000000083d320 T _ZN67_$LT$std..sys..hermit..fs..FileType$u20$as$u20$core..fmt..Debug$GT$3fmt17hfd86fee324ed57b7E
000000000083d350 T _ZN66_$LT$std..sys..hermit..fs..ReadDir$u20$as$u20$core..fmt..Debug$GT$3fmt17h4b8dcc26aaf32d33E
000000000083d380 T _ZN88_$LT$std..sys..hermit..fs..ReadDir$u20$as$u20$core..iter..traits..iterator..Iterator$GT$4next17hb191cff0f329077dE
000000000083d3a0 T _ZN3std3sys6hermit2fs8DirEntry4path17hc3c4625eeb935599E
000000000083d3c0 T _ZN3std3sys6hermit2fs8DirEntry9file_name17h2ce2090135ffc283E
000000000083d3e0 T _ZN3std3sys6hermit2fs8DirEntry8metadata17h384b0773fc1d7d9eE
000000000083d400 T _ZN3std3sys6hermit2fs8DirEntry9file_type17hb66e55b92ce2c872E
000000000083d420 T _ZN3std3sys6hermit2fs11OpenOptions3new17hbbc0e650f2ea3ca8E
000000000083d470 T _ZN3std3sys6hermit2fs11OpenOptions4read17h570d56b1989288b7E
000000000083d4b0 T _ZN3std3sys6hermit2fs11OpenOptions5write17h62d943a9993d4c5cE
000000000083d4f0 T _ZN3std3sys6hermit2fs11OpenOptions6append17h2797f373c6b26060E
000000000083d530 T _ZN3std3sys6hermit2fs11OpenOptions8truncate17hf6a1c35f62692945E
000000000083d570 T _ZN3std3sys6hermit2fs11OpenOptions6create17h1ca7bd786d876813E
000000000083d5b0 T _ZN3std3sys6hermit2fs11OpenOptions10create_new17h13fb4a2fbb1ffd33E
000000000083d5f0 t _ZN3std3sys6hermit2fs11OpenOptions15get_access_mode17h73cf39fa0cd14116E
000000000083d710 t _ZN3std3sys6hermit2fs11OpenOptions17get_creation_mode17hbbaeeecab453c634E
000000000083d900 T _ZN3std3sys6hermit2fs4File4open17h7e93b382e86bdf67E
000000000083da50 t _ZN3std3sys6hermit2fs4File6open_c17h0e36f77e31044f43E
000000000083dd90 T _ZN3std3sys6hermit2fs4File9file_attr17h8c57eec6a5b14158E
000000000083dde0 T _ZN3std3sys6hermit2fs4File5fsync17h04214dda4700f582E
000000000083de30 T _ZN3std3sys6hermit2fs4File8datasync17hd8fef4015de5cbf0E
000000000083de70 T _ZN3std3sys6hermit2fs4File8truncate17hbb62888f7cb86bbbE
000000000083ded0 T _ZN3std3sys6hermit2fs4File4read17hbc2684b2347be639E
000000000083df30 T _ZN3std3sys6hermit2fs4File13read_vectored17hc000e7942350ad87E
000000000083dfa0 T _ZN3std3sys6hermit2fs4File13read_vectored28_$u7b$$u7b$closure$u7d$$u7d$17hce85e3f7bfcca12cE
000000000083e000 T _ZN3std3sys6hermit2fs4File5write17habbb9bf0df7ffc4eE
000000000083e060 T _ZN3std3sys6hermit2fs4File14write_vectored17h3f9042e13d04492bE
000000000083e0d0 T _ZN3std3sys6hermit2fs4File14write_vectored28_$u7b$$u7b$closure$u7d$$u7d$17h3704cfc51ce45c8fE
000000000083e130 T _ZN3std3sys6hermit2fs4File5flush17he16b42974d06ab6fE
000000000083e170 T _ZN3std3sys6hermit2fs4File4seek17h27bab85d66f01f54E
000000000083e1d0 T _ZN3std3sys6hermit2fs4File9duplicate17hf9168fe5daf40457E
000000000083e230 T _ZN3std3sys6hermit2fs4File15set_permissions17h885359f14c946a94E
000000000083e280 T _ZN3std3sys6hermit2fs4File7diverge17h316ca58e6aba1038E
000000000083e2a0 T _ZN3std3sys6hermit2fs10DirBuilder3new17h581e5ff1b4841b9bE
000000000083e2b0 T _ZN3std3sys6hermit2fs10DirBuilder5mkdir17h0dd0a13ea882b309E
000000000083e300 T _ZN3std3sys6hermit2fs7readdir17h49f4a3b2a8c4dc49E
000000000083e350 T _ZN3std3sys6hermit2fs6unlink17h04eca1cbe333b086E
000000000083e570 T _ZN3std3sys6hermit2fs6rename17h4cdfe0128d8fcba0E
000000000083e5d0 T _ZN3std3sys6hermit2fs8set_perm17h28db1d66ecde2eb3E
000000000083e600 T _ZN3std3sys6hermit2fs5rmdir17hc75102ce363f6b41E
000000000083e650 T _ZN3std3sys6hermit2fs14remove_dir_all17h58aed6497db5957dE
000000000083e6a0 T _ZN3std3sys6hermit2fs8readlink17h8299be1e5c1062bfE
000000000083e6f0 T _ZN3std3sys6hermit2fs7symlink17hcfc473f548e061d3E
000000000083e750 T _ZN3std3sys6hermit2fs4link17h20379e562fe4e561E
000000000083e7b0 T _ZN3std3sys6hermit2fs4stat17h6d3b828a6f5bd7bcE
000000000083e800 T _ZN3std3sys6hermit2fs5lstat17h15e9c061f1fe777eE
000000000083e850 T _ZN3std3sys6hermit2fs12canonicalize17h6bb0736882d93eaeE
000000000083e8a0 T _ZN3std3sys6hermit6rwlock6RWLock3new17hb0548c7ea3d4d836E
000000000083e8d0 T _ZN3std3sys6hermit6rwlock6RWLock4read17h3dce209f22d3085cE
000000000083e900 T _ZN3std3sys6hermit6rwlock6RWLock5write17h32cd244531f9ae1bE
000000000083e930 T _ZN3std3sys6hermit6rwlock6RWLock11read_unlock17h96250cc2ece4db01E
000000000083e960 T _ZN3std3sys6hermit6rwlock6RWLock12write_unlock17h2060ba0ec2b5d704E
000000000083e990 t _ZN3std3sys6hermit6thread6Thread15new_with_coreid17h5a619d9ad3f026f3E
000000000083eb20 t _ZN3std3sys6hermit6thread6Thread15new_with_coreid12thread_start17h9c218ba6a2a6dda3E
000000000083eb60 T _ZN3std3sys6hermit6thread6Thread3new17h899149b41ea496f2E
000000000083ebc0 T _ZN3std3sys6hermit6thread6Thread9yield_now17h96de2933ee7a00caE
000000000083ebd0 T _ZN3std3sys6hermit6thread6Thread5sleep17ha84d05ec263433c9E
000000000083ec20 T _ZN3std3sys6hermit6thread6Thread4join17heaaf3d70309230b4E
000000000083ec50 T _ZN3std3sys6hermit4time8Timespec4zero17h5201a120f05d6ed1E
000000000083ec90 t _ZN3std3sys6hermit4time8Timespec12sub_timespec17h3df4541ccc20ac47E
000000000083ef10 t _ZN3std3sys6hermit4time8Timespec20checked_add_duration17hbe76888b60859061E
000000000083f180 T _ZN3std3sys6hermit4time8Timespec20checked_add_duration28_$u7b$$u7b$closure$u7d$$u7d$17h7a6b27c09620a6fbE
000000000083f1d0 t _ZN3std3sys6hermit4time8Timespec20checked_sub_duration17h6610e0aeaa07729dE
000000000083f450 T _ZN3std3sys6hermit4time8Timespec20checked_sub_duration28_$u7b$$u7b$closure$u7d$$u7d$17h37671981bc6ada57E
000000000083f4a0 T _ZN73_$LT$std..sys..hermit..time..Timespec$u20$as$u20$core..cmp..PartialEq$GT$2eq17h8ed8764ed79fe38dE
000000000083f500 T _ZN74_$LT$std..sys..hermit..time..Timespec$u20$as$u20$core..cmp..PartialOrd$GT$11partial_cmp17h9e23e1fdb4c39492E
000000000083f550 T _ZN67_$LT$std..sys..hermit..time..Timespec$u20$as$u20$core..cmp..Ord$GT$3cmp17h932c91900597b4c2E
000000000083f5b0 T _ZN3std3sys6hermit4time7Instant3now17h425f3459cb524ae1E
000000000083f610 T _ZN3std3sys6hermit4time7Instant18actually_monotonic17h225f8833eb97c170E
000000000083f630 T _ZN3std3sys6hermit4time7Instant19checked_sub_instant17hb50dcdb21ea9f1c1E
000000000083f690 T _ZN3std3sys6hermit4time7Instant20checked_add_duration17h189cfc2b74fa3f97E
000000000083f750 T _ZN3std3sys6hermit4time7Instant20checked_sub_duration17h20a0551a5b0b893bE
000000000083f810 T _ZN3std3sys6hermit4time10SystemTime3now17he0f1fc521f3a0620E
000000000083f870 T _ZN3std3sys6hermit4time10SystemTime8sub_time17ha661e00a19433d01E
000000000083f8c0 T _ZN3std3sys6hermit4time10SystemTime20checked_add_duration17h0283e604d2047e39E
000000000083f980 T _ZN3std3sys6hermit4time10SystemTime20checked_sub_duration17hd970bb08c93c3ef0E
000000000083fa40 T _ZN63_$LT$std..sys..hermit..fs..File$u20$as$u20$core..fmt..Debug$GT$3fmt17he9815a2213baefaeE
000000000083fad0 T _ZN70_$LT$std..sys..hermit..fs..OpenOptions$u20$as$u20$core..fmt..Debug$GT$3fmt17h329d57d62fceb62dE
000000000083fe60 T _ZN69_$LT$std..sys..hermit..fs..DirBuilder$u20$as$u20$core..fmt..Debug$GT$3fmt17hd4e3fcdf38c6c370E
000000000083fec0 T _ZN69_$LT$std..sys..hermit..time..Timespec$u20$as$u20$core..fmt..Debug$GT$3fmt17hc6db0c673c2d1e8eE
000000000083ff70 T _ZN55_$LT$std..alloc..System$u20$as$u20$core..fmt..Debug$GT$3fmt17h8eeb58021c35431aE
000000000083ffd0 T _ZN71_$LT$std..sys..hermit..time..SystemTime$u20$as$u20$core..fmt..Debug$GT$3fmt17hd84f9e6d27a136bdE
0000000000840080 T _ZN68_$LT$std..sys..hermit..time..Instant$u20$as$u20$core..fmt..Debug$GT$3fmt17hc336a1ebabdfdb92E
0000000000840130 T _ZN66_$LT$std..sys..hermit..time..Instant$u20$as$u20$core..cmp..Ord$GT$3cmp17ha1ffd9af3d4f0328E
0000000000840190 T _ZN73_$LT$std..sys..hermit..time..Instant$u20$as$u20$core..cmp..PartialOrd$GT$11partial_cmp17h5c3fff2948829d7cE
0000000000840210 T _ZN4core10intrinsics11write_bytes17h2a3c9a60424a93e2E
0000000000840290 T _ZN4core10intrinsics11write_bytes17h65830f6e5c422b33E
0000000000840310 T _ZN4core10intrinsics11write_bytes17h7be5b2a1033b6d12E
0000000000840390 T _ZN4core10intrinsics11write_bytes17h8f2578b3c9c80b5eE
0000000000840410 T _ZN4core10intrinsics11write_bytes17he07fe088c1a01192E
0000000000840490 T _ZN4core10intrinsics11write_bytes17he322229990e9b774E
0000000000840510 T _ZN4core10intrinsics17is_nonoverlapping17h0a8ba7407c8b1e0eE
0000000000840630 T _ZN4core10intrinsics17is_nonoverlapping17h0b3171e82f143fa0E
0000000000840750 T _ZN4core10intrinsics17is_nonoverlapping17h0de24311e8b112dbE
0000000000840870 T _ZN4core10intrinsics17is_nonoverlapping17h110988cf81613713E
0000000000840990 T _ZN4core10intrinsics17is_nonoverlapping17h140672a3d5ad4da5E
0000000000840ab0 T _ZN4core10intrinsics17is_nonoverlapping17h1578a2fb9c0dd94dE
0000000000840bd0 T _ZN4core10intrinsics17is_nonoverlapping17h2962f100fbc6c4c8E
0000000000840cf0 T _ZN4core10intrinsics17is_nonoverlapping17h2a7b54393de4b5c5E
0000000000840e10 T _ZN4core10intrinsics17is_nonoverlapping17h2b56551420daed8eE
0000000000840f30 T _ZN4core10intrinsics17is_nonoverlapping17h3196a0d2eda7c2beE
0000000000841050 T _ZN4core10intrinsics17is_nonoverlapping17h39bd97c6ab213222E
0000000000841170 T _ZN4core10intrinsics17is_nonoverlapping17h3b9acc054523ba28E
0000000000841290 T _ZN4core10intrinsics17is_nonoverlapping17h4042a594afa8abdeE
00000000008413b0 T _ZN4core10intrinsics17is_nonoverlapping17h404ae8779c407986E
00000000008414d0 T _ZN4core10intrinsics17is_nonoverlapping17h47eecae6169fa1f2E
00000000008415f0 T _ZN4core10intrinsics17is_nonoverlapping17h52ab948653d0ed26E
0000000000841710 T _ZN4core10intrinsics17is_nonoverlapping17h55fa203d7442bee9E
0000000000841830 T _ZN4core10intrinsics17is_nonoverlapping17h566bac30a098f253E
0000000000841950 T _ZN4core10intrinsics17is_nonoverlapping17h5a25184390454de4E
0000000000841a70 T _ZN4core10intrinsics17is_nonoverlapping17h5f1238ed37077bcbE
0000000000841b90 T _ZN4core10intrinsics17is_nonoverlapping17h6060be378bdf3d28E
0000000000841cb0 T _ZN4core10intrinsics17is_nonoverlapping17h61dc7a9c93dc84bcE
0000000000841dd0 T _ZN4core10intrinsics17is_nonoverlapping17h62e32310aa1d7d85E
0000000000841ef0 T _ZN4core10intrinsics17is_nonoverlapping17h65d72d78a595c073E
0000000000842010 T _ZN4core10intrinsics17is_nonoverlapping17h6fc664d6cd34ee25E
0000000000842130 T _ZN4core10intrinsics17is_nonoverlapping17h70f916a16f2cd14aE
0000000000842250 T _ZN4core10intrinsics17is_nonoverlapping17h7d536a57f47f681fE
0000000000842370 T _ZN4core10intrinsics17is_nonoverlapping17h7da5e7c9a8b9c36bE
0000000000842490 T _ZN4core10intrinsics17is_nonoverlapping17h919a579bd52a7b40E
00000000008425b0 T _ZN4core10intrinsics17is_nonoverlapping17h9e0c329e4ac633e8E
00000000008426d0 T _ZN4core10intrinsics17is_nonoverlapping17ha25c5565a9b2f577E
00000000008427f0 T _ZN4core10intrinsics17is_nonoverlapping17ha34a76aa76aca5b4E
0000000000842910 T _ZN4core10intrinsics17is_nonoverlapping17ha3fa2a6458c863f1E
0000000000842a30 T _ZN4core10intrinsics17is_nonoverlapping17haadd7c9f0e349edbE
0000000000842b50 T _ZN4core10intrinsics17is_nonoverlapping17hba6588283d1d88f3E
0000000000842c70 T _ZN4core10intrinsics17is_nonoverlapping17hbc3b18f8d8779298E
0000000000842d90 T _ZN4core10intrinsics17is_nonoverlapping17hca72626bf9555046E
0000000000842eb0 T _ZN4core10intrinsics17is_nonoverlapping17hcacfe3825171e5b5E
0000000000842fd0 T _ZN4core10intrinsics17is_nonoverlapping17hdb2b2e35cb7f659bE
00000000008430f0 T _ZN4core10intrinsics17is_nonoverlapping17he53c196c4d60cc7dE
0000000000843210 T _ZN4core10intrinsics17is_nonoverlapping17he6a9b17f867d78e6E
0000000000843330 T _ZN4core10intrinsics17is_nonoverlapping17he81797019853013aE
0000000000843450 T _ZN4core10intrinsics17is_nonoverlapping17heff1a16a4a9f241aE
0000000000843570 T _ZN4core10intrinsics17is_nonoverlapping17hf728ce30eecda755E
0000000000843690 T _ZN4core10intrinsics17is_nonoverlapping17hfbdf37b6453e4292E
00000000008437b0 T _ZN4core10intrinsics19copy_nonoverlapping17h0ccf388100c6a97cE
00000000008438a0 T _ZN4core10intrinsics19copy_nonoverlapping17h0f56de45526fe26aE
0000000000843990 T _ZN4core10intrinsics19copy_nonoverlapping17h1d8763ade2cda7acE
0000000000843a80 T _ZN4core10intrinsics19copy_nonoverlapping17h2ad91acd7a27b04bE
0000000000843b70 T _ZN4core10intrinsics19copy_nonoverlapping17h322f5752d3f7ed3cE
0000000000843c60 T _ZN4core10intrinsics19copy_nonoverlapping17h3c89a4c7d7b4c541E
0000000000843d50 T _ZN4core10intrinsics19copy_nonoverlapping17h3db3923ae3813799E
0000000000843e40 T _ZN4core10intrinsics19copy_nonoverlapping17h3ed1ab3bf0f0b628E
0000000000843f30 T _ZN4core10intrinsics19copy_nonoverlapping17h46b410fb76df17f0E
0000000000844020 T _ZN4core10intrinsics19copy_nonoverlapping17h52074b26d99de0b0E
0000000000844110 T _ZN4core10intrinsics19copy_nonoverlapping17h521888d2b1a4ed9eE
0000000000844200 T _ZN4core10intrinsics19copy_nonoverlapping17h577541859cb57eb0E
00000000008442f0 T _ZN4core10intrinsics19copy_nonoverlapping17h592e4c8c9d6986f2E
00000000008443e0 T _ZN4core10intrinsics19copy_nonoverlapping17h59d34e353a3bb147E
00000000008444d0 T _ZN4core10intrinsics19copy_nonoverlapping17h5abaed76a45854beE
00000000008445c0 T _ZN4core10intrinsics19copy_nonoverlapping17h5e10abc3eea8c159E
00000000008446b0 T _ZN4core10intrinsics19copy_nonoverlapping17h63c4826c95da299dE
00000000008447a0 T _ZN4core10intrinsics19copy_nonoverlapping17h6907d2cd4c8e2d08E
0000000000844890 T _ZN4core10intrinsics19copy_nonoverlapping17h69cbc07544d8db7eE
0000000000844980 T _ZN4core10intrinsics19copy_nonoverlapping17h6c3ae457274ed1bbE
0000000000844a70 T _ZN4core10intrinsics19copy_nonoverlapping17h7280ebadcb5c0197E
0000000000844b60 T _ZN4core10intrinsics19copy_nonoverlapping17h76b9b382241acf6aE
0000000000844c50 T _ZN4core10intrinsics19copy_nonoverlapping17h77b9a471346353e6E
0000000000844d40 T _ZN4core10intrinsics19copy_nonoverlapping17h7bca594dfc431323E
0000000000844e30 T _ZN4core10intrinsics19copy_nonoverlapping17h87c166005c0e9b96E
0000000000844f20 T _ZN4core10intrinsics19copy_nonoverlapping17h88fb44f4298286ceE
0000000000845010 T _ZN4core10intrinsics19copy_nonoverlapping17h92b9c5b30cd81c77E
0000000000845100 T _ZN4core10intrinsics19copy_nonoverlapping17h964aad7948081544E
00000000008451f0 T _ZN4core10intrinsics19copy_nonoverlapping17h9850e24d0238f1f9E
00000000008452e0 T _ZN4core10intrinsics19copy_nonoverlapping17h9e8b047b86cc6c61E
00000000008453d0 T _ZN4core10intrinsics19copy_nonoverlapping17ha536433be540d807E
00000000008454c0 T _ZN4core10intrinsics19copy_nonoverlapping17ha74e43de03434058E
00000000008455b0 T _ZN4core10intrinsics19copy_nonoverlapping17ha898d89d811e2535E
00000000008456a0 T _ZN4core10intrinsics19copy_nonoverlapping17habf2742de1b621e3E
0000000000845790 T _ZN4core10intrinsics19copy_nonoverlapping17haddbdacccf8bd051E
0000000000845880 T _ZN4core10intrinsics19copy_nonoverlapping17hb37703db48a13b2aE
0000000000845970 T _ZN4core10intrinsics19copy_nonoverlapping17hb7710d9de5184f2cE
0000000000845a60 T _ZN4core10intrinsics19copy_nonoverlapping17hd01df3db67cf0884E
0000000000845b50 T _ZN4core10intrinsics19copy_nonoverlapping17hd7fa05964905d85eE
0000000000845c40 T _ZN4core10intrinsics19copy_nonoverlapping17hd99de855568292b7E
0000000000845d30 T _ZN4core10intrinsics19copy_nonoverlapping17heb3e1a461b5d4d8aE
0000000000845e20 T _ZN4core10intrinsics19copy_nonoverlapping17hf295141fd25c9c95E
0000000000845f10 T _ZN4core10intrinsics19copy_nonoverlapping17hf401e49dfb510945E
0000000000846000 T _ZN4core10intrinsics19copy_nonoverlapping17hf75303d9a8a5a9e8E
00000000008460f0 T _ZN4core10intrinsics19copy_nonoverlapping17hf7e2866ac27c5e7bE
00000000008461e0 T _ZN4core10intrinsics23is_aligned_and_not_null17h026e98de0dbadc42E
0000000000846280 T _ZN4core10intrinsics23is_aligned_and_not_null17h04c04407df19b964E
0000000000846320 T _ZN4core10intrinsics23is_aligned_and_not_null17h08bf72d36153e7a2E
00000000008463c0 T _ZN4core10intrinsics23is_aligned_and_not_null17h09ea3dea3d896d5dE
0000000000846460 T _ZN4core10intrinsics23is_aligned_and_not_null17h0c433b0c97df02e9E
0000000000846500 T _ZN4core10intrinsics23is_aligned_and_not_null17h1289b2be019d2984E
00000000008465a0 T _ZN4core10intrinsics23is_aligned_and_not_null17h194751e94ae70251E
0000000000846640 T _ZN4core10intrinsics23is_aligned_and_not_null17h1c4186406dd0a924E
00000000008466e0 T _ZN4core10intrinsics23is_aligned_and_not_null17h1d9436edff94a721E
0000000000846780 T _ZN4core10intrinsics23is_aligned_and_not_null17h1f0a3a975ae98c82E
0000000000846820 T _ZN4core10intrinsics23is_aligned_and_not_null17h207ac04eddb5c4eeE
00000000008468c0 T _ZN4core10intrinsics23is_aligned_and_not_null17h26df12d3104ea444E
0000000000846960 T _ZN4core10intrinsics23is_aligned_and_not_null17h2bb733f2837bbb69E
0000000000846a00 T _ZN4core10intrinsics23is_aligned_and_not_null17h2faa35e189ecf7c3E
0000000000846aa0 T _ZN4core10intrinsics23is_aligned_and_not_null17h41350415de883797E
0000000000846b40 T _ZN4core10intrinsics23is_aligned_and_not_null17h419a3207110ff281E
0000000000846be0 T _ZN4core10intrinsics23is_aligned_and_not_null17h4d596c3f89ea0be5E
0000000000846c80 T _ZN4core10intrinsics23is_aligned_and_not_null17h4ea708d825b7359fE
0000000000846d20 T _ZN4core10intrinsics23is_aligned_and_not_null17h526c0924dc2d1cdfE
0000000000846dc0 T _ZN4core10intrinsics23is_aligned_and_not_null17h5884b880202880e3E
0000000000846e60 T _ZN4core10intrinsics23is_aligned_and_not_null17h5fa008cf47842ca5E
0000000000846f00 T _ZN4core10intrinsics23is_aligned_and_not_null17h617f04d5488ab67dE
0000000000846fa0 T _ZN4core10intrinsics23is_aligned_and_not_null17h62b43123bafd1789E
0000000000847040 T _ZN4core10intrinsics23is_aligned_and_not_null17h7602463497e5e556E
00000000008470e0 T _ZN4core10intrinsics23is_aligned_and_not_null17h7f709230d6542fd5E
0000000000847180 T _ZN4core10intrinsics23is_aligned_and_not_null17h868686a12361046bE
0000000000847220 T _ZN4core10intrinsics23is_aligned_and_not_null17h872b95a59de7e306E
00000000008472c0 T _ZN4core10intrinsics23is_aligned_and_not_null17h89cfebe65aa6d74dE
0000000000847360 T _ZN4core10intrinsics23is_aligned_and_not_null17h922a8588e7f2aa99E
0000000000847400 T _ZN4core10intrinsics23is_aligned_and_not_null17h92302191811e1427E
00000000008474a0 T _ZN4core10intrinsics23is_aligned_and_not_null17h98b01afd329e9c9fE
0000000000847540 T _ZN4core10intrinsics23is_aligned_and_not_null17h9d9760ac51ddecdbE
00000000008475e0 T _ZN4core10intrinsics23is_aligned_and_not_null17h9e04be457090592eE
0000000000847680 T _ZN4core10intrinsics23is_aligned_and_not_null17haaa84b176d5e3266E
0000000000847720 T _ZN4core10intrinsics23is_aligned_and_not_null17hb624c66e6aef3fc0E
00000000008477c0 T _ZN4core10intrinsics23is_aligned_and_not_null17hbb96fbaec13b88c9E
0000000000847860 T _ZN4core10intrinsics23is_aligned_and_not_null17hc321116d1e656e1cE
0000000000847900 T _ZN4core10intrinsics23is_aligned_and_not_null17hc3216d37b6c1d570E
00000000008479a0 T _ZN4core10intrinsics23is_aligned_and_not_null17hc8fe772382d0b02aE
0000000000847a40 T _ZN4core10intrinsics23is_aligned_and_not_null17hcf967d665ac0896bE
0000000000847ae0 T _ZN4core10intrinsics23is_aligned_and_not_null17hd8ad605c826c7099E
0000000000847b80 T _ZN4core10intrinsics23is_aligned_and_not_null17hdc8998a2e3b08325E
0000000000847c20 T _ZN4core10intrinsics23is_aligned_and_not_null17hdce93b07464a56aaE
0000000000847cc0 T _ZN4core10intrinsics23is_aligned_and_not_null17he5d2260e02eb99caE
0000000000847d60 T _ZN4core10intrinsics23is_aligned_and_not_null17hebb5f5837d5ae110E
0000000000847e00 T _ZN4core10intrinsics23is_aligned_and_not_null17hec3e5509e7019c29E
0000000000847ea0 T _ZN4core10intrinsics23is_aligned_and_not_null17hecb78c14cd46e371E
0000000000847f40 T _ZN4core10intrinsics23is_aligned_and_not_null17hf6a20e5aa49f96c5E
0000000000847fe0 T _ZN4core10intrinsics23is_aligned_and_not_null17hf8241b3ff50fd067E
0000000000848080 T _ZN4core10intrinsics23is_aligned_and_not_null17hfeec6fc2d8c0bf51E
0000000000848120 T _ZN4core10intrinsics23is_aligned_and_not_null17hffab5f7421b32d0aE
00000000008481c0 T _ZN4core10intrinsics4copy17h0537b23c866142f3E
0000000000848280 T _ZN4core10intrinsics4copy17h17be61f72d6313caE
0000000000848330 T _ZN4core10intrinsics4copy17h7343dee543cf838fE
00000000008483e0 T _ZN4core10intrinsics4copy17h9f0b8d4775bde8aaE
00000000008484a0 T _ZN42_$LT$$RF$T$u20$as$u20$core..fmt..Debug$GT$3fmt17h8e0549b141041357E
00000000008484f0 T _ZN42_$LT$$RF$T$u20$as$u20$core..fmt..Debug$GT$3fmt17hbecc1f124b7e9e5fE
0000000000848540 T _ZN42_$LT$$RF$T$u20$as$u20$core..fmt..Debug$GT$3fmt17hc1e160763bebebf2E
0000000000848590 T _ZN4core3mem10needs_drop17h00f0f6484e7d6257E
00000000008485c0 T _ZN4core3mem10needs_drop17h1bfee9410afda1d2E
00000000008485f0 T _ZN4core3mem10needs_drop17h28f10e299ec6d7d9E
0000000000848620 T _ZN4core3mem10needs_drop17h63c77abf3b401072E
0000000000848650 T _ZN4core3mem10needs_drop17hff2de0af53630704E
0000000000848680 T _ZN4core3mem11size_of_val17h045f845e153eb5e4E
00000000008486c0 T _ZN4core3mem11size_of_val17h0f30e129b21c243eE
0000000000848700 T _ZN4core3mem11size_of_val17h12aeb1d2047e9139E
0000000000848740 T _ZN4core3mem11size_of_val17h225a104bbf8fc6bbE
0000000000848780 T _ZN4core3mem11size_of_val17h6632e57ae05fc072E
00000000008487c0 T _ZN4core3mem11size_of_val17h7a2c37c6420dc028E
0000000000848800 T _ZN4core3mem11size_of_val17hbb8559794cf11fddE
0000000000848840 T _ZN4core3mem12align_of_val17h1cd807860bb3498dE
0000000000848870 T _ZN4core3mem12align_of_val17hd0ae5f0f8077ee71E
00000000008488a0 T _ZN4core3mem12align_of_val17he5dfe0dc406a0251E
00000000008488d0 T _ZN4core3mem12align_of_val17hf15081a93694443eE
0000000000848900 T _ZN4core3mem13manually_drop21ManuallyDrop$LT$T$GT$4take17h63dd54830336cd00E
0000000000848930 T _ZN4core3mem16min_align_of_val17h08a701d6e2ea5c88E
0000000000848970 T _ZN4core3mem16min_align_of_val17h6c358f18f0bc2932E
00000000008489b0 T _ZN4core3mem16min_align_of_val17h8d4e2d43ee2fab0aE
00000000008489f0 T _ZN4core3mem16min_align_of_val17hb5650b39595e3c5cE
0000000000848a30 T _ZN4core3mem4drop17h09e90849c7e4b9c5E
0000000000848a50 T _ZN4core3mem4drop17h0c84b2ee503b5536E
0000000000848a80 T _ZN4core3mem4drop17h20138695915756bcE
0000000000848aa0 T _ZN4core3mem4drop17h2365078be52e7d9fE
0000000000848ae0 T _ZN4core3mem4drop17h27c33c5b397fe2c3E
0000000000848b00 T _ZN4core3mem4drop17h5d1cdb95347ac080E
0000000000848b20 T _ZN4core3mem4drop17h690b82e0076d6662E
0000000000848b40 T _ZN4core3mem4drop17h7042a045c6a44f84E
0000000000848b70 T _ZN4core3mem4drop17h70e24ec3a5e80621E
0000000000848b90 T _ZN4core3mem4drop17h7345f408c6057f8fE
0000000000848bc0 T _ZN4core3mem4drop17h7d8f7f7908b41f9bE
0000000000848bf0 T _ZN4core3mem4drop17h8261b856088b3f92E
0000000000848c20 T _ZN4core3mem4drop17h9c5e1ff2a16fd49fE
0000000000848c40 T _ZN4core3mem4drop17hbe4312eef7778585E
0000000000848c60 T _ZN4core3mem4drop17hd3e0d57fe0d87632E
0000000000848c80 T _ZN4core3mem4drop17hd70e4237fa9e70fcE
0000000000848ca0 T _ZN4core3mem4drop17hdb1b1c4c75d79918E
0000000000848cd0 T _ZN4core3mem4drop17hdc201ab0c2f06ca3E
0000000000848d00 T _ZN4core3mem4drop17hde54b4522bbb1d0dE
0000000000848d20 T _ZN4core3mem4drop17he129690a60cd01beE
0000000000848d40 T _ZN4core3mem4drop17he7984c5721acd047E
0000000000848d60 T _ZN4core3mem4drop17he9e5a900152e3fecE
0000000000848d80 T _ZN4core3mem4drop17hf06ea6234bf298f0E
0000000000848db0 T _ZN4core3mem4drop17hfefa1e31702b04d0E
0000000000848de0 T _ZN4core3mem4swap17h1c06a616f05ab931E
0000000000848e20 T _ZN4core3mem4swap17h1f2dc2cb6d5c0613E
0000000000848e60 T _ZN4core3mem4swap17h299969623707fe23E
0000000000848ea0 T _ZN4core3mem4swap17h32fb78ddbd1de16bE
0000000000848ee0 T _ZN4core3mem4swap17h3a47bffe22e934adE
0000000000848f20 T _ZN4core3mem4swap17h45e720b7fadd6b44E
0000000000848f60 T _ZN4core3mem4swap17h52679e59d263f361E
0000000000848fa0 T _ZN4core3mem4swap17h57accdd66a572032E
0000000000848fe0 T _ZN4core3mem4swap17h5e9c7c27d85ba465E
0000000000849020 T _ZN4core3mem4swap17h640f8e3c363ee0d7E
0000000000849060 T _ZN4core3mem4swap17h87023c4a9282bb16E
00000000008490a0 T _ZN4core3mem4swap17h8fd62be3cb52f15fE
00000000008490e0 T _ZN4core3mem4swap17h94748dff97bd5e0aE
0000000000849120 T _ZN4core3mem4swap17ha95141a41f7e5568E
0000000000849160 T _ZN4core3mem4swap17hb19595481bb41743E
00000000008491a0 T _ZN4core3mem4swap17hb5b48b0acae1aa95E
00000000008491e0 T _ZN4core3mem4swap17hb7a64525b8c3599fE
0000000000849220 T _ZN4core3mem4swap17hc0987a48c0b8f1d4E
0000000000849260 T _ZN4core3mem4swap17hc75079c857208d12E
00000000008492a0 T _ZN4core3mem4swap17hca0404cc6cd51c87E
00000000008492e0 T _ZN4core3mem4swap17hd31810493f6f449bE
0000000000849320 T _ZN4core3mem4swap17hd428f61907c3c149E
0000000000849360 T _ZN4core3mem4swap17hd500387fd845eb33E
00000000008493a0 T _ZN4core3mem4swap17he2c9e7ff73f7b82fE
00000000008493e0 T _ZN4core3mem4swap17he8db25bb1533ccd2E
0000000000849420 T _ZN4core3mem4swap17heae8f920f54b8080E
0000000000849460 T _ZN4core3mem4swap17hf3822f8a68a7f556E
00000000008494a0 T _ZN4core3mem4swap17hf603f0adcb90dd5fE
00000000008494e0 T _ZN4core3mem4swap17hffde2912213452aeE
0000000000849520 T _ZN4core3mem4take17h0286a593aa330e2cE
0000000000849570 T _ZN4core3mem4take17h0ff6249a20153cc2E
00000000008495c0 T _ZN4core3mem4take17h146616ca5d27e330E
0000000000849610 T _ZN4core3mem4take17h204c7dec23c5ba8dE
0000000000849640 T _ZN4core3mem4take17h33d8a3c5201256c2E
0000000000849690 T _ZN4core3mem4take17h63b646f3e5089a0aE
00000000008496e0 T _ZN4core3mem4take17h7c6cc578a92d2ee2E
0000000000849730 T _ZN4core3mem4take17h876ae43f6fa32f15E
0000000000849780 T _ZN4core3mem4take17h973d00e0cfede021E
00000000008497d0 T _ZN4core3mem4take17hb2cd7cd5405eaabcE
0000000000849820 T _ZN4core3mem4take17hc411156dc214c2d5E
0000000000849850 T _ZN4core3mem4take17hd3466e9528be982bE
0000000000849880 T _ZN4core3mem4take17hd7ab1f27c512ef65E
00000000008498d0 T _ZN4core3mem4take17hd80b56aa5c0b1448E
0000000000849920 T _ZN4core3mem4take17he8bbd15d1391a9e6E
0000000000849960 T _ZN4core3mem6forget17h5ac6f2e33755bbc5E
0000000000849990 T _ZN4core3mem6forget17h71b14cdf4b6fbb93E
00000000008499c0 T _ZN4core3mem6forget17hbc6f8a34507ae2c9E
00000000008499f0 T _ZN4core3mem7replace17h0081eb704f1aecf7E
0000000000849a30 T _ZN4core3mem7replace17h23394dc5314b1b84E
0000000000849a70 T _ZN4core3mem7replace17h32d3ebed3b752d94E
0000000000849ac0 T _ZN4core3mem7replace17h3cd98951724e3e66E
0000000000849b00 T _ZN4core3mem7replace17h409241214ebaf0e9E
0000000000849b30 T _ZN4core3mem7replace17h411d33233594f53cE
0000000000849b70 T _ZN4core3mem7replace17h418bc5a0be2f2bbeE
0000000000849bc0 T _ZN4core3mem7replace17h46e76852eb41f11aE
0000000000849bf0 T _ZN4core3mem7replace17h4a40c832d9bb4f3eE
0000000000849c40 T _ZN4core3mem7replace17h4e3798f41eb9fb92E
0000000000849c80 T _ZN4core3mem7replace17h6569aa1785bae18dE
0000000000849cc0 T _ZN4core3mem7replace17h66280eb02c1bab6aE
0000000000849d20 T _ZN4core3mem7replace17h6ee39db4adfaf436E
0000000000849d80 T _ZN4core3mem7replace17h78f83289321eaae5E
0000000000849dd0 T _ZN4core3mem7replace17had4956c13ddcf53aE
0000000000849e30 T _ZN4core3mem7replace17hbcb2742f7024dca6E
0000000000849e90 T _ZN4core3mem7replace17hbd83f5b4ac9f5cbbE
0000000000849f00 T _ZN4core3mem7replace17hbf8cb25d27d9f8e5E
0000000000849f40 T _ZN4core3mem7replace17hcbbdd64dba28fda7E
0000000000849f80 T _ZN4core3mem7replace17hcf91fb05f872472eE
0000000000849fd0 T _ZN4core3mem7replace17hd064077964dde5a9E
000000000084a020 T _ZN4core3mem7replace17hd47481920e820c4eE
000000000084a060 T _ZN4core3mem7replace17hd773a96df56cb61aE
000000000084a0b0 T _ZN4core3mem7replace17hda406f8dc4519be5E
000000000084a100 T _ZN4core3mem7replace17hdd4e1f79116df43bE
000000000084a130 T _ZN4core3mem7replace17he1beb6611ff2d490E
000000000084a180 T _ZN4core3mem7replace17he99d5a42d51eb265E
000000000084a1c0 T _ZN4core3ops8function2Fn4call17hda10ee37fbe74f87E
000000000084a200 T _ZN4core3ops8function5FnMut8call_mut17hd2e109926d94ff0cE
000000000084a240 T _ZN4core3ops8function5FnMut8call_mut17hf5398addf6f19a21E
000000000084a290 T _ZN4core3ops8function6FnOnce40call_once$u7b$$u7b$vtable.shim$u7d$$u7d$17h065e89682326352bE
000000000084a2d0 T _ZN4core3ops8function6FnOnce40call_once$u7b$$u7b$vtable.shim$u7d$$u7d$17h176d13f5b4638a6eE
000000000084a310 T _ZN4core3ops8function6FnOnce40call_once$u7b$$u7b$vtable.shim$u7d$$u7d$17h30e255839996dc34E
000000000084a350 T _ZN4core3ops8function6FnOnce40call_once$u7b$$u7b$vtable.shim$u7d$$u7d$17h4dc538d1b15b81b7E
000000000084a3d0 T _ZN4core3ops8function6FnOnce40call_once$u7b$$u7b$vtable.shim$u7d$$u7d$17h8790047693af72b9E
000000000084a410 T _ZN4core3ops8function6FnOnce40call_once$u7b$$u7b$vtable.shim$u7d$$u7d$17h994610fdc7827669E
000000000084a450 T _ZN4core3ops8function6FnOnce40call_once$u7b$$u7b$vtable.shim$u7d$$u7d$17ha4e66927d1aa0115E
000000000084a4a0 t _ZN4core3ops8function6FnOnce40call_once$u7b$$u7b$vtable.shim$u7d$$u7d$17haa7c3e93f149f033E
000000000084a4d0 t _ZN4core3ops8function6FnOnce40call_once$u7b$$u7b$vtable.shim$u7d$$u7d$17hc6a452d17fcf38d2E
000000000084a500 T _ZN4core3ops8function6FnOnce40call_once$u7b$$u7b$vtable.shim$u7d$$u7d$17hf53ebfb3f9361d60E
000000000084a550 T _ZN4core3ops8function6FnOnce40call_once$u7b$$u7b$vtable.shim$u7d$$u7d$17hf8980cd072fb6553E
000000000084a5d0 T _ZN4core3ops8function6FnOnce9call_once17h0161bbd1f6470f2dE
000000000084a620 T _ZN4core3ops8function6FnOnce9call_once17h023f408c6d2d35e4E
000000000084a680 t _ZN4core3ops8function6FnOnce9call_once17h0c3d192109bd4808E
000000000084a6c0 T _ZN4core3ops8function6FnOnce9call_once17h11d5ad0374f21a43E
000000000084a700 t _ZN4core3ops8function6FnOnce9call_once17h1285e48a89e1dcd7E
000000000084a740 t _ZN4core3ops8function6FnOnce9call_once17h130163f2ee5ebcc2E
000000000084a780 T _ZN4core3ops8function6FnOnce9call_once17h18f7f45f3f931425E
000000000084a7a0 T _ZN4core3ops8function6FnOnce9call_once17h1d563687df31a887E
000000000084a7c0 T _ZN4core3ops8function6FnOnce9call_once17h23989969abe5206cE
000000000084a7e0 T _ZN4core3ops8function6FnOnce9call_once17h26fbeb4fd6bc4419E
000000000084a810 T _ZN4core3ops8function6FnOnce9call_once17h325accb6f2615c4fE
000000000084a830 T _ZN4core3ops8function6FnOnce9call_once17h342b0fd794660bd9E
000000000084a880 t _ZN4core3ops8function6FnOnce9call_once17h3433c6720fd469d7E
000000000084a8c0 T _ZN4core3ops8function6FnOnce9call_once17h40cd964662744d3eE
000000000084a910 T _ZN4core3ops8function6FnOnce9call_once17h417c9a0d7d2f01aeE
000000000084a930 T _ZN4core3ops8function6FnOnce9call_once17h426217aed24f54cdE
000000000084a950 T _ZN4core3ops8function6FnOnce9call_once17h481ff10e57bce34cE
000000000084a970 T _ZN4core3ops8function6FnOnce9call_once17h496f96e90909d819E
000000000084a9b0 T _ZN4core3ops8function6FnOnce9call_once17h5381c40897b8eea0E
000000000084a9f0 T _ZN4core3ops8function6FnOnce9call_once17h547a06757c2b09b3E
000000000084aa30 T _ZN4core3ops8function6FnOnce9call_once17h59d105648da4bbffE
000000000084aa60 T _ZN4core3ops8function6FnOnce9call_once17h5ccbf60ecb8c0c7dE
000000000084aab0 t _ZN4core3ops8function6FnOnce9call_once17h713ad391e049ec16E
000000000084ab20 T _ZN4core3ops8function6FnOnce9call_once17h7201be7af6844578E
000000000084ab50 T _ZN4core3ops8function6FnOnce9call_once17h7a595bce5251bb58E
000000000084aba0 T _ZN4core3ops8function6FnOnce9call_once17h7aa2e35998a18e3dE
000000000084abe0 T _ZN4core3ops8function6FnOnce9call_once17h7ec79a5d95d4108aE
000000000084ac10 t _ZN4core3ops8function6FnOnce9call_once17h80249f3c390aaa39E
000000000084ac50 T _ZN4core3ops8function6FnOnce9call_once17h8c542a4e2efae12fE
000000000084aca0 T _ZN4core3ops8function6FnOnce9call_once17h8f13311a0064632aE
000000000084ad00 T _ZN4core3ops8function6FnOnce9call_once17h900eff7bb522b365E
000000000084ad30 T _ZN4core3ops8function6FnOnce9call_once17h954ccdbc59b581aaE
000000000084ad80 t _ZN4core3ops8function6FnOnce9call_once17h9b84089091429d02E
000000000084adf0 T _ZN4core3ops8function6FnOnce9call_once17ha05ae9e7e74fecf0E
000000000084ae20 T _ZN4core3ops8function6FnOnce9call_once17ha74fbb98dc775ce8E
000000000084ae40 T _ZN4core3ops8function6FnOnce9call_once17haebba8f857ddd079E
000000000084ae80 T _ZN4core3ops8function6FnOnce9call_once17haf6e80d3df6aee68E
000000000084aee0 T _ZN4core3ops8function6FnOnce9call_once17hafaa16fc756ac818E
000000000084af20 T _ZN4core3ops8function6FnOnce9call_once17hb2277d104bc967ccE
000000000084af40 T _ZN4core3ops8function6FnOnce9call_once17hb905a18014f24743E
000000000084af70 t _ZN4core3ops8function6FnOnce9call_once17hbad5e3195b52c492E
000000000084afb0 T _ZN4core3ops8function6FnOnce9call_once17hbca397b8458ff4b6E
000000000084afe0 t _ZN4core3ops8function6FnOnce9call_once17hbeeecf2035b375fcE
000000000084b010 T _ZN4core3ops8function6FnOnce9call_once17hc1b7ce652a852cc8E
000000000084b030 T _ZN4core3ops8function6FnOnce9call_once17hc823da20e06e0856E
000000000084b070 T _ZN4core3ops8function6FnOnce9call_once17hc9634b2fa15ef0c4E
000000000084b0c0 T _ZN4core3ops8function6FnOnce9call_once17hcecc45c05176d463E
000000000084b110 T _ZN4core3ops8function6FnOnce9call_once17hd38aa60d0b8b48c8E
000000000084b160 T _ZN4core3ops8function6FnOnce9call_once17hd48ed2eaac0fd980E
000000000084b1b0 T _ZN4core3ops8function6FnOnce9call_once17hd9fc6ad789568326E
000000000084b200 T _ZN4core3ops8function6FnOnce9call_once17hdf3fe43fcce0bf24E
000000000084b220 T _ZN4core3ops8function6FnOnce9call_once17hed45aab55160ef6fE
000000000084b260 T _ZN4core3ops8function6FnOnce9call_once17heedb36651ac9632bE
000000000084b2c0 T _ZN4core3ops8function6FnOnce9call_once17hf54c7baec415d6c3E
000000000084b2e0 T _ZN4core3ops8function6FnOnce9call_once17hfeefe03a41091008E
000000000084b300 T _ZN4core3ops8function6FnOnce9call_once17hff39c7640ff11a01E
000000000084b350 T _ZN4core3ptr13drop_in_place17h0043dcbeb6db1d02E
000000000084b380 T _ZN4core3ptr13drop_in_place17h013e8115a58cf5efE
000000000084b3b0 T _ZN4core3ptr13drop_in_place17h044074c6f68e3780E
000000000084b3e0 T _ZN4core3ptr13drop_in_place17h064988d4090e3b5fE
000000000084b420 T _ZN4core3ptr13drop_in_place17h065fa081677fcc87E
000000000084b440 T _ZN4core3ptr13drop_in_place17h06c1470c18f60654E
000000000084b470 T _ZN4core3ptr13drop_in_place17h072359ca57465897E
000000000084b4b0 T _ZN4core3ptr13drop_in_place17h07b81dfae767c9aaE
000000000084b4e0 T _ZN4core3ptr13drop_in_place17h0a2afb0f6a6acddfE
000000000084b510 T _ZN4core3ptr13drop_in_place17h0a502d35e162f748E
000000000084b530 t _ZN4core3ptr13drop_in_place17h0bfcebfa7f74d2bdE
000000000084b550 T _ZN4core3ptr13drop_in_place17h0c1ecdb510956934E
000000000084b590 T _ZN4core3ptr13drop_in_place17h0d3ed6d650272f44E
000000000084b5c0 T _ZN4core3ptr13drop_in_place17h0f8c7641c0a3dda6E
000000000084b600 T _ZN4core3ptr13drop_in_place17h0fc25e63076b77fdE
000000000084b620 T _ZN4core3ptr13drop_in_place17h122734cb7ac3550eE
000000000084b640 T _ZN4core3ptr13drop_in_place17h12c15e00f009e178E
000000000084b660 T _ZN4core3ptr13drop_in_place17h12e8737b40e25fbdE
000000000084b680 T _ZN4core3ptr13drop_in_place17h130322a784c361f5E
000000000084b6c0 T _ZN4core3ptr13drop_in_place17h18693b6cc364bea0E
000000000084b6e0 T _ZN4core3ptr13drop_in_place17h18aa01bb6bdce38fE
000000000084b710 T _ZN4core3ptr13drop_in_place17h18be1671095eb6b8E
000000000084b730 T _ZN4core3ptr13drop_in_place17h18e43b8199bbd178E
000000000084b760 T _ZN4core3ptr13drop_in_place17h18f530e196f387ceE
000000000084b7a0 T _ZN4core3ptr13drop_in_place17h19d5b0ed076e1139E
000000000084b7d0 T _ZN4core3ptr13drop_in_place17h1acb613ef7aa2acdE
000000000084b7f0 T _ZN4core3ptr13drop_in_place17h1aefc7c1a3a26344E
000000000084b820 T _ZN4core3ptr13drop_in_place17h1afc4dd139d41f2aE
000000000084b870 T _ZN4core3ptr13drop_in_place17h1d2cb2f1cb91f83cE
000000000084b8c0 T _ZN4core3ptr13drop_in_place17h1d99db0effbec3f8E
000000000084b910 T _ZN4core3ptr13drop_in_place17h1ddce5cf1b826a13E
000000000084b940 T _ZN4core3ptr13drop_in_place17h200385ba35cf49f4E
000000000084b960 T _ZN4core3ptr13drop_in_place17h21ad8b7f2795d8c2E
000000000084b980 T _ZN4core3ptr13drop_in_place17h22873f615e98c86dE
000000000084b9b0 T _ZN4core3ptr13drop_in_place17h235fc7305ec29fd7E
000000000084b9e0 T _ZN4core3ptr13drop_in_place17h2430bbe196e594faE
000000000084ba00 T _ZN4core3ptr13drop_in_place17h25928fba49e017e2E
000000000084ba20 T _ZN4core3ptr13drop_in_place17h2688229f0cf876ceE
000000000084ba60 T _ZN4core3ptr13drop_in_place17h290dadc5ef7b160cE
000000000084baa0 T _ZN4core3ptr13drop_in_place17h29f68556a3968ac9E
000000000084bad0 T _ZN4core3ptr13drop_in_place17h2b98a5df67b95185E
000000000084baf0 t _ZN4core3ptr13drop_in_place17h2ca4d01bb786d97fE
000000000084bb10 T _ZN4core3ptr13drop_in_place17h2d2aa5c12d1c93ccE
000000000084bb30 T _ZN4core3ptr13drop_in_place17h2e1caadab3e8dbd4E
000000000084bb60 T _ZN4core3ptr13drop_in_place17h2f05ce4cc712fb33E
000000000084bb80 T _ZN4core3ptr13drop_in_place17h2fa331d36f11f9aeE
000000000084bbb0 T _ZN4core3ptr13drop_in_place17h30431c2828f0ae3bE
000000000084bbf0 T _ZN4core3ptr13drop_in_place17h31e3675b6ad0880cE
000000000084bc20 T _ZN4core3ptr13drop_in_place17h31f3a91ee62c9e4eE
000000000084bc50 T _ZN4core3ptr13drop_in_place17h3358611f0bce8dd9E
000000000084bc70 T _ZN4core3ptr13drop_in_place17h346a1443d9f8afabE
000000000084bca0 T _ZN4core3ptr13drop_in_place17h3487c76d6bd88274E
000000000084bcd0 T _ZN4core3ptr13drop_in_place17h362241326f323a83E
000000000084bd20 T _ZN4core3ptr13drop_in_place17h371fe5a83225228dE
000000000084bd50 T _ZN4core3ptr13drop_in_place17h3748c84272f9d968E
000000000084bd70 T _ZN4core3ptr13drop_in_place17h3868aeb83f56f5cfE
000000000084bdc0 T _ZN4core3ptr13drop_in_place17h38ed2111d6021f55E
000000000084bdf0 T _ZN4core3ptr13drop_in_place17h393831645f705420E
000000000084be40 T _ZN4core3ptr13drop_in_place17h395fef8d5d0b582fE
000000000084be60 T _ZN4core3ptr13drop_in_place17h39c5defc16747cb6E
000000000084be90 T _ZN4core3ptr13drop_in_place17h39deff72d9c9ee24E
000000000084bec0 T _ZN4core3ptr13drop_in_place17h3b227eeeaef2de74E
000000000084bf00 T _ZN4core3ptr13drop_in_place17h3b492fd59d932ca3E
000000000084bfb0 T _ZN4core3ptr13drop_in_place17h3b5e3014e73e4280E
000000000084c060 T _ZN4core3ptr13drop_in_place17h3c5d575f489af885E
000000000084c0b0 T _ZN4core3ptr13drop_in_place17h3d6477dd1bbf461fE
000000000084c0e0 T _ZN4core3ptr13drop_in_place17h3d7c42cee1e3e9cfE
000000000084c100 T _ZN4core3ptr13drop_in_place17h3f861338e2f057b7E
000000000084c130 T _ZN4core3ptr13drop_in_place17h404af479f4bbc6e2E
000000000084c150 T _ZN4core3ptr13drop_in_place17h40bc057f4bbb58b5E
000000000084c190 T _ZN4core3ptr13drop_in_place17h41bfe756188edfd9E
000000000084c1b0 T _ZN4core3ptr13drop_in_place17h42a6b392db732f17E
000000000084c1e0 T _ZN4core3ptr13drop_in_place17h44e295ba2e760573E
000000000084c210 T _ZN4core3ptr13drop_in_place17h455264aaf1d64956E
000000000084c230 T _ZN4core3ptr13drop_in_place17h4777534b2388b873E
000000000084c280 T _ZN4core3ptr13drop_in_place17h48fdd7772930549aE
000000000084c2b0 T _ZN4core3ptr13drop_in_place17h49ca1ebeca729900E
000000000084c2d0 T _ZN4core3ptr13drop_in_place17h4b94359cae23fc3dE
000000000084c300 T _ZN4core3ptr13drop_in_place17h4c6b2682dfd80e6bE
000000000084c330 T _ZN4core3ptr13drop_in_place17h4f8e5d7f053834ffE
000000000084c360 T _ZN4core3ptr13drop_in_place17h50c39ff64c282563E
000000000084c380 T _ZN4core3ptr13drop_in_place17h50c5711efb245ae6E
000000000084c3d0 T _ZN4core3ptr13drop_in_place17h513ad1ddde6b7479E
000000000084c420 T _ZN4core3ptr13drop_in_place17h5152343f9e32e421E
000000000084c460 T _ZN4core3ptr13drop_in_place17h51be4d815ef77466E
000000000084c4a0 T _ZN4core3ptr13drop_in_place17h523653940f39dad5E
000000000084c4d0 T _ZN4core3ptr13drop_in_place17h52b9d8ef2864ba92E
000000000084c4f0 T _ZN4core3ptr13drop_in_place17h547f60b060655090E
000000000084c530 T _ZN4core3ptr13drop_in_place17h54d6d5ded68bde33E
000000000084c580 T _ZN4core3ptr13drop_in_place17h5536080c5e548299E
000000000084c5a0 T _ZN4core3ptr13drop_in_place17h55494754309c14feE
000000000084c5d0 T _ZN4core3ptr13drop_in_place17h5567f2267f6b73beE
000000000084c5f0 T _ZN4core3ptr13drop_in_place17h5633bfe1a2b551d6E
000000000084c610 T _ZN4core3ptr13drop_in_place17h57a9b6e9803e107bE
000000000084c640 T _ZN4core3ptr13drop_in_place17h58b889776fc3ca3eE
000000000084c690 T _ZN4core3ptr13drop_in_place17h58f9b7ead7b76883E
000000000084c6c0 T _ZN4core3ptr13drop_in_place17h59b161f31886885fE
000000000084c6e0 T _ZN4core3ptr13drop_in_place17h5aad8abf28d4ce72E
000000000084c710 T _ZN4core3ptr13drop_in_place17h5ece14dc56de8594E
000000000084c750 T _ZN4core3ptr13drop_in_place17h5fe762294cd9cccaE
000000000084c780 T _ZN4core3ptr13drop_in_place17h609b43c68efb21cdE
000000000084c7c0 T _ZN4core3ptr13drop_in_place17h60cdbc9831d09b7eE
000000000084c7e0 T _ZN4core3ptr13drop_in_place17h62a490c9c57fffedE
000000000084c800 T _ZN4core3ptr13drop_in_place17h64329aae15b3331aE
000000000084c830 T _ZN4core3ptr13drop_in_place17h648cdad038022cd2E
000000000084c860 T _ZN4core3ptr13drop_in_place17h66e7dd386f3071b0E
000000000084c8a0 T _ZN4core3ptr13drop_in_place17h68375b7326ced98dE
000000000084c8d0 T _ZN4core3ptr13drop_in_place17h685c7eef7597b276E
000000000084c900 T _ZN4core3ptr13drop_in_place17h6b3b84bed117be5fE
000000000084c930 T _ZN4core3ptr13drop_in_place17h6c9217ba38f52e2cE
000000000084c960 T _ZN4core3ptr13drop_in_place17h6d7a90a02e8db229E
000000000084c9b0 T _ZN4core3ptr13drop_in_place17h6d87ab45fdfef754E
000000000084c9e0 T _ZN4core3ptr13drop_in_place17h70bf06b8309884aaE
000000000084ca10 T _ZN4core3ptr13drop_in_place17h7174586b5d05a736E
000000000084ca30 T _ZN4core3ptr13drop_in_place17h733f8c33f9ddaafbE
000000000084ca70 T _ZN4core3ptr13drop_in_place17h75316ac3e824a393E
000000000084cac0 T _ZN4core3ptr13drop_in_place17h75bc574575cc2647E
000000000084caf0 T _ZN4core3ptr13drop_in_place17h77ffbaa7bd90b753E
000000000084cb10 T _ZN4core3ptr13drop_in_place17h79f9c357c36c448dE
000000000084cb40 T _ZN4core3ptr13drop_in_place17h7a1c4231d4c5e92bE
000000000084cb70 T _ZN4core3ptr13drop_in_place17h7abc49877abd2ec8E
000000000084cba0 T _ZN4core3ptr13drop_in_place17h7b40dab1ddb7e474E
000000000084cbe0 T _ZN4core3ptr13drop_in_place17h7b97c3064807110eE
000000000084cc00 T _ZN4core3ptr13drop_in_place17h7bcf1fbb060986a3E
000000000084cc20 T _ZN4core3ptr13drop_in_place17h7bda090db3fe6fb8E
000000000084cc40 T _ZN4core3ptr13drop_in_place17h7c0b2899a46f03d1E
000000000084cc60 T _ZN4core3ptr13drop_in_place17h7d0306bd0b420c0eE
000000000084cca0 T _ZN4core3ptr13drop_in_place17h7d44d13331c673deE
000000000084ccc0 T _ZN4core3ptr13drop_in_place17h7d89f5246bf145e3E
000000000084ccf0 t _ZN4core3ptr13drop_in_place17h7db33d22aede0e59E
000000000084cd10 T _ZN4core3ptr13drop_in_place17h7f73b95340f82eb3E
000000000084cd40 T _ZN4core3ptr13drop_in_place17h802727273067a890E
000000000084cd70 T _ZN4core3ptr13drop_in_place17h81d9945b4e38a6fbE
000000000084cd90 T _ZN4core3ptr13drop_in_place17h8466fcf325785f1dE
000000000084cde0 T _ZN4core3ptr13drop_in_place17h84931ee2352ee37fE
000000000084ce00 T _ZN4core3ptr13drop_in_place17h84ddc748812abbddE
000000000084ce20 T _ZN4core3ptr13drop_in_place17h85f4bcf72898acf4E
000000000084ce50 T _ZN4core3ptr13drop_in_place17h8630a7b4d47d5d9aE
000000000084ce80 T _ZN4core3ptr13drop_in_place17h867db07c704d86ceE
000000000084ceb0 T _ZN4core3ptr13drop_in_place17h86dbc0ee55dfdaadE
000000000084cee0 T _ZN4core3ptr13drop_in_place17h88b85ab4018c5b5cE
000000000084cf20 T _ZN4core3ptr13drop_in_place17h890a421cc2a5a60bE
000000000084cf70 T _ZN4core3ptr13drop_in_place17h8bb26731785d1f4cE
000000000084cfa0 T _ZN4core3ptr13drop_in_place17h8bb4f19a072abfdaE
000000000084cff0 T _ZN4core3ptr13drop_in_place17h8d124ea418dfe350E
000000000084d020 T _ZN4core3ptr13drop_in_place17h8dcf33f394d95c05E
000000000084d050 T _ZN4core3ptr13drop_in_place17h8f856add1d968003E
000000000084d070 T _ZN4core3ptr13drop_in_place17h8fae4e7fe73d0f52E
000000000084d090 T _ZN4core3ptr13drop_in_place17h9023958fb933e0aaE
000000000084d0d0 T _ZN4core3ptr13drop_in_place17h91960d7d7797da43E
000000000084d120 T _ZN4core3ptr13drop_in_place17h921f5a0e12bfbe4cE
000000000084d140 T _ZN4core3ptr13drop_in_place17h939f20bde60e4ce6E
000000000084d170 T _ZN4core3ptr13drop_in_place17h94046c536e660c7eE
000000000084d190 T _ZN4core3ptr13drop_in_place17h94b08220e793ed33E
000000000084d1d0 T _ZN4core3ptr13drop_in_place17h96b178a6f3263dabE
000000000084d220 T _ZN4core3ptr13drop_in_place17h9896140de50ae9a7E
000000000084d240 T _ZN4core3ptr13drop_in_place17h990900c84af00634E
000000000084d260 T _ZN4core3ptr13drop_in_place17h99459e10b07c334eE
000000000084d290 T _ZN4core3ptr13drop_in_place17h99bc2b68997c264aE
000000000084d2b0 T _ZN4core3ptr13drop_in_place17h9a9085a66a8ebbd8E
000000000084d2e0 T _ZN4core3ptr13drop_in_place17h9c3767a763913e5dE
000000000084d340 T _ZN4core3ptr13drop_in_place17h9d2c4cbd140ec2c6E
000000000084d360 T _ZN4core3ptr13drop_in_place17h9d40ca61282162dfE
000000000084d390 T _ZN4core3ptr13drop_in_place17ha070a39301034c67E
000000000084d3c0 T _ZN4core3ptr13drop_in_place17ha2cce282ca97c997E
000000000084d3e0 T _ZN4core3ptr13drop_in_place17ha2e1df6bd02a40b5E
000000000084d400 T _ZN4core3ptr13drop_in_place17ha3a5e717503270fbE
000000000084d440 T _ZN4core3ptr13drop_in_place17ha3ba04b09cf39f40E
000000000084d470 T _ZN4core3ptr13drop_in_place17ha46c7d332bc1beabE
000000000084d490 T _ZN4core3ptr13drop_in_place17ha54f7acdfabe3cf6E
000000000084d4c0 T _ZN4core3ptr13drop_in_place17ha5f0f475e97befe9E
000000000084d4f0 T _ZN4core3ptr13drop_in_place17ha615a95f77b3052dE
000000000084d510 T _ZN4core3ptr13drop_in_place17ha7f9b77a9b4a23e6E
000000000084d540 T _ZN4core3ptr13drop_in_place17ha8b24eb3c839e11fE
000000000084d560 T _ZN4core3ptr13drop_in_place17ha8be38813aa169f7E
000000000084d5b0 T _ZN4core3ptr13drop_in_place17ha9cd02a77e9356daE
000000000084d5d0 T _ZN4core3ptr13drop_in_place17haa806dd7ebf811f7E
000000000084d5f0 T _ZN4core3ptr13drop_in_place17haa8ef00cfe68cacfE
000000000084d640 T _ZN4core3ptr13drop_in_place17haaf68de0904de076E
000000000084d660 T _ZN4core3ptr13drop_in_place17hac32ffe581b1244aE
000000000084d690 T _ZN4core3ptr13drop_in_place17had18b3b271ee8423E
000000000084d6c0 T _ZN4core3ptr13drop_in_place17hae1cf7573252a444E
000000000084d6e0 T _ZN4core3ptr13drop_in_place17hae5abc60f15c81d9E
000000000084d710 T _ZN4core3ptr13drop_in_place17haf14d4b4b3b111c0E
000000000084d750 T _ZN4core3ptr13drop_in_place17haf9c81077d3a114cE
000000000084d780 T _ZN4core3ptr13drop_in_place17hb05966817c18d8dcE
000000000084d7c0 T _ZN4core3ptr13drop_in_place17hb0b97fee1e22ae23E
000000000084d7f0 T _ZN4core3ptr13drop_in_place17hb0ec959581e820f8E
000000000084d820 T _ZN4core3ptr13drop_in_place17hb2c34a92522007a5E
000000000084d840 T _ZN4core3ptr13drop_in_place17hb56b93c0e413fde9E
000000000084d870 T _ZN4core3ptr13drop_in_place17hb65e3ca7a3bc658aE
000000000084d890 T _ZN4core3ptr13drop_in_place17hb684b9cb0701e0c9E
000000000084d8c0 T _ZN4core3ptr13drop_in_place17hb79d0065575ef0e7E
000000000084d8f0 T _ZN4core3ptr13drop_in_place17hb989643fc040e84fE
000000000084d910 T _ZN4core3ptr13drop_in_place17hbac8fe40ed9f96d2E
000000000084d950 T _ZN4core3ptr13drop_in_place17hbbb8649b0b952039E
000000000084d970 T _ZN4core3ptr13drop_in_place17hbbeb12b71ee0f99cE
000000000084d990 T _ZN4core3ptr13drop_in_place17hbc38b4d542b47e97E
000000000084d9b0 T _ZN4core3ptr13drop_in_place17hbeacf5afb0768382E
000000000084da60 T _ZN4core3ptr13drop_in_place17hbef5cfb2ff60432cE
000000000084daa0 T _ZN4core3ptr13drop_in_place17hc1a5d8cf37232aa8E
000000000084dac0 T _ZN4core3ptr13drop_in_place17hc24d7a60054a9cbdE
000000000084db10 T _ZN4core3ptr13drop_in_place17hc2e550a57acb9757E
000000000084db30 T _ZN4core3ptr13drop_in_place17hc30ee069c8bf84fbE
000000000084db60 T _ZN4core3ptr13drop_in_place17hc312a2dc3da11331E
000000000084db90 T _ZN4core3ptr13drop_in_place17hc321d771bcd76768E
000000000084dbc0 T _ZN4core3ptr13drop_in_place17hc46a2bd622bc7a67E
000000000084dbf0 T _ZN4core3ptr13drop_in_place17hc4cd3a030df83178E
000000000084dc10 T _ZN4core3ptr13drop_in_place17hc4f64261a5845c58E
000000000084dc40 T _ZN4core3ptr13drop_in_place17hc5ff82c5001baea5E
000000000084dc60 T _ZN4core3ptr13drop_in_place17hc6092e705427999bE
000000000084dc80 T _ZN4core3ptr13drop_in_place17hc7938e15f9b49016E
000000000084dcb0 T _ZN4core3ptr13drop_in_place17hc88d6778c44a42e7E
000000000084dcd0 T _ZN4core3ptr13drop_in_place17hc8e6a930e0c68780E
000000000084dd00 T _ZN4core3ptr13drop_in_place17hca1a4ec32311c114E
000000000084dd20 T _ZN4core3ptr13drop_in_place17hcbce27f05ff53e9aE
000000000084dd50 T _ZN4core3ptr13drop_in_place17hcc407f7d94b70ef6E
000000000084dda0 T _ZN4core3ptr13drop_in_place17hcc5b56f77a0d22a3E
000000000084ddd0 T _ZN4core3ptr13drop_in_place17hcca666719ace8f2bE
000000000084ddf0 T _ZN4core3ptr13drop_in_place17hcd10a28e306eacd3E
000000000084de30 T _ZN4core3ptr13drop_in_place17hcda1cf31c8aff577E
000000000084de80 T _ZN4core3ptr13drop_in_place17hce91bb0cba520ca3E
000000000084dec0 T _ZN4core3ptr13drop_in_place17hcea1a64b5bfc411eE
000000000084dee0 T _ZN4core3ptr13drop_in_place17hcfb8fc4f263af8b2E
000000000084df30 T _ZN4core3ptr13drop_in_place17hd03b19576ba4f222E
000000000084df50 T _ZN4core3ptr13drop_in_place17hd093decf1bb493aaE
000000000084df70 T _ZN4core3ptr13drop_in_place17hd112ad83225f8ea7E
000000000084df90 T _ZN4core3ptr13drop_in_place17hd2b31ff19b151526E
000000000084dfc0 T _ZN4core3ptr13drop_in_place17hd613332419723482E
000000000084dff0 T _ZN4core3ptr13drop_in_place17hd8a3175f03cd8065E
000000000084e010 T _ZN4core3ptr13drop_in_place17hd8f412924d14341fE
000000000084e050 T _ZN4core3ptr13drop_in_place17hd9c190df9e639654E
000000000084e080 T _ZN4core3ptr13drop_in_place17hda6acfcfcb60702aE
000000000084e0c0 T _ZN4core3ptr13drop_in_place17hdaebf4a8e383b0e1E
000000000084e0e0 T _ZN4core3ptr13drop_in_place17hdaff1f7801789737E
000000000084e110 T _ZN4core3ptr13drop_in_place17hdbfdb64ce422e6f2E
000000000084e140 T _ZN4core3ptr13drop_in_place17hdce369420a4ecd9fE
000000000084e170 T _ZN4core3ptr13drop_in_place17hdd39cff8a286118cE
000000000084e1a0 T _ZN4core3ptr13drop_in_place17hdd986ffee892c25eE
000000000084e1d0 T _ZN4core3ptr13drop_in_place17hdef398899ae65618E
000000000084e1f0 T _ZN4core3ptr13drop_in_place17hdfcd15cd83cf7dedE
000000000084e220 T _ZN4core3ptr13drop_in_place17he01eb9dd47501fceE
000000000084e240 T _ZN4core3ptr13drop_in_place17he089230700a5f21cE
000000000084e290 T _ZN4core3ptr13drop_in_place17he12a54e5f9e7e3b1E
000000000084e2e0 T _ZN4core3ptr13drop_in_place17he2b1115291604befE
000000000084e300 T _ZN4core3ptr13drop_in_place17he2ecde0892a2bba9E
000000000084e330 T _ZN4core3ptr13drop_in_place17he48e4ea04c898dc4E
000000000084e360 T _ZN4core3ptr13drop_in_place17he6e7318e2b148b4bE
000000000084e380 T _ZN4core3ptr13drop_in_place17he81bd951242ef0d3E
000000000084e3c0 T _ZN4core3ptr13drop_in_place17he8839fa1f67932efE
000000000084e3f0 T _ZN4core3ptr13drop_in_place17he9fb4cbfb9cf4bcaE
000000000084e420 T _ZN4core3ptr13drop_in_place17hea15246769ea2766E
000000000084e460 T _ZN4core3ptr13drop_in_place17heb28cf06c681a1a2E
000000000084e480 T _ZN4core3ptr13drop_in_place17heb5f289c2727736aE
000000000084e4d0 T _ZN4core3ptr13drop_in_place17hed590c05d6b73de0E
000000000084e500 T _ZN4core3ptr13drop_in_place17hee61792313e86f17E
000000000084e530 t _ZN4core3ptr13drop_in_place17hf03cc96c6e89d37fE
000000000084e550 T _ZN4core3ptr13drop_in_place17hf29b03f17b15d933E
000000000084e570 T _ZN4core3ptr13drop_in_place17hf3ffd441026018d5E
000000000084e590 T _ZN4core3ptr13drop_in_place17hf6686d74694fead9E
000000000084e5c0 T _ZN4core3ptr13drop_in_place17hf72fe60d1e2771f2E
000000000084e600 T _ZN4core3ptr13drop_in_place17hf79b762e8fcfa1aeE
000000000084e640 T _ZN4core3ptr13drop_in_place17hf7d24b148f5c7ccbE
000000000084e660 T _ZN4core3ptr13drop_in_place17hf8440aaf0a0b803fE
000000000084e690 T _ZN4core3ptr13drop_in_place17hf84f6be94c362c83E
000000000084e6c0 T _ZN4core3ptr13drop_in_place17hf902ad0f940ee99eE
000000000084e6f0 T _ZN4core3ptr13drop_in_place17hf942830a1dee5406E
000000000084e720 T _ZN4core3ptr13drop_in_place17hfe434e7255f40b78E
000000000084e750 T _ZN4core3ptr13drop_in_place17hff75f0e068a648c0E
000000000084e780 T _ZN4core3ptr9const_ptr33_$LT$impl$u20$$BP$const$u20$T$GT$7is_null17ha5ef7d0baed3bc91E
000000000084e7c0 t _ZN4core3str6traits54_$LT$impl$u20$core..cmp..PartialEq$u20$for$u20$str$GT$2eq17h008a398c5b8f1ab6E
000000000084e890 T _ZN4core3str6traits54_$LT$impl$u20$core..cmp..PartialEq$u20$for$u20$str$GT$2ne17h320484671857947bE
000000000084e8f0 T _ZN4core9core_arch3x865xsave7_xgetbv17hbc2613d4bfc0e0b3E
000000000084e940 T _ZN50_$LT$T$u20$as$u20$core..convert..Into$LT$U$GT$$GT$4into17h9d532fb1d93a4dabE
000000000084e960 T _ZN56_$LT$usize$u20$as$u20$core..iter..traits..accum..Sum$GT$3sum17h25ee8b28152020c5E
000000000084e9a0 T _ZN56_$LT$usize$u20$as$u20$core..iter..traits..accum..Sum$GT$3sum17h27decf2fa9b19550E
000000000084e9e0 T _ZN56_$LT$usize$u20$as$u20$core..iter..traits..accum..Sum$GT$3sum17h7b25ea86fa663cdbE
000000000084ea20 T _ZN56_$LT$usize$u20$as$u20$core..iter..traits..accum..Sum$GT$3sum17h84229597533acb9fE
000000000084ea60 T _ZN56_$LT$usize$u20$as$u20$core..iter..traits..accum..Sum$GT$3sum17ha0a67e8ad09daeacE
000000000084eaa0 T _ZN56_$LT$usize$u20$as$u20$core..iter..traits..accum..Sum$GT$3sum17hbd1e20a50c7f2976E
000000000084eae0 T _ZN56_$LT$usize$u20$as$u20$core..iter..traits..accum..Sum$GT$3sum17hc05521c499e312ebE
000000000084eb20 T _ZN5alloc11collections5btree16unwrap_unchecked28_$u7b$$u7b$closure$u7d$$u7d$17h0493d76c4c94842eE
000000000084eb50 T _ZN5alloc11collections5btree16unwrap_unchecked28_$u7b$$u7b$closure$u7d$$u7d$17h09bc8abbaee6d4aaE
000000000084eb80 T _ZN5alloc11collections5btree16unwrap_unchecked28_$u7b$$u7b$closure$u7d$$u7d$17h2f8d2404c1070eb5E
000000000084ebb0 T _ZN5alloc11collections5btree16unwrap_unchecked28_$u7b$$u7b$closure$u7d$$u7d$17h57496177242a0810E
000000000084ebe0 T _ZN5alloc11collections5btree16unwrap_unchecked28_$u7b$$u7b$closure$u7d$$u7d$17h9bd5dcc96893d6e4E
000000000084ec10 T _ZN5alloc11collections5btree16unwrap_unchecked28_$u7b$$u7b$closure$u7d$$u7d$17hf59c33b0f9b2a1e9E
000000000084ec40 t _ZN5alloc5alloc12alloc_zeroed17h8485142904271218E
000000000084eca0 T _ZN5alloc5alloc15exchange_malloc17hb4be7249c755ec5eE
000000000084ed50 t _ZN5alloc5alloc5alloc17heeaa547f45d26d94E
000000000084edb0 t _ZN5alloc5alloc7dealloc17h3532150ce71ddee1E
000000000084ee20 T _ZN5alloc5alloc8box_free17h083cf0184607a344E
000000000084ef00 T _ZN5alloc5alloc8box_free17h24f0616934839fc5E
000000000084efb0 T _ZN5alloc5alloc8box_free17h35d9add9d7313147E
000000000084f060 T _ZN5alloc5alloc8box_free17h47a21bbf2d349c3fE
000000000084f110 T _ZN5alloc5alloc8box_free17h57ecde3f37b91b77E
000000000084f1c0 T _ZN5alloc5alloc8box_free17h5f89ac99116e3b48E
000000000084f2a0 T _ZN5alloc5alloc8box_free17h603f0d19148aa697E
000000000084f380 T _ZN5alloc5alloc8box_free17h890a5864945021a3E
000000000084f430 T _ZN5alloc5alloc8box_free17h9a8e49ab2c23ba31E
000000000084f510 T _ZN5alloc5alloc8box_free17hb6196cdcd3ef4913E
000000000084f5e0 T _ZN5alloc5alloc8box_free17hbb4d84d34ecdf97bE
000000000084f690 T _ZN5alloc5alloc8box_free17hce81b01fd131e643E
000000000084f770 T _ZN5alloc5alloc8box_free17hf6dd670068539045E
000000000084f820 T _ZN5alloc5alloc8box_free17hf8e5aa27dea9fd17E
000000000084f8d0 T _ZN62_$LT$alloc..alloc..Global$u20$as$u20$core..alloc..AllocRef$GT$5alloc17h497097f9e342f2dbE
000000000084fa60 T _ZN62_$LT$alloc..alloc..Global$u20$as$u20$core..alloc..AllocRef$GT$7dealloc17hf01956cc371d1d8eE
000000000084fae0 T _ZN63_$LT$I$u20$as$u20$core..iter..traits..collect..IntoIterator$GT$9into_iter17h997a64e61a94c888E
000000000084fb30 T _ZN63_$LT$I$u20$as$u20$core..iter..traits..collect..IntoIterator$GT$9into_iter17ha599f04847461016E
000000000084fb70 T _ZN75_$LT$hashbrown..raw..RawTable$LT$T$GT$$u20$as$u20$core..ops..drop..Drop$GT$4drop17hea8ffda4fe32b810E
000000000084fc60 t _ZN83_$LT$hashbrown..raw..ProbeSeq$u20$as$u20$core..iter..traits..iterator..Iterator$GT$4next17h2dc22b08f4fa6f1bE
000000000084fd60 T _ZN88_$LT$hashbrown..scopeguard..ScopeGuard$LT$T$C$F$GT$$u20$as$u20$core..ops..drop..Drop$GT$4drop17h0f9f524548d8cd30E
000000000084fda0 T _ZN90_$LT$hashbrown..scopeguard..ScopeGuard$LT$T$C$F$GT$$u20$as$u20$core..ops..deref..Deref$GT$5deref17h836165964c10a2a5E
000000000084fdc0 T _ZN90_$LT$hashbrown..scopeguard..ScopeGuard$LT$T$C$F$GT$$u20$as$u20$core..ops..deref..Deref$GT$5deref17hebe6aa684f7afe87E
000000000084fde0 T _ZN91_$LT$hashbrown..raw..RawIter$LT$T$GT$$u20$as$u20$core..iter..traits..iterator..Iterator$GT$4next17h549933d5c6e12ea5E
0000000000850030 T _ZN93_$LT$hashbrown..scopeguard..ScopeGuard$LT$T$C$F$GT$$u20$as$u20$core..ops..deref..DerefMut$GT$9deref_mut17h3a0e6b71906839b0E
0000000000850050 T _ZN93_$LT$hashbrown..scopeguard..ScopeGuard$LT$T$C$F$GT$$u20$as$u20$core..ops..deref..DerefMut$GT$9deref_mut17hb72a1acc20a45b3eE
0000000000850070 T _ZN96_$LT$hashbrown..raw..RawIterRange$LT$T$GT$$u20$as$u20$core..iter..traits..iterator..Iterator$GT$4next17h63aa29ddc47ff517E
0000000000850190 T _ZN9hashbrown10scopeguard5guard17h60f21c65cf531a3eE
0000000000850200 T _ZN9hashbrown10scopeguard5guard17hdea00b7f9b6d4fd7E
0000000000850230 t _ZN9hashbrown3raw10is_special17hc1758e5edf551108E
0000000000850260 T _ZN9hashbrown3raw11offset_from17hf7c4bd53a08593efE
00000000008502a0 T _ZN9hashbrown3raw15Bucket$LT$T$GT$15from_base_index17h5ecb7e20bd165114E
0000000000850310 T _ZN9hashbrown3raw15Bucket$LT$T$GT$24copy_from_nonoverlapping17h8ad922f87bf19e04E
0000000000850370 T _ZN9hashbrown3raw15Bucket$LT$T$GT$3add17h2774d8d2e1934a32E
0000000000850420 T _ZN9hashbrown3raw15Bucket$LT$T$GT$4drop17h0376ce9c2484d01fE
0000000000850460 T _ZN9hashbrown3raw15Bucket$LT$T$GT$4read17h9368f4fc2500798bE
00000000008504b0 T _ZN9hashbrown3raw15Bucket$LT$T$GT$5write17h2206c0f287d6ed60E
0000000000850510 T _ZN9hashbrown3raw15Bucket$LT$T$GT$6as_mut17h31621e6e7b246525E
0000000000850540 T _ZN9hashbrown3raw15Bucket$LT$T$GT$6as_ptr17h253edc9c08011bf7E
00000000008505b0 T _ZN9hashbrown3raw15Bucket$LT$T$GT$6as_ref17h388d9c7f4b23a7e0E
00000000008505e0 T _ZN9hashbrown3raw16calculate_layout17hd4f713798355fca3E
0000000000850760 t _ZN9hashbrown3raw16special_is_empty17hd85d6cb0c63b0c26E
00000000008507c0 T _ZN9hashbrown3raw17RawTable$LT$T$GT$12bucket_index17hb46b3d7491e3c26cE
0000000000850850 T _ZN9hashbrown3raw17RawTable$LT$T$GT$12free_buckets17h5c96a9803a320f1fE
00000000008508e0 T _ZN9hashbrown3raw17RawTable$LT$T$GT$12free_buckets28_$u7b$$u7b$closure$u7d$$u7d$17h8511177ea54dd961E
0000000000850900 T _ZN9hashbrown3raw17RawTable$LT$T$GT$13erase_no_drop17h74cc2edda3dfaa3dE
0000000000850bb0 T _ZN9hashbrown3raw17RawTable$LT$T$GT$14num_ctrl_bytes17h9397e610ce0a4611E
0000000000850c30 T _ZN9hashbrown3raw17RawTable$LT$T$GT$14reserve_rehash17h443e8317ef67afcdE
0000000000850e40 T _ZN9hashbrown3raw17RawTable$LT$T$GT$14reserve_rehash28_$u7b$$u7b$closure$u7d$$u7d$17he4a8da43c5094a31E
0000000000850e80 T _ZN9hashbrown3raw17RawTable$LT$T$GT$15rehash_in_place17hce7388517cf96026E
00000000008517b0 T _ZN9hashbrown3raw17RawTable$LT$T$GT$15rehash_in_place28_$u7b$$u7b$closure$u7d$$u7d$17hf7ce8c1ce9697f24E
0000000000851840 T _ZN9hashbrown3raw17RawTable$LT$T$GT$16find_insert_slot17he14c5d29e5f7566bE
0000000000851c80 T _ZN9hashbrown3raw17RawTable$LT$T$GT$17new_uninitialized17h1e87e4d6289931d9E
0000000000852060 T _ZN9hashbrown3raw17RawTable$LT$T$GT$17new_uninitialized28_$u7b$$u7b$closure$u7d$$u7d$17hd2f8aee2da44508bE
00000000008520c0 T _ZN9hashbrown3raw17RawTable$LT$T$GT$17new_uninitialized28_$u7b$$u7b$closure$u7d$$u7d$17hf3441e17a31c58f4E
0000000000852100 T _ZN9hashbrown3raw17RawTable$LT$T$GT$17try_with_capacity17h9a4f563271d944a2E
0000000000852420 T _ZN9hashbrown3raw17RawTable$LT$T$GT$17try_with_capacity28_$u7b$$u7b$closure$u7d$$u7d$17h572ec306dad7e73eE
0000000000852460 T _ZN9hashbrown3raw17RawTable$LT$T$GT$18is_empty_singleton17hd5cb5f65ad4c76cfE
0000000000852490 T _ZN9hashbrown3raw17RawTable$LT$T$GT$3new17h10657a82f4b0c247E
0000000000852520 T _ZN9hashbrown3raw17RawTable$LT$T$GT$4ctrl17h07624f6d1920d970E
00000000008525b0 T _ZN9hashbrown3raw17RawTable$LT$T$GT$4find17ha5f1774735b8743eE
00000000008528e0 T _ZN9hashbrown3raw17RawTable$LT$T$GT$4find17hc605e8b835126d32E
0000000000852c10 T _ZN9hashbrown3raw17RawTable$LT$T$GT$4find17hf95bd71417f76629E
0000000000852f40 T _ZN9hashbrown3raw17RawTable$LT$T$GT$4iter17hcc20c62277660d20E
0000000000853000 T _ZN9hashbrown3raw17RawTable$LT$T$GT$6bucket17h62dc203c3ce33354E
0000000000853210 T _ZN9hashbrown3raw17RawTable$LT$T$GT$6insert17h1c2f7265a28d2426E
0000000000853470 T _ZN9hashbrown3raw17RawTable$LT$T$GT$6resize17had214cd706f7a420E
0000000000853920 T _ZN9hashbrown3raw17RawTable$LT$T$GT$6resize28_$u7b$$u7b$closure$u7d$$u7d$17h8ee384b8bc81029bE
0000000000853990 T _ZN9hashbrown3raw17RawTable$LT$T$GT$7buckets17h3836bbe4c4e71c15E
00000000008539e0 T _ZN9hashbrown3raw17RawTable$LT$T$GT$7reserve17hf143d2a4286b48bfE
0000000000853a60 T _ZN9hashbrown3raw17RawTable$LT$T$GT$7reserve28_$u7b$$u7b$closure$u7d$$u7d$17hb11620160a8e27caE
0000000000853a90 T _ZN9hashbrown3raw17RawTable$LT$T$GT$8set_ctrl17ha195beab96c2b0c5E
0000000000853b50 T _ZN9hashbrown3raw17RawTable$LT$T$GT$9probe_seq17h4293a9c373e1c574E
0000000000853bc0 T _ZN9hashbrown3raw21RawIterRange$LT$T$GT$3new17h1aced788e6718558E
0000000000853fd0 t _ZN9hashbrown3raw2h117h803010ab0026ef3fE
0000000000853ff0 t _ZN9hashbrown3raw2h217hf49ef6d8534b2270E
0000000000854100 t _ZN9hashbrown3raw7is_full17h3fc7e40336a9dfc0E
0000000000854130 T _ZN3std5error5Error6source17hbbd54c0238b4d710E
0000000000854160 T _ZN3std5error5Error7type_id17he49f330d0f51caaaE
0000000000854190 T _ZN3std5error5Error9backtrace17h13b79aab32397475E
00000000008541c0 T _ZN3std5error5Error5cause17h2a99c352457467e3E
0000000000854200 T _ZN243_$LT$std..error..$LT$impl$u20$core..convert..From$LT$alloc..string..String$GT$$u20$for$u20$alloc..boxed..Box$LT$dyn$u20$std..error..Error$u2b$core..marker..Sync$u2b$core..marker..Send$GT$$GT$..from..StringError$u20$as$u20$std..error..Error$GT$11description17h3cfb32e85a667ae5E
0000000000854240 T _ZN244_$LT$std..error..$LT$impl$u20$core..convert..From$LT$alloc..string..String$GT$$u20$for$u20$alloc..boxed..Box$LT$dyn$u20$std..error..Error$u2b$core..marker..Sync$u2b$core..marker..Send$GT$$GT$..from..StringError$u20$as$u20$core..fmt..Display$GT$3fmt17he184a7e98882c643E
0000000000854290 T _ZN242_$LT$std..error..$LT$impl$u20$core..convert..From$LT$alloc..string..String$GT$$u20$for$u20$alloc..boxed..Box$LT$dyn$u20$std..error..Error$u2b$core..marker..Sync$u2b$core..marker..Send$GT$$GT$..from..StringError$u20$as$u20$core..fmt..Debug$GT$3fmt17h5c3aee8e038b6165E
00000000008542e0 T _ZN73_$LT$core..num..dec2flt..ParseFloatError$u20$as$u20$std..error..Error$GT$11description17h69f61c02b9246a74E
0000000000854320 T _ZN76_$LT$std..error..Chain$u20$as$u20$core..iter..traits..iterator..Iterator$GT$4next17h8e199c6a9e5ce972E
0000000000854390 T _ZN3std4time7Instant3now17h1f22c490bc4d5122E
0000000000854460 T _ZN3std4time7Instant14duration_since17h9e359542526af869E
00000000008544e0 T _ZN3std4time7Instant22checked_duration_since17h6e5e2501f3033d73E
0000000000854540 T _ZN3std4time7Instant25saturating_duration_since17h3dabb0a9f004deb3E
00000000008545c0 T _ZN3std4time7Instant7elapsed17h95b56acd6b443949E
0000000000854620 T _ZN3std4time7Instant11checked_add17h9a3634081bd83e9eE
0000000000854680 T _ZN3std4time7Instant11checked_sub17h7e84398da72adc0aE
00000000008546e0 T _ZN88_$LT$std..time..Instant$u20$as$u20$core..ops..arith..Add$LT$core..time..Duration$GT$$GT$3add17hc2287328cd3da978E
0000000000854770 T _ZN94_$LT$std..time..Instant$u20$as$u20$core..ops..arith..AddAssign$LT$core..time..Duration$GT$$GT$10add_assign17hc15a1c9370366234E
00000000008547e0 T _ZN88_$LT$std..time..Instant$u20$as$u20$core..ops..arith..Sub$LT$core..time..Duration$GT$$GT$3sub17hc7943cd70ddc1ad8E
0000000000854870 T _ZN94_$LT$std..time..Instant$u20$as$u20$core..ops..arith..SubAssign$LT$core..time..Duration$GT$$GT$10sub_assign17hff3a6cdf553159a2E
00000000008548e0 T _ZN60_$LT$std..time..Instant$u20$as$u20$core..ops..arith..Sub$GT$3sub17hf79dac5bd311528aE
0000000000854950 T _ZN55_$LT$std..time..Instant$u20$as$u20$core..fmt..Debug$GT$3fmt17h3fde9122af9c19b6E
00000000008549a0 T _ZN3std4time10SystemTime3now17h27078b2f267d8be9E
00000000008549e0 T _ZN3std4time10SystemTime14duration_since17h5cbc278eb7d34a93E
0000000000854a50 T _ZN3std4time10SystemTime7elapsed17h0444b0d2a800dec5E
0000000000854ab0 T _ZN3std4time10SystemTime11checked_add17hb1ea376bdc70389aE
0000000000854b10 T _ZN3std4time10SystemTime11checked_sub17h01a1e7273fdd46d4E
0000000000854b70 T _ZN91_$LT$std..time..SystemTime$u20$as$u20$core..ops..arith..Add$LT$core..time..Duration$GT$$GT$3add17he335808907cbf6e5E
0000000000854c00 T _ZN97_$LT$std..time..SystemTime$u20$as$u20$core..ops..arith..AddAssign$LT$core..time..Duration$GT$$GT$10add_assign17hff5e75d1f2aa1eebE
0000000000854c70 T _ZN91_$LT$std..time..SystemTime$u20$as$u20$core..ops..arith..Sub$LT$core..time..Duration$GT$$GT$3sub17h45e5370bce35af48E
0000000000854d00 T _ZN97_$LT$std..time..SystemTime$u20$as$u20$core..ops..arith..SubAssign$LT$core..time..Duration$GT$$GT$10sub_assign17hcf9171d2183c9665E
0000000000854d70 T _ZN58_$LT$std..time..SystemTime$u20$as$u20$core..fmt..Debug$GT$3fmt17h772f61eb4d805996E
0000000000854dc0 T _ZN3std4time15SystemTimeError8duration17hff06d9ada081ef50E
0000000000854df0 T _ZN64_$LT$std..time..SystemTimeError$u20$as$u20$std..error..Error$GT$11description17hf62336594d09ecb9E
0000000000854e20 T _ZN65_$LT$std..time..SystemTimeError$u20$as$u20$core..fmt..Display$GT$3fmt17h58c7c80847148ef8E
0000000000854e90 T _ZN110_$LT$std..time..SystemTime$u20$as$u20$std..sys_common..FromInner$LT$std..sys..hermit..time..SystemTime$GT$$GT$10from_inner17h440c99f8f236d431E
0000000000854ed0 t _ZN3std10sys_common11at_exit_imp4init17h1bcadb3082611aaaE
0000000000854f60 t _ZN3std10sys_common11at_exit_imp7cleanup17hf389dab0e860c251E
00000000008551d0 t _ZN3std10sys_common11at_exit_imp4push17h4759ba0d5d36b473E
0000000000855280 T _ZN3std10sys_common7at_exit17h18c93e975d9e9dc9E
0000000000855300 T _ZN3std10sys_common7at_exit17h9cf2aff3b26635dfE
0000000000855380 T _ZN3std10sys_common7cleanup17h3690e64a867d9a9eE
00000000008553a0 T _ZN3std10sys_common7cleanup28_$u7b$$u7b$closure$u7d$$u7d$17h9c44671cefb19d21E
00000000008553d0 T _ZN3std6memchr6memchr17h067bf6fe43d6ed93E
0000000000855420 T _ZN3std6memchr7memrchr17hef3f60b521355412E
0000000000855470 T _ZN3std10std_detect6detect3bit4test17h23aba6eaa1990ef2E
0000000000855520 T _ZN54_$LT$std..error..Chain$u20$as$u20$core..fmt..Debug$GT$3fmt17hba4dbabefc091534E
00000000008555d0 t _ZN3std4time7Instant17h8061df0648cc8fb6E
0000000000855610 T _ZN60_$LT$std..time..Instant$u20$as$u20$core..cmp..PartialOrd$GT$2ge17h643139b0b4ea309bE
0000000000855680 t _ZN3std4time10SystemTime17hd33f038c7004df2bE
00000000008556c0 t _ZN3std4time15SystemTimeError17h98a76342c3495bf8E
0000000000855700 T _ZN63_$LT$std..time..SystemTimeError$u20$as$u20$core..fmt..Debug$GT$3fmt17h663d2adcb52011d7E
0000000000855790 T _ZN3std3sys6hermit4pipe8AnonPipe4read17h1d4d5c121617a036E
00000000008557d0 T _ZN3std3sys6hermit4pipe8AnonPipe13read_vectored17h6b8a3073c20f276aE
0000000000855810 T _ZN3std3sys6hermit4pipe8AnonPipe16is_read_vectored17h3b84d14c17a7328bE
0000000000855830 T _ZN3std3sys6hermit4pipe8AnonPipe5write17h018162e60a889255E
0000000000855870 T _ZN3std3sys6hermit4pipe8AnonPipe14write_vectored17h1c5e1a38b1f0d83eE
00000000008558b0 T _ZN3std3sys6hermit4pipe8AnonPipe17is_write_vectored17h61ca74a8f995b1e8E
00000000008558d0 T _ZN3std3sys6hermit4pipe8AnonPipe7diverge17hea32cb6860cf0c94E
00000000008558f0 T _ZN3std3sys6hermit11unsupported17h23f75c51122c5d17E
0000000000855940 T _ZN3std3sys6hermit11unsupported17h3c04c288afa64338E
0000000000855980 T _ZN3std3sys6hermit11unsupported17h4e25cc269ccf78ecE
00000000008559c0 T _ZN3std3sys6hermit11unsupported17h64a50c3698447c9dE
0000000000855a00 T _ZN3std3sys6hermit11unsupported17hfecedd3ec8f5c9d1E
0000000000855a40 T _ZN3std3sys6hermit11unsupported17hff2085644e562e63E
0000000000855a80 t _ZN3std3sys6hermit15unsupported_err17h7c49874668a0a566E
0000000000855ad0 T _ZN3std3sys6hermit6strlen17hfb229a61b36c93f1E
0000000000855b50 T floor
0000000000855b90 T _ZN3std3sys6hermit14abort_internal17h3d8e9c94ec8f4caeE
0000000000855ba0 T _ZN3std3sys6hermit19hashmap_random_keys17h3f2c18ae2153f9cdE
0000000000855bd0 T __rust_abort
0000000000855be0 T _ZN3std3sys6hermit4init17hb6e6a67ab2829f6fE
0000000000855c70 T _ZN3std3sys6hermit17decode_error_kind17hafb231f7b3b09a1cE
0000000000855f30 T _ZN3std3sys6hermit3cvt17ha4d831236470d997E
0000000000855fd0 T _ZN59_$LT$std..sys..hermit..Void$u20$as$u20$core..fmt..Debug$GT$3fmt17hbae861ab00a39a9cE
0000000000856000 T _ZN3std10std_detect6detect4arch7Feature6to_str17hd12867a4fcf4b25aE
0000000000856570 T _ZN114_$LT$core..iter..adapters..Enumerate$LT$I$GT$$u20$as$u20$core..iter..traits..double_ended..DoubleEndedIterator$GT$9try_rfold17h9e08ec6c5d7b6cbdE
00000000008566f0 T _ZN114_$LT$core..iter..adapters..Enumerate$LT$I$GT$$u20$as$u20$core..iter..traits..double_ended..DoubleEndedIterator$GT$9try_rfold9enumerate17hb6a5667c4f2b16dfE
0000000000856720 T _ZN114_$LT$core..iter..adapters..Enumerate$LT$I$GT$$u20$as$u20$core..iter..traits..double_ended..DoubleEndedIterator$GT$9try_rfold9enumerate28_$u7b$$u7b$closure$u7d$$u7d$17hb15f2e8ddcb3b673E
00000000008567d0 T _ZN42_$LT$$RF$T$u20$as$u20$core..fmt..Debug$GT$3fmt17h32183e9e58cd04fdE
0000000000856820 T _ZN42_$LT$$RF$T$u20$as$u20$core..fmt..Debug$GT$3fmt17h7e1f6f09dd23effcE
0000000000856870 T _ZN4core3ptr7mut_ptr31_$LT$impl$u20$$BP$mut$u20$T$GT$3add17h45e2db38fc6492b5E
00000000008568b0 T _ZN4core3ptr7mut_ptr31_$LT$impl$u20$$BP$mut$u20$T$GT$6offset17h413ba592a094ee19E
0000000000856900 T _ZN4core3ptr7mut_ptr31_$LT$impl$u20$$BP$mut$u20$T$GT$7is_null17hf823559ec25e1b33E
0000000000856940 T _ZN4core3ptr9const_ptr33_$LT$impl$u20$$BP$const$u20$T$GT$3add17h8def6bb11abf63fdE
0000000000856980 T _ZN4core3ptr9const_ptr33_$LT$impl$u20$$BP$const$u20$T$GT$6offset17h8ae370923fb7a0bdE
00000000008569d0 T _ZN4core3ptr9const_ptr33_$LT$impl$u20$$BP$const$u20$T$GT$7is_null17hcbe14cc3161c640cE
0000000000856a10 T _ZN4core4iter6traits8iterator8Iterator3rev17h3fedd82993a9ca7dE
0000000000856a60 T _ZN4core4iter6traits8iterator8Iterator3sum17h02d88279cbb35412E
0000000000856aa0 T _ZN4core4iter6traits8iterator8Iterator3sum17h04e48ed3e25c19b1E
0000000000856ae0 T _ZN4core4iter6traits8iterator8Iterator3sum17h52e5c0b8202ca80cE
0000000000856b20 T _ZN4core4iter6traits8iterator8Iterator3sum17h6a2e14c57d42c81cE
0000000000856b60 T _ZN4core4iter6traits8iterator8Iterator3sum17h8f3b6623cb5bd52bE
0000000000856ba0 T _ZN4core4iter6traits8iterator8Iterator3sum17hbcdfba38a962ea64E
0000000000856be0 T _ZN4core4iter6traits8iterator8Iterator3sum17hf3ae204f0e05cde9E
0000000000856c20 T _ZN4core4iter6traits8iterator8Iterator4fuse17he47a025eb7211340E
0000000000856c70 T _ZN4core4iter6traits8iterator8Iterator4fuse17heb98c44d613198a6E
0000000000856cc0 T _ZN4core4iter6traits8iterator8Iterator4fuse17hfc6d3fe098e20ab0E
0000000000856d10 T _ZN4core4iter6traits8iterator8Iterator7collect17h3f96269d75456d19E
0000000000856d60 T _ZN4core4iter6traits8iterator8Iterator8find_map17h21efaaa7c269526aE
0000000000856db0 T _ZN4core4iter6traits8iterator8Iterator8for_each17h860d761ebbe627e2E
0000000000856e20 T _ZN4core4iter8adapters12Rev$LT$T$GT$3new17h009f38db95343d18E
0000000000856e90 T _ZN4core4iter8adapters12Rev$LT$T$GT$3new17hea04d5e4bcd9eb77E
0000000000856ef0 T _ZN4core4iter8adapters15Cloned$LT$I$GT$3new17h216823c5f65555dcE
0000000000856f30 T _ZN4core4iter8adapters15StepBy$LT$I$GT$3new17h218148feab30c007E
0000000000856ff0 T _ZN4core4iter8adapters16Map$LT$I$C$F$GT$3new17h04ab7485f73183f7E
0000000000857030 T _ZN4core4iter8adapters16Map$LT$I$C$F$GT$3new17h11da50f121a6947bE
0000000000857070 T _ZN4core4iter8adapters16Map$LT$I$C$F$GT$3new17h503ab493b6f79456E
00000000008570b0 T _ZN4core4iter8adapters16Map$LT$I$C$F$GT$3new17h61bd8112529b76faE
00000000008570f0 T _ZN4core4iter8adapters16Map$LT$I$C$F$GT$3new17h638d6a99b6446160E
0000000000857130 T _ZN4core4iter8adapters16Map$LT$I$C$F$GT$3new17h6fa31c4542d2e320E
0000000000857170 T _ZN4core4iter8adapters16Map$LT$I$C$F$GT$3new17h81baf374ed5e54a7E
00000000008571b0 T _ZN4core4iter8adapters16Map$LT$I$C$F$GT$3new17h97de915724698bc6E
00000000008571f0 T _ZN4core4iter8adapters16Map$LT$I$C$F$GT$3new17h99572adf151cfba8E
0000000000857230 T _ZN4core4iter8adapters16Map$LT$I$C$F$GT$3new17hcecef8e73d68ff90E
0000000000857270 T _ZN4core4iter8adapters16Map$LT$I$C$F$GT$3new17hcf61c2591abf00b1E
00000000008572b0 T _ZN4core4iter8adapters16Map$LT$I$C$F$GT$3new17hef7bba107d829da1E
00000000008572f0 T _ZN4core4iter8adapters18Enumerate$LT$I$GT$3new17h4452ee37e3c4c23bE
0000000000857340 T _ZN4core4iter8adapters18Enumerate$LT$I$GT$3new17h4e25929e078efd58E
0000000000857390 T _ZN4core4iter8adapters18Enumerate$LT$I$GT$3new17hc5760a5cf5e63d30E
00000000008573e0 T _ZN4core4iter8adapters8map_fold17h21e2713ebdf1271cE
0000000000857400 T _ZN4core4iter8adapters8map_fold17h32acb9309e791f4fE
0000000000857420 T _ZN4core4iter8adapters8map_fold17h3fb791dff9cb9e29E
0000000000857440 T _ZN4core4iter8adapters8map_fold17h58eab31cd3267b18E
0000000000857460 T _ZN4core4iter8adapters8map_fold17h9c2a1cfb625708b2E
0000000000857480 T _ZN4core4iter8adapters8map_fold17hcdf922d9305bc6feE
00000000008574a0 T _ZN4core4iter8adapters8map_fold17hd6909b538a7cfa87E
00000000008574c0 T _ZN4core4iter8adapters8map_fold17he1351dc13ad1c607E
0000000000857510 T _ZN4core4iter8adapters8map_fold28_$u7b$$u7b$closure$u7d$$u7d$17h1189fc85a7b0c6d1E
0000000000857590 T _ZN4core4iter8adapters8map_fold28_$u7b$$u7b$closure$u7d$$u7d$17h154f76600290a9eeE
0000000000857620 T _ZN4core4iter8adapters8map_fold28_$u7b$$u7b$closure$u7d$$u7d$17h1f9a3ace061d563dE
00000000008576b0 T _ZN4core4iter8adapters8map_fold28_$u7b$$u7b$closure$u7d$$u7d$17h5c3866bd0b201e23E
0000000000857740 T _ZN4core4iter8adapters8map_fold28_$u7b$$u7b$closure$u7d$$u7d$17h92a0f48bac3ba655E
00000000008577d0 T _ZN4core4iter8adapters8map_fold28_$u7b$$u7b$closure$u7d$$u7d$17hbca64c7d24cbd8bdE
0000000000857860 T _ZN4core4iter8adapters8map_fold28_$u7b$$u7b$closure$u7d$$u7d$17hd7ceaee5c974b28aE
00000000008578f0 T _ZN4core4iter8adapters8map_fold28_$u7b$$u7b$closure$u7d$$u7d$17heab798adaa812b55E
0000000000857980 T _ZN4core5slice29_$LT$impl$u20$$u5b$T$u5d$$GT$3len17h078ebb569a80372aE
00000000008579c0 T _ZN4core5slice29_$LT$impl$u20$$u5b$T$u5d$$GT$4iter17h3e704b964f345602E
0000000000857ab0 T _ZN4core5slice29_$LT$impl$u20$$u5b$T$u5d$$GT$6as_ptr17h1d883e208b132058E
0000000000857ae0 T _ZN5alloc5slice29_$LT$impl$u20$$u5b$T$u5d$$GT$8into_vec17h733d8796479171b7E
0000000000857b30 t _ZN5alloc7raw_vec11alloc_guard17hf7e894bb56a08e18E
0000000000857be0 T _ZN5alloc7raw_vec15RawVec$LT$T$GT$13with_capacity17h3ecd4b7852f337b4E
0000000000857c20 T _ZN5alloc7raw_vec15RawVec$LT$T$GT$14from_raw_parts17hb040bb5e37ab0378E
0000000000857c70 T _ZN5alloc7raw_vec15RawVec$LT$T$GT$14from_raw_parts17hbae59b0ca15e6792E
0000000000857cc0 T _ZN5alloc7raw_vec15RawVec$LT$T$GT$14from_raw_parts17he3066ce371aa33c9E
0000000000857d10 T _ZN5alloc7raw_vec19RawVec$LT$T$C$A$GT$10set_memory17h059316c4e3d2f94eE
0000000000857da0 T _ZN5alloc7raw_vec19RawVec$LT$T$C$A$GT$10set_memory17h428227ee454341b7E
0000000000857e30 T _ZN5alloc7raw_vec19RawVec$LT$T$C$A$GT$10set_memory17ha13fc0db011329faE
0000000000857ec0 T _ZN5alloc7raw_vec19RawVec$LT$T$C$A$GT$10set_memory17ha30b49c9cc9cabdfE
0000000000857f50 T _ZN5alloc7raw_vec19RawVec$LT$T$C$A$GT$10set_memory17hd60a4e448a4184f3E
0000000000857fe0 T _ZN5alloc7raw_vec19RawVec$LT$T$C$A$GT$10set_memory17he00d98047ef6e186E
0000000000858070 T _ZN5alloc7raw_vec19RawVec$LT$T$C$A$GT$10set_memory17he2db5824f8f19321E
0000000000858100 T _ZN5alloc7raw_vec19RawVec$LT$T$C$A$GT$11allocate_in17h2918ddee8fa68c9aE
00000000008582a0 T _ZN5alloc7raw_vec19RawVec$LT$T$C$A$GT$11allocate_in28_$u7b$$u7b$closure$u7d$$u7d$17h0001de448aee25cbE
00000000008582c0 T _ZN5alloc7raw_vec19RawVec$LT$T$C$A$GT$11allocate_in28_$u7b$$u7b$closure$u7d$$u7d$17hf6abb545ae907b48E
00000000008582f0 T _ZN5alloc7raw_vec19RawVec$LT$T$C$A$GT$11allocate_in28_$u7b$$u7b$closure$u7d$$u7d$17hfbe833912d5c4fb2E
0000000000858320 T _ZN5alloc7raw_vec19RawVec$LT$T$C$A$GT$11try_reserve17h184d4f4f3b4aefb8E
00000000008583b0 T _ZN5alloc7raw_vec19RawVec$LT$T$C$A$GT$11try_reserve17h2bff4e661f97a7fbE
0000000000858440 T _ZN5alloc7raw_vec19RawVec$LT$T$C$A$GT$11try_reserve17h33593a37abae5e83E
00000000008584d0 T _ZN5alloc7raw_vec19RawVec$LT$T$C$A$GT$11try_reserve17h719997cbce0c9979E
0000000000858560 T _ZN5alloc7raw_vec19RawVec$LT$T$C$A$GT$11try_reserve17h916186e6de6da392E
00000000008585f0 T _ZN5alloc7raw_vec19RawVec$LT$T$C$A$GT$11try_reserve17hc426063bee52ec26E
0000000000858680 T _ZN5alloc7raw_vec19RawVec$LT$T$C$A$GT$11try_reserve17hfc525c4e258f0506E
0000000000858710 T _ZN5alloc7raw_vec19RawVec$LT$T$C$A$GT$13needs_to_grow17h06856d08e9868278E
00000000008587a0 T _ZN5alloc7raw_vec19RawVec$LT$T$C$A$GT$13needs_to_grow17h1e7aae1847aa5de0E
0000000000858830 T _ZN5alloc7raw_vec19RawVec$LT$T$C$A$GT$13needs_to_grow17h5ac534da5d821b9dE
00000000008588c0 T _ZN5alloc7raw_vec19RawVec$LT$T$C$A$GT$13needs_to_grow17h6067185eabf338f7E
0000000000858950 T _ZN5alloc7raw_vec19RawVec$LT$T$C$A$GT$13needs_to_grow17h6880e818ee30adb0E
00000000008589e0 T _ZN5alloc7raw_vec19RawVec$LT$T$C$A$GT$13needs_to_grow17h896db0f601edf904E
0000000000858a70 T _ZN5alloc7raw_vec19RawVec$LT$T$C$A$GT$13needs_to_grow17hb099fe5edd308898E
0000000000858b00 T _ZN5alloc7raw_vec19RawVec$LT$T$C$A$GT$13reserve_exact17hebd80c93e8bab292E
0000000000858ba0 T _ZN5alloc7raw_vec19RawVec$LT$T$C$A$GT$14current_memory17h37a77328f495e0a7E
0000000000858d20 T _ZN5alloc7raw_vec19RawVec$LT$T$C$A$GT$14current_memory17h42343ffb7272957bE
0000000000858ea0 T _ZN5alloc7raw_vec19RawVec$LT$T$C$A$GT$14current_memory17h4ab2cc2871342c1cE
0000000000859020 T _ZN5alloc7raw_vec19RawVec$LT$T$C$A$GT$14current_memory17h75eb8fe8bfd3a92fE
00000000008591a0 T _ZN5alloc7raw_vec19RawVec$LT$T$C$A$GT$14current_memory17h76c8d4f8f246ea35E
0000000000859320 T _ZN5alloc7raw_vec19RawVec$LT$T$C$A$GT$14current_memory17hf1225cf13bb38d29E
00000000008594a0 T _ZN5alloc7raw_vec19RawVec$LT$T$C$A$GT$14current_memory17hf45fad7ac2da600eE
0000000000859620 T _ZN5alloc7raw_vec19RawVec$LT$T$C$A$GT$14grow_amortized17h1d984c9d36e6f9c4E
00000000008599e0 T _ZN5alloc7raw_vec19RawVec$LT$T$C$A$GT$14grow_amortized17h29b20de4feaa94b4E
0000000000859da0 T _ZN5alloc7raw_vec19RawVec$LT$T$C$A$GT$14grow_amortized17h65b23b84a988cccbE
000000000085a160 T _ZN5alloc7raw_vec19RawVec$LT$T$C$A$GT$14grow_amortized17hb95396142efd07d9E
000000000085a520 T _ZN5alloc7raw_vec19RawVec$LT$T$C$A$GT$14grow_amortized17hdf3614900bd01b7bE
000000000085a8e0 T _ZN5alloc7raw_vec19RawVec$LT$T$C$A$GT$14grow_amortized17he8f82e583cf2f1c7E
000000000085aca0 T _ZN5alloc7raw_vec19RawVec$LT$T$C$A$GT$14grow_amortized17hea51ef0226bbdaf4E
000000000085b060 T _ZN5alloc7raw_vec19RawVec$LT$T$C$A$GT$16with_capacity_in17h9340225a38881b9cE
000000000085b0a0 T _ZN5alloc7raw_vec19RawVec$LT$T$C$A$GT$17from_raw_parts_in17h01a0031776c7c1cfE
000000000085b0f0 T _ZN5alloc7raw_vec19RawVec$LT$T$C$A$GT$17from_raw_parts_in17hb759259993a494bbE
000000000085b140 T _ZN5alloc7raw_vec19RawVec$LT$T$C$A$GT$17from_raw_parts_in17hdad8e7aba6c84910E
000000000085b190 T _ZN5alloc7raw_vec19RawVec$LT$T$C$A$GT$19capacity_from_bytes17h247fece6dce880caE
000000000085b360 T _ZN5alloc7raw_vec19RawVec$LT$T$C$A$GT$19capacity_from_bytes17h2664598f5b7afe01E
000000000085b530 T _ZN5alloc7raw_vec19RawVec$LT$T$C$A$GT$19capacity_from_bytes17h43cee553a898ad7cE
000000000085b700 T _ZN5alloc7raw_vec19RawVec$LT$T$C$A$GT$19capacity_from_bytes17ha22c296672efcbdeE
000000000085b8d0 T _ZN5alloc7raw_vec19RawVec$LT$T$C$A$GT$19capacity_from_bytes17hafd4a66760347de5E
000000000085baa0 T _ZN5alloc7raw_vec19RawVec$LT$T$C$A$GT$19capacity_from_bytes17hbfc02d13cfb94d02E
000000000085bc70 T _ZN5alloc7raw_vec19RawVec$LT$T$C$A$GT$19capacity_from_bytes17hf0052892d2bcc18dE
000000000085be40 T _ZN5alloc7raw_vec19RawVec$LT$T$C$A$GT$3ptr17h306cd2c3e460ea3dE
000000000085be70 T _ZN5alloc7raw_vec19RawVec$LT$T$C$A$GT$3ptr17h3532ad2f24f6b23bE
000000000085bea0 T _ZN5alloc7raw_vec19RawVec$LT$T$C$A$GT$3ptr17h4f196cf1b3d96312E
000000000085bed0 T _ZN5alloc7raw_vec19RawVec$LT$T$C$A$GT$3ptr17ha253b0fb1b5a6fbeE
000000000085bf00 T _ZN5alloc7raw_vec19RawVec$LT$T$C$A$GT$3ptr17hc1a080b1fef4037cE
000000000085bf30 T _ZN5alloc7raw_vec19RawVec$LT$T$C$A$GT$3ptr17hc3e138d22566e4b2E
000000000085bf60 T _ZN5alloc7raw_vec19RawVec$LT$T$C$A$GT$3ptr17hd6e47d2792481f1aE
000000000085bf90 T _ZN5alloc7raw_vec19RawVec$LT$T$C$A$GT$3ptr17he448ecd7f3fdf4d4E
000000000085bfc0 T _ZN5alloc7raw_vec19RawVec$LT$T$C$A$GT$6new_in17h51cc82fb503402d2E
000000000085c000 T _ZN5alloc7raw_vec19RawVec$LT$T$C$A$GT$7reserve17h21c678e7de296f2fE
000000000085c0a0 T _ZN5alloc7raw_vec19RawVec$LT$T$C$A$GT$7reserve17h2311b54c84939c77E
000000000085c140 T _ZN5alloc7raw_vec19RawVec$LT$T$C$A$GT$7reserve17h3e70922538f238a9E
000000000085c1e0 T _ZN5alloc7raw_vec19RawVec$LT$T$C$A$GT$7reserve17h60e67532a11baf48E
000000000085c280 T _ZN5alloc7raw_vec19RawVec$LT$T$C$A$GT$7reserve17h6bc1e61ca37efd52E
000000000085c320 T _ZN5alloc7raw_vec19RawVec$LT$T$C$A$GT$7reserve17h99ba14688f06e098E
000000000085c3c0 T _ZN5alloc7raw_vec19RawVec$LT$T$C$A$GT$7reserve17hd1b6de196bfbc586E
000000000085c460 T _ZN63_$LT$I$u20$as$u20$core..iter..traits..collect..IntoIterator$GT$9into_iter17h1b7421a371e11dc5E
000000000085c4b0 T _ZN63_$LT$I$u20$as$u20$core..iter..traits..collect..IntoIterator$GT$9into_iter17hd2b05ccece64e259E
000000000085c500 T _ZN63_$LT$I$u20$as$u20$core..iter..traits..collect..IntoIterator$GT$9into_iter17he00a43602b36c39dE
000000000085c530 T _ZN63_$LT$I$u20$as$u20$core..iter..traits..collect..IntoIterator$GT$9into_iter17hf43db67510138bd4E
000000000085c580 T _ZN73_$LT$core..iter..adapters..Rev$LT$T$GT$$u20$as$u20$core..clone..Clone$GT$5clone17h207410c403e6e4d7E
000000000085c5e0 T _ZN77_$LT$alloc..raw_vec..RawVec$LT$T$C$A$GT$$u20$as$u20$core..ops..drop..Drop$GT$4drop17h0cb4a41c2e8d97f3E
000000000085c660 T _ZN77_$LT$alloc..raw_vec..RawVec$LT$T$C$A$GT$$u20$as$u20$core..ops..drop..Drop$GT$4drop17h5ab8f6ebcd2e6bd6E
000000000085c6e0 T _ZN77_$LT$alloc..raw_vec..RawVec$LT$T$C$A$GT$$u20$as$u20$core..ops..drop..Drop$GT$4drop17h62c39a7906445d1dE
000000000085c760 T _ZN77_$LT$alloc..raw_vec..RawVec$LT$T$C$A$GT$$u20$as$u20$core..ops..drop..Drop$GT$4drop17h8e7392ee6694409cE
000000000085c7e0 T _ZN77_$LT$alloc..raw_vec..RawVec$LT$T$C$A$GT$$u20$as$u20$core..ops..drop..Drop$GT$4drop17h935797ce0b511817E
000000000085c860 T _ZN93_$LT$core..iter..adapters..Rev$LT$I$GT$$u20$as$u20$core..iter..traits..iterator..Iterator$GT$4next17h82d7e521ace3a84fE
000000000085c8a0 T _ZN93_$LT$core..iter..adapters..Rev$LT$I$GT$$u20$as$u20$core..iter..traits..iterator..Iterator$GT$8try_fold17h5eb57b0033694dbfE
000000000085c8e0 T _ZN96_$LT$core..iter..adapters..StepBy$LT$I$GT$$u20$as$u20$core..iter..traits..iterator..Iterator$GT$4next17h90d7b32553265a5cE
000000000085c950 T _ZN97_$LT$core..iter..adapters..Map$LT$I$C$F$GT$$u20$as$u20$core..iter..traits..iterator..Iterator$GT$4fold17h1a1266a03d83fb10E
000000000085c9b0 T _ZN97_$LT$core..iter..adapters..Map$LT$I$C$F$GT$$u20$as$u20$core..iter..traits..iterator..Iterator$GT$4fold17h344ea0a6afec73daE
000000000085ca10 T _ZN97_$LT$core..iter..adapters..Map$LT$I$C$F$GT$$u20$as$u20$core..iter..traits..iterator..Iterator$GT$4fold17h3d8666c1b7e7a82dE
000000000085ca70 T _ZN97_$LT$core..iter..adapters..Map$LT$I$C$F$GT$$u20$as$u20$core..iter..traits..iterator..Iterator$GT$4fold17h5ea64c59e0303e94E
000000000085cad0 T _ZN97_$LT$core..iter..adapters..Map$LT$I$C$F$GT$$u20$as$u20$core..iter..traits..iterator..Iterator$GT$4fold17h66b7c8e534647203E
000000000085cb30 T _ZN97_$LT$core..iter..adapters..Map$LT$I$C$F$GT$$u20$as$u20$core..iter..traits..iterator..Iterator$GT$4fold17h8771853fc9c64a8dE
000000000085cb90 T _ZN97_$LT$core..iter..adapters..Map$LT$I$C$F$GT$$u20$as$u20$core..iter..traits..iterator..Iterator$GT$4fold17h9ffd205aa3eb3dbaE
000000000085cbf0 T _ZN97_$LT$core..iter..adapters..Map$LT$I$C$F$GT$$u20$as$u20$core..iter..traits..iterator..Iterator$GT$4fold17hf12e6755a86e3a10E
000000000085cc60 T _ZN97_$LT$core..iter..adapters..Map$LT$I$C$F$GT$$u20$as$u20$core..iter..traits..iterator..Iterator$GT$4next17h8478949e63ac1c2fE
000000000085ccb0 T _ZN97_$LT$core..iter..adapters..Map$LT$I$C$F$GT$$u20$as$u20$core..iter..traits..iterator..Iterator$GT$4next17ha825c6afd3c90747E
000000000085cd00 T _ZN97_$LT$core..iter..adapters..Map$LT$I$C$F$GT$$u20$as$u20$core..iter..traits..iterator..Iterator$GT$4next17he2dfed63ff29b184E
000000000085cd60 T _ZN97_$LT$core..iter..adapters..Map$LT$I$C$F$GT$$u20$as$u20$core..iter..traits..iterator..Iterator$GT$4next17hf9ee40cf69c57e85E
000000000085cdb0 T _ZN97_$LT$core..iter..adapters..Map$LT$I$C$F$GT$$u20$as$u20$core..iter..traits..iterator..Iterator$GT$9size_hint17h0e37c8632307fe4fE
000000000085cdf0 T _ZN99_$LT$core..iter..adapters..Enumerate$LT$I$GT$$u20$as$u20$core..iter..traits..iterator..Iterator$GT$4next17h3a613f8c1646668bE
000000000085cec0 T _ZN99_$LT$core..iter..adapters..Enumerate$LT$I$GT$$u20$as$u20$core..iter..traits..iterator..Iterator$GT$4next17hb2415e90184c9d7dE
000000000085cf90 T _ZN3std3net4addr10SocketAddr3new17h07b84a04af031cbdE
000000000085d080 T _ZN3std3net4addr10SocketAddr2ip17h6aa4b6146153af62E
000000000085d130 T _ZN3std3net4addr10SocketAddr6set_ip17hb334ea9874dd4146E
000000000085d310 T _ZN3std3net4addr10SocketAddr4port17h72a5692068f06b14E
000000000085d380 T _ZN3std3net4addr10SocketAddr8set_port17h946acdeaee3051a0E
000000000085d400 T _ZN3std3net4addr10SocketAddr7is_ipv417haa27ff455ca28cf0E
000000000085d440 T _ZN3std3net4addr10SocketAddr7is_ipv617h00d51879e069f599E
000000000085d480 T _ZN3std3net4addr12SocketAddrV43new17hf044b56d0e6a8335E
000000000085d590 T _ZN3std3net4addr12SocketAddrV42ip17h974d369b0eca45c8E
000000000085d5b0 T _ZN3std3net4addr12SocketAddrV46set_ip17h1bc1d1e11b2cc87fE
000000000085d600 T _ZN3std3net4addr12SocketAddrV44port17h49ef2d3d5e45f146E
000000000085d630 T _ZN3std3net4addr12SocketAddrV48set_port17heb22f0115c22dcaeE
000000000085d680 T _ZN3std3net4addr12SocketAddrV63new17hc4540e0c02aa2f34E
000000000085d7e0 T _ZN3std3net4addr12SocketAddrV62ip17h4b1df6835850460fE
000000000085d810 T _ZN3std3net4addr12SocketAddrV66set_ip17h1ef1bf8fc935d7e6E
000000000085d870 T _ZN3std3net4addr12SocketAddrV64port17h23c28696d117bb77E
000000000085d8a0 T _ZN3std3net4addr12SocketAddrV68set_port17hf81da80d9bbc0505E
000000000085d8f0 T _ZN3std3net4addr12SocketAddrV68flowinfo17h22441f4f7c440b4fE
000000000085d920 T _ZN3std3net4addr12SocketAddrV612set_flowinfo17h88b32802c1961569E
000000000085d950 T _ZN3std3net4addr12SocketAddrV68scope_id17hb28b6a2fb53bc1d9E
000000000085d980 T _ZN3std3net4addr12SocketAddrV612set_scope_id17hfcfd0f2cba7cecbbE
000000000085d9b0 T _ZN123_$LT$std..net..addr..SocketAddrV4$u20$as$u20$std..sys_common..FromInner$LT$std..sys..hermit..net..netc..sockaddr_in$GT$$GT$10from_inner17h46d239ca3959e1deE
000000000085d9f0 T _ZN124_$LT$std..net..addr..SocketAddrV6$u20$as$u20$std..sys_common..FromInner$LT$std..sys..hermit..net..netc..sockaddr_in6$GT$$GT$10from_inner17h01b6735d19162eafE
000000000085da60 T _ZN102_$LT$std..net..addr..SocketAddr$u20$as$u20$core..convert..From$LT$std..net..addr..SocketAddrV4$GT$$GT$4from17h0ecc06af0a048bd6E
000000000085dab0 T _ZN102_$LT$std..net..addr..SocketAddr$u20$as$u20$core..convert..From$LT$std..net..addr..SocketAddrV6$GT$$GT$4from17haa1bf15e708f7acaE
000000000085db20 T _ZN152_$LT$$RF$std..net..addr..SocketAddr$u20$as$u20$std..sys_common..IntoInner$LT$$LP$$BP$const$u20$std..sys..hermit..net..netc..sockaddr$C$usize$RP$$GT$$GT$10into_inner17h77c6e16abdd49b32E
000000000085dbc0 T _ZN65_$LT$std..net..addr..SocketAddr$u20$as$u20$core..fmt..Display$GT$3fmt17h6e66a3d37af2543fE
000000000085dc50 T _ZN67_$LT$std..net..addr..SocketAddrV4$u20$as$u20$core..fmt..Display$GT$3fmt17he68a24721e4fa48bE
000000000085e110 T _ZN65_$LT$std..net..addr..SocketAddrV4$u20$as$u20$core..fmt..Debug$GT$3fmt17hf4a26c448fdde38cE
000000000085e160 T _ZN67_$LT$std..net..addr..SocketAddrV6$u20$as$u20$core..fmt..Display$GT$3fmt17h4e23cec75f0c714cE
000000000085e620 T _ZN65_$LT$std..net..addr..SocketAddrV6$u20$as$u20$core..fmt..Debug$GT$3fmt17hfc51727c6d3fc5efE
000000000085e670 T _ZN67_$LT$std..net..addr..SocketAddrV4$u20$as$u20$core..clone..Clone$GT$5clone17hdd2aa6c264cbefc1E
000000000085e6a0 T _ZN67_$LT$std..net..addr..SocketAddrV6$u20$as$u20$core..clone..Clone$GT$5clone17h0e4fa4c2f3419598E
000000000085e6f0 T _ZN69_$LT$std..net..addr..SocketAddrV4$u20$as$u20$core..cmp..PartialEq$GT$2eq17h0d0403fdcafff845E
000000000085e750 T _ZN69_$LT$std..net..addr..SocketAddrV6$u20$as$u20$core..cmp..PartialEq$GT$2eq17he94492f5d7e1cfa1E
000000000085e820 T _ZN70_$LT$std..net..addr..SocketAddrV4$u20$as$u20$core..cmp..PartialOrd$GT$11partial_cmp17h452b9f8eab7500d5E
000000000085e870 T _ZN70_$LT$std..net..addr..SocketAddrV6$u20$as$u20$core..cmp..PartialOrd$GT$11partial_cmp17h1b4748217c04732dE
000000000085e8c0 T _ZN63_$LT$std..net..addr..SocketAddrV4$u20$as$u20$core..cmp..Ord$GT$3cmp17h1f2e7f1b8c7696e2E
000000000085e960 T _ZN63_$LT$std..net..addr..SocketAddrV6$u20$as$u20$core..cmp..Ord$GT$3cmp17h1b290bdc1b4979a8E
000000000085ea00 T _ZN76_$LT$std..net..addr..SocketAddr$u20$as$u20$std..net..addr..ToSocketAddrs$GT$15to_socket_addrs17hb031ee91fb96558bE
000000000085eab0 T _ZN78_$LT$std..net..addr..SocketAddrV4$u20$as$u20$std..net..addr..ToSocketAddrs$GT$15to_socket_addrs17hfad53046d92ccbf3E
000000000085eb10 T _ZN78_$LT$std..net..addr..SocketAddrV6$u20$as$u20$std..net..addr..ToSocketAddrs$GT$15to_socket_addrs17h0846079b123d206dE
000000000085eb90 T _ZN71_$LT$$LP$$RF$str$C$u16$RP$$u20$as$u20$std..net..addr..ToSocketAddrs$GT$15to_socket_addrs17hffed1737be854c53E
000000000085ef60 T _ZN53_$LT$str$u20$as$u20$std..net..addr..ToSocketAddrs$GT$15to_socket_addrs17h463e40dd6d80c05eE
000000000085f160 T _ZN90_$LT$$RF$$u5b$std..net..addr..SocketAddr$u5d$$u20$as$u20$std..net..addr..ToSocketAddrs$GT$15to_socket_addrs17ha29b925c70d07d69E
000000000085f1e0 T _ZN3std3net6parser77_$LT$impl$u20$core..str..FromStr$u20$for$u20$std..net..addr..SocketAddrV4$GT$8from_str17h7b18b8b742987d91E
000000000085f280 T _ZN3std3net6parser77_$LT$impl$u20$core..str..FromStr$u20$for$u20$std..net..addr..SocketAddrV6$GT$8from_str17hd35970901c9ebd04E
000000000085f380 T _ZN3std3net6parser75_$LT$impl$u20$core..str..FromStr$u20$for$u20$std..net..addr..SocketAddr$GT$8from_str17hed8729703302c1d4E
000000000085f490 T _ZN3std10sys_common9backtrace4lock17ha995b5b8bffe6cb2E
000000000085f4b0 T _ZN81_$LT$std..sys_common..backtrace..lock..Guard$u20$as$u20$core..ops..drop..Drop$GT$4drop17hc6dd5c1e305b817bE
000000000085f4f0 T _ZN3std10sys_common9backtrace5print17h3a292164b5ab47e8E
000000000085f560 t _ZN3std10sys_common9backtrace6_print17h661db5569c7c3e13E
000000000085f660 T _ZN91_$LT$std..sys_common..backtrace.._print..DisplayBacktrace$u20$as$u20$core..fmt..Display$GT$3fmt17h17c18418656ac907E
000000000085f6b0 t _ZN3std10sys_common9backtrace10_print_fmt17h6774a0c306eb9e98E
000000000085fa60 T _ZN3std10sys_common9backtrace10_print_fmt28_$u7b$$u7b$closure$u7d$$u7d$17h5131afaa6a617406E
000000000085fae0 T _ZN3std10sys_common9backtrace10_print_fmt28_$u7b$$u7b$closure$u7d$$u7d$28_$u7b$$u7b$closure$u7d$$u7d$28_$u7b$$u7b$closure$u7d$$u7d$17h0d00038fe510fe61E
000000000085fb10 T _ZN3std10sys_common9backtrace10_print_fmt28_$u7b$$u7b$closure$u7d$$u7d$28_$u7b$$u7b$closure$u7d$$u7d$17hd7b3e1aff3f1d185E
000000000085fc80 T _ZN3std10sys_common9backtrace10_print_fmt28_$u7b$$u7b$closure$u7d$$u7d$17h62f9a1121df6d177E
000000000085fec0 T _ZN3std10sys_common9backtrace28__rust_begin_short_backtrace17h40c6ab7cb69d3075E
000000000085ff00 T _ZN3std10sys_common9backtrace18rust_backtrace_env17h1cd76aeb938a0a3cE
0000000000860000 T _ZN3std10sys_common9backtrace18rust_backtrace_env28_$u7b$$u7b$closure$u7d$$u7d$17h2e52295d0b7d4c03E
00000000008600a0 T _ZN3std10sys_common9backtrace15output_filename17h0b080cc999a61568E
0000000000860500 T _ZN3std3net4addr10SocketAddr2V417hdd3ea435ce0e540eE
0000000000860550 T _ZN3std3net4addr10SocketAddr2V617he3788321a94fc77aE
00000000008605b0 T _ZN63_$LT$std..net..addr..SocketAddr$u20$as$u20$core..fmt..Debug$GT$3fmt17h38cd96c5af0c8e43E
00000000008606f0 T _ZN65_$LT$std..net..addr..SocketAddr$u20$as$u20$core..clone..Clone$GT$5clone17h0135bd8fdd8dbe90E
0000000000860740 T _ZN103_$LT$alloc..vec..IntoIter$LT$T$GT$$u20$as$u20$core..iter..traits..double_ended..DoubleEndedIterator$GT$9next_back17h81a3f35c21bd740fE
00000000008608a0 T _ZN108_$LT$alloc..vec..Vec$LT$T$GT$$u20$as$u20$core..convert..From$LT$alloc..boxed..Box$LT$$u5b$T$u5d$$GT$$GT$$GT$4from17h900735bab8cae366E
00000000008608f0 T _ZN109_$LT$alloc..vec..Vec$LT$T$GT$$u20$as$u20$alloc..vec..SpecExtend$LT$$RF$T$C$core..slice..Iter$LT$T$GT$$GT$$GT$11spec_extend17h17a6835638f038c0E
0000000000860a50 T _ZN138_$LT$$LT$alloc..vec..IntoIter$LT$T$GT$$u20$as$u20$core..ops..drop..Drop$GT$..drop..DropGuard$LT$T$GT$$u20$as$u20$core..ops..drop..Drop$GT$4drop17h6087e01e68abd9deE
0000000000860ab0 T _ZN138_$LT$$LT$alloc..vec..IntoIter$LT$T$GT$$u20$as$u20$core..ops..drop..Drop$GT$..drop..DropGuard$LT$T$GT$$u20$as$u20$core..ops..drop..Drop$GT$4drop17h79dc131285cbe4cbE
0000000000860b10 T _ZN42_$LT$$RF$T$u20$as$u20$core..fmt..Debug$GT$3fmt17h220089c5571862e1E
0000000000860b60 T _ZN42_$LT$$RF$T$u20$as$u20$core..fmt..Debug$GT$3fmt17h53c566a3c9b5c7bdE
0000000000860bb0 T _ZN44_$LT$$RF$T$u20$as$u20$core..fmt..Display$GT$3fmt17h523bc1a5bb4add06E
0000000000860c00 T _ZN44_$LT$$RF$T$u20$as$u20$core..fmt..Display$GT$3fmt17hb081d8b0fc8eebb7E
0000000000860c50 T _ZN44_$LT$$RF$T$u20$as$u20$core..fmt..Display$GT$3fmt17hf2a60b115b3ec662E
0000000000860ca0 T _ZN45_$LT$T$u20$as$u20$alloc..string..ToString$GT$9to_string17h23056893d588f1b6E
0000000000860db0 T _ZN4core3cmp5impls69_$LT$impl$u20$core..cmp..PartialEq$LT$$RF$B$GT$$u20$for$u20$$RF$A$GT$2eq17h30f5fdd851e4666eE
0000000000860e00 T _ZN4core3cmp5impls69_$LT$impl$u20$core..cmp..PartialEq$LT$$RF$B$GT$$u20$for$u20$$RF$A$GT$2eq17h5747067f16ec57ecE
0000000000860e50 T _ZN4core3ptr7mut_ptr31_$LT$impl$u20$$BP$mut$u20$T$GT$7is_null17hdf09e4f0ae17c0e0E
0000000000860e90 T _ZN4core3ptr7mut_ptr31_$LT$impl$u20$$BP$mut$u20$T$GT$7is_null17he1331484b9798a6fE
0000000000860ed0 T _ZN4core3ptr9const_ptr33_$LT$impl$u20$$BP$const$u20$T$GT$7is_null17h4bb944643164b49dE
0000000000860f10 T _ZN4core3ptr9const_ptr33_$LT$impl$u20$$BP$const$u20$T$GT$7is_null17hf4b78a76f1310e9fE
0000000000860f50 T _ZN4core4iter6traits10exact_size17ExactSizeIterator3len17h192c26ad732c8795E
0000000000861130 T _ZN4core4iter6traits10exact_size17ExactSizeIterator3len17h392f0eea0ac05ff1E
0000000000861310 T _ZN4core4iter6traits10exact_size17ExactSizeIterator3len17hee796a7e1507335aE
00000000008614f0 t _ZN5alloc3vec12SetLenOnDrop13increment_len17h4d1677e5d2e34530E
0000000000861550 t _ZN5alloc3vec12SetLenOnDrop3new17h4fb955186c461410E
0000000000861590 T _ZN5alloc3vec12Vec$LT$T$GT$10as_mut_ptr17h2b4558a7efccc310E
00000000008615d0 T _ZN5alloc3vec12Vec$LT$T$GT$10as_mut_ptr17h641a62156e95790cE
0000000000861610 T _ZN5alloc3vec12Vec$LT$T$GT$10as_mut_ptr17h696df796b386a1ccE
0000000000861650 T _ZN5alloc3vec12Vec$LT$T$GT$10as_mut_ptr17h793d8ead1c799a4cE
0000000000861690 T _ZN5alloc3vec12Vec$LT$T$GT$10as_mut_ptr17h912f089d08ed1e8aE
00000000008616d0 T _ZN5alloc3vec12Vec$LT$T$GT$10as_mut_ptr17h9a21dc0ca5965a85E
0000000000861710 T _ZN5alloc3vec12Vec$LT$T$GT$10as_mut_ptr17hcf90814da7ed25a3E
0000000000861750 T _ZN5alloc3vec12Vec$LT$T$GT$10as_mut_ptr17he323147947c554deE
0000000000861790 T _ZN5alloc3vec12Vec$LT$T$GT$11extend_with17hba422193a14f85a5E
0000000000861990 T _ZN5alloc3vec12Vec$LT$T$GT$13reserve_exact17h3d790fbee5961fe1E
00000000008619d0 T _ZN5alloc3vec12Vec$LT$T$GT$13with_capacity17h73a9c45405ec9e95E
0000000000861a30 T _ZN5alloc3vec12Vec$LT$T$GT$14from_raw_parts17h37fb4aeba5fef35aE
0000000000861ab0 T _ZN5alloc3vec12Vec$LT$T$GT$16extend_desugared17h70d4a1886008c39cE
0000000000861c80 T _ZN5alloc3vec12Vec$LT$T$GT$17extend_from_slice17hd598402426e4a5e3E
0000000000861ce0 T _ZN5alloc3vec12Vec$LT$T$GT$3len17h20139662392fa954E
0000000000861d10 T _ZN5alloc3vec12Vec$LT$T$GT$3len17h2a8f6668ceb4a572E
0000000000861d40 T _ZN5alloc3vec12Vec$LT$T$GT$3len17h876c931035dd92a8E
0000000000861d70 T _ZN5alloc3vec12Vec$LT$T$GT$3len17h97931e3124ff0b6eE
0000000000861da0 T _ZN5alloc3vec12Vec$LT$T$GT$3len17haa34ded7b2547d18E
0000000000861dd0 T _ZN5alloc3vec12Vec$LT$T$GT$3len17hb89ca733711fb782E
0000000000861e00 T _ZN5alloc3vec12Vec$LT$T$GT$3len17hcb821115ef51b482E
0000000000861e30 T _ZN5alloc3vec12Vec$LT$T$GT$3len17heda3eb564e0d7514E
0000000000861e60 T _ZN5alloc3vec12Vec$LT$T$GT$3new17h1a734c37dfdf86b0E
0000000000861eb0 T _ZN5alloc3vec12Vec$LT$T$GT$3new17h23637b21eeaa0605E
0000000000861f00 T _ZN5alloc3vec12Vec$LT$T$GT$3new17h76407c5f8408c377E
0000000000861f50 T _ZN5alloc3vec12Vec$LT$T$GT$3new17h9a5fe0388369e5ecE
0000000000861fa0 T _ZN5alloc3vec12Vec$LT$T$GT$3new17ha3132c7bb41e32bbE
0000000000861ff0 T _ZN5alloc3vec12Vec$LT$T$GT$3new17he838bb0041f966a8E
0000000000862040 T _ZN5alloc3vec12Vec$LT$T$GT$3pop17h402b79ce1985000dE
0000000000862100 T _ZN5alloc3vec12Vec$LT$T$GT$4push17h31f0abb404d91e17E
0000000000862230 T _ZN5alloc3vec12Vec$LT$T$GT$4push17h34486d6f1a5cf57dE
0000000000862370 T _ZN5alloc3vec12Vec$LT$T$GT$4push17hbd6efa9bfbbd58e6E
0000000000862480 T _ZN5alloc3vec12Vec$LT$T$GT$4push17hc42e98582b0f6e5aE
0000000000862590 T _ZN5alloc3vec12Vec$LT$T$GT$4push17hf73c98be7ffa67e5E
00000000008626a0 T _ZN5alloc3vec12Vec$LT$T$GT$5clear17h3269cd778c36425cE
00000000008626d0 T _ZN5alloc3vec12Vec$LT$T$GT$5drain17h77e2b628c40999b7E
00000000008629e0 T _ZN5alloc3vec12Vec$LT$T$GT$6as_ptr17h7aa6788887e0540dE
0000000000862a20 T _ZN5alloc3vec12Vec$LT$T$GT$6as_ptr17hc03f55717e55268fE
0000000000862a60 T _ZN5alloc3vec12Vec$LT$T$GT$6as_ptr17he0560a7547fa4e03E
0000000000862aa0 T _ZN5alloc3vec12Vec$LT$T$GT$6resize17h11067010090749fdE
0000000000862b60 T _ZN5alloc3vec12Vec$LT$T$GT$7reserve17h431ed119b503197cE
0000000000862ba0 T _ZN5alloc3vec12Vec$LT$T$GT$7reserve17h4f432cd1c02be820E
0000000000862be0 T _ZN5alloc3vec12Vec$LT$T$GT$7reserve17h5338089984277c21E
0000000000862c20 T _ZN5alloc3vec12Vec$LT$T$GT$7reserve17h62c8a91324b3d88eE
0000000000862c60 T _ZN5alloc3vec12Vec$LT$T$GT$7reserve17h7c1257d191096aa8E
0000000000862ca0 T _ZN5alloc3vec12Vec$LT$T$GT$7reserve17h7e31a3ebf54b6cd2E
0000000000862ce0 T _ZN5alloc3vec12Vec$LT$T$GT$7reserve17hfb909eee7e907938E
0000000000862d20 T _ZN5alloc3vec12Vec$LT$T$GT$7set_len17h0728672328e36f69E
0000000000862d90 T _ZN5alloc3vec12Vec$LT$T$GT$7set_len17hb11bbba471aaae8aE
0000000000862e00 T _ZN5alloc3vec12Vec$LT$T$GT$8capacity17h2d75ec61aabc50cdE
0000000000862e60 T _ZN5alloc3vec12Vec$LT$T$GT$8capacity17h8fce4c5ec4b5fe9aE
0000000000862ec0 T _ZN5alloc3vec12Vec$LT$T$GT$8is_empty17h26163dab612f8d56E
0000000000862f00 T _ZN5alloc3vec12Vec$LT$T$GT$8is_empty17h9dfb0afbc6570d07E
0000000000862f40 T _ZN5alloc3vec12Vec$LT$T$GT$9shrink_to17h4a0b6ac7edbf96c5E
0000000000862f90 T _ZN5alloc3vec17IntoIter$LT$T$GT$16as_raw_mut_slice17h173fd0f7798f7790E
0000000000862ff0 T _ZN5alloc3vec17IntoIter$LT$T$GT$16as_raw_mut_slice17he96d7a3c10e75dbeE
0000000000863050 T _ZN5alloc3vec17IntoIter$LT$T$GT$8as_slice17h1d78f48cd9f37ddaE
00000000008630a0 T _ZN63_$LT$I$u20$as$u20$core..iter..traits..collect..IntoIterator$GT$9into_iter17hade4fabfe81447e1E
00000000008630f0 T _ZN66_$LT$alloc..vec..SetLenOnDrop$u20$as$u20$core..ops..drop..Drop$GT$4drop17hac149fea30ad6f88E
0000000000863120 T _ZN66_$LT$alloc..vec..Vec$LT$T$GT$$u20$as$u20$core..ops..drop..Drop$GT$4drop17hdc8acf79466cf5dbE
0000000000863180 T _ZN66_$LT$alloc..vec..Vec$LT$T$GT$$u20$as$u20$core..ops..drop..Drop$GT$4drop17hea224c2fc543a37dE
00000000008631c0 T _ZN66_$LT$alloc..vec..Vec$LT$T$GT$$u20$as$u20$core..ops..drop..Drop$GT$4drop17hf12fc40279a3d687E
0000000000863220 T _ZN68_$LT$alloc..vec..Vec$LT$T$GT$$u20$as$u20$core..ops..deref..Deref$GT$5deref17h55f855b55e945429E
0000000000863270 T _ZN68_$LT$alloc..vec..Vec$LT$T$GT$$u20$as$u20$core..ops..deref..Deref$GT$5deref17hc5c1a3178bfc56b4E
00000000008632c0 T _ZN68_$LT$alloc..vec..Vec$LT$T$GT$$u20$as$u20$core..ops..deref..Deref$GT$5deref17hc980bd1c77b709a9E
0000000000863310 T _ZN71_$LT$alloc..vec..IntoIter$LT$T$GT$$u20$as$u20$core..ops..drop..Drop$GT$4drop17h4fb128f0c1c65238E
0000000000863350 T _ZN71_$LT$alloc..vec..IntoIter$LT$T$GT$$u20$as$u20$core..ops..drop..Drop$GT$4drop17h6d4a7166b5279a21E
00000000008633a0 T _ZN71_$LT$alloc..vec..Vec$LT$T$GT$$u20$as$u20$core..ops..deref..DerefMut$GT$9deref_mut17he8e82e02be497d1bE
00000000008633f0 T _ZN77_$LT$alloc..vec..Vec$LT$T$GT$$u20$as$u20$core..ops..index..Index$LT$I$GT$$GT$5index17h261990acf001e29cE
0000000000863450 T _ZN77_$LT$alloc..vec..Vec$LT$T$GT$$u20$as$u20$core..ops..index..Index$LT$I$GT$$GT$5index17h9d0dc3499b572cadE
00000000008634c0 T _ZN77_$LT$alloc..vec..Vec$LT$T$GT$$u20$as$u20$core..ops..index..Index$LT$I$GT$$GT$5index17hf3aad03dfe68f291E
0000000000863530 T _ZN80_$LT$alloc..vec..Vec$LT$T$GT$$u20$as$u20$alloc..vec..SpecExtend$LT$T$C$I$GT$$GT$11spec_extend17h332a3f66ac6c072eE
0000000000863960 T _ZN80_$LT$alloc..vec..Vec$LT$T$GT$$u20$as$u20$alloc..vec..SpecExtend$LT$T$C$I$GT$$GT$11spec_extend28_$u7b$$u7b$closure$u7d$$u7d$17h501cf3ff280d173bE
00000000008639e0 T _ZN80_$LT$alloc..vec..Vec$LT$T$GT$$u20$as$u20$alloc..vec..SpecExtend$LT$T$C$I$GT$$GT$9from_iter17hc0d4efcc1c66267fE
0000000000863a40 T _ZN80_$LT$alloc..vec..Vec$LT$T$GT$$u20$as$u20$core..ops..index..IndexMut$LT$I$GT$$GT$9index_mut17hc1fefb5374316248E
0000000000863ab0 T _ZN80_$LT$alloc..vec..Vec$LT$T$GT$$u20$as$u20$core..ops..index..IndexMut$LT$I$GT$$GT$9index_mut17hfda5ff42fe2d3f68E
0000000000863b30 T _ZN83_$LT$$RF$mut$u20$I$u20$as$u20$core..iter..traits..exact_size..ExactSizeIterator$GT$3len17h7db7fa6d3cb758a2E
0000000000863b60 T _ZN83_$LT$$RF$mut$u20$I$u20$as$u20$core..iter..traits..exact_size..ExactSizeIterator$GT$3len17hf5626cfe706be4f1E
0000000000863b90 T _ZN86_$LT$alloc..vec..ExtendElement$LT$T$GT$$u20$as$u20$alloc..vec..ExtendWith$LT$T$GT$$GT$4last17hd763565a0b0d4f33E
0000000000863bb0 T _ZN86_$LT$alloc..vec..ExtendElement$LT$T$GT$$u20$as$u20$alloc..vec..ExtendWith$LT$T$GT$$GT$4next17hc2f1e77ea5778b7aE
0000000000863be0 T _ZN86_$LT$alloc..vec..Vec$LT$T$GT$$u20$as$u20$core..iter..traits..collect..IntoIterator$GT$9into_iter17h21cba81b2601aa23E
0000000000863e20 T _ZN86_$LT$alloc..vec..Vec$LT$T$GT$$u20$as$u20$core..iter..traits..collect..IntoIterator$GT$9into_iter17h87519a6721fc8edfE
0000000000864060 T _ZN86_$LT$alloc..vec..Vec$LT$T$GT$$u20$as$u20$core..iter..traits..collect..IntoIterator$GT$9into_iter17hc996c3841461857cE
00000000008642a0 T _ZN86_$LT$alloc..vec..Vec$LT$T$GT$$u20$as$u20$core..iter..traits..collect..IntoIterator$GT$9into_iter17hd5b3f1e0a8634a96E
00000000008644e0 T _ZN86_$LT$alloc..vec..Vec$LT$T$GT$$u20$as$u20$core..iter..traits..collect..IntoIterator$GT$9into_iter17hdf8f63c1510e7ef9E
0000000000864720 T _ZN88_$LT$alloc..vec..IntoIter$LT$T$GT$$u20$as$u20$core..iter..traits..iterator..Iterator$GT$4next17h2a95f9783d699515E
0000000000864850 T _ZN88_$LT$alloc..vec..IntoIter$LT$T$GT$$u20$as$u20$core..iter..traits..iterator..Iterator$GT$4next17h7c7b8c9ca8216859E
00000000008649d0 T _ZN88_$LT$alloc..vec..IntoIter$LT$T$GT$$u20$as$u20$core..iter..traits..iterator..Iterator$GT$4next17hde5b15d5041d1947E
0000000000864b70 T _ZN88_$LT$alloc..vec..IntoIter$LT$T$GT$$u20$as$u20$core..iter..traits..iterator..Iterator$GT$4next17hfa39f5d41cc2e385E
0000000000864cc0 T _ZN88_$LT$alloc..vec..IntoIter$LT$T$GT$$u20$as$u20$core..iter..traits..iterator..Iterator$GT$9size_hint17h0f158262eea6c0b2E
0000000000864d70 T _ZN88_$LT$alloc..vec..IntoIter$LT$T$GT$$u20$as$u20$core..iter..traits..iterator..Iterator$GT$9size_hint17h17950c50c2ac03beE
0000000000864e20 T _ZN88_$LT$alloc..vec..IntoIter$LT$T$GT$$u20$as$u20$core..iter..traits..iterator..Iterator$GT$9size_hint17h7ed96642560de11fE
0000000000864ed0 T _ZN88_$LT$alloc..vec..IntoIter$LT$T$GT$$u20$as$u20$core..iter..traits..iterator..Iterator$GT$9size_hint17hf34b05a20e83d1d0E
0000000000864f80 T _ZN90_$LT$$RF$alloc..vec..Vec$LT$T$GT$$u20$as$u20$core..iter..traits..collect..IntoIterator$GT$9into_iter17h2660f0f45c20254aE
0000000000864fd0 T _ZN95_$LT$alloc..vec..Vec$LT$T$GT$$u20$as$u20$core..iter..traits..collect..FromIterator$LT$T$GT$$GT$9from_iter17h606296c8044b848dE
0000000000865030 T _ZN3std2io5impls70_$LT$impl$u20$std..io..Write$u20$for$u20$alloc..vec..Vec$LT$u8$GT$$GT$5write17h79812119c4b165e4E
00000000008650b0 T _ZN3std2io5impls70_$LT$impl$u20$std..io..Write$u20$for$u20$alloc..vec..Vec$LT$u8$GT$$GT$14write_vectored17h6f60a04c1dc515a4E
0000000000865210 T _ZN84_$LT$$LP$std..net..ip..IpAddr$C$u16$RP$$u20$as$u20$std..net..addr..ToSocketAddrs$GT$15to_socket_addrs17h459f0296a73cea14E
00000000008652f0 T _ZN86_$LT$$LP$std..net..ip..Ipv4Addr$C$u16$RP$$u20$as$u20$std..net..addr..ToSocketAddrs$GT$15to_socket_addrs17hf895c06702a2ad07E
0000000000865350 T _ZN86_$LT$$LP$std..net..ip..Ipv6Addr$C$u16$RP$$u20$as$u20$std..net..addr..ToSocketAddrs$GT$15to_socket_addrs17h8d4d79a68793eafcE
00000000008653d0 T _ZN3std3net2ip6IpAddr14is_unspecified17hbc0773b567f7925cE
0000000000865450 T _ZN3std3net2ip6IpAddr11is_loopback17h272e86f12f3979c5E
00000000008654d0 T _ZN3std3net2ip6IpAddr9is_global17h7c1b8e9193a9a127E
0000000000865550 T _ZN3std3net2ip6IpAddr12is_multicast17h9596d2c3369a2eadE
00000000008655d0 T _ZN3std3net2ip6IpAddr16is_documentation17h096fbe6c86288443E
0000000000865650 T _ZN3std3net2ip6IpAddr7is_ipv417h9fe072e19cb8eb79E
00000000008656a0 T _ZN3std3net2ip6IpAddr7is_ipv617hc1cecd4c24a19826E
00000000008656f0 T _ZN3std3net2ip8Ipv4Addr3new17hded1e09bf53b18ecE
0000000000865790 T _ZN3std3net2ip8Ipv4Addr6octets17h2be655b0a8ec3e80E
00000000008657d0 T _ZN3std3net2ip8Ipv4Addr14is_unspecified17hc06668114b056c1dE
0000000000865800 T _ZN3std3net2ip8Ipv4Addr11is_loopback17h754d13696631987eE
0000000000865840 T _ZN3std3net2ip8Ipv4Addr10is_private17h9bcf2efd86094897E
0000000000865900 T _ZN3std3net2ip8Ipv4Addr13is_link_local17hbd59494a841dab38E
0000000000865950 T _ZN3std3net2ip8Ipv4Addr9is_global17hbe225a830c3349a8E
0000000000865bc0 T _ZN3std3net2ip8Ipv4Addr9is_shared17h7c3e56c1c25456d6E
0000000000865c30 T _ZN3std3net2ip8Ipv4Addr27is_ietf_protocol_assignment17h0f95234b12290621E
0000000000865cd0 T _ZN3std3net2ip8Ipv4Addr15is_benchmarking17hed9018c317593cd2E
0000000000865d40 T _ZN3std3net2ip8Ipv4Addr11is_reserved17h4fc8de8956b19b8eE
0000000000865db0 T _ZN3std3net2ip8Ipv4Addr12is_multicast17hafec46eaa1fd4c96E
0000000000865e20 T _ZN3std3net2ip8Ipv4Addr12is_broadcast17h945d9f0f0ac50298E
0000000000865e60 T _ZN3std3net2ip8Ipv4Addr16is_documentation17h7f20d28d8c32598fE
0000000000865f00 T _ZN3std3net2ip8Ipv4Addr18to_ipv6_compatible17hf35ba335e18a005dE
0000000000865fa0 T _ZN3std3net2ip8Ipv4Addr14to_ipv6_mapped17h4f042beda5c55d1aE
0000000000866040 T _ZN59_$LT$std..net..ip..IpAddr$u20$as$u20$core..fmt..Display$GT$3fmt17h33d955f238f70589E
00000000008660d0 T _ZN90_$LT$std..net..ip..IpAddr$u20$as$u20$core..convert..From$LT$std..net..ip..Ipv4Addr$GT$$GT$4from17h9ada1428135f29abE
0000000000866110 T _ZN90_$LT$std..net..ip..IpAddr$u20$as$u20$core..convert..From$LT$std..net..ip..Ipv6Addr$GT$$GT$4from17h38b66e975b31de13E
0000000000866160 T _ZN61_$LT$std..net..ip..Ipv4Addr$u20$as$u20$core..fmt..Display$GT$3fmt17hc02b1ddf4a2832fdE
0000000000866790 T _ZN59_$LT$std..net..ip..Ipv4Addr$u20$as$u20$core..fmt..Debug$GT$3fmt17h734564cd2c9243d2E
00000000008667e0 T _ZN61_$LT$std..net..ip..Ipv4Addr$u20$as$u20$core..clone..Clone$GT$5clone17h2e08ee9c4a07a1acE
0000000000866810 T _ZN63_$LT$std..net..ip..Ipv4Addr$u20$as$u20$core..cmp..PartialEq$GT$2eq17hcecaef66a7b23ed2E
0000000000866850 T _ZN91_$LT$std..net..ip..IpAddr$u20$as$u20$core..cmp..PartialEq$LT$std..net..ip..Ipv4Addr$GT$$GT$2eq17h71e2d5ee31dfb36cE
00000000008668c0 T _ZN91_$LT$std..net..ip..Ipv4Addr$u20$as$u20$core..cmp..PartialEq$LT$std..net..ip..IpAddr$GT$$GT$2eq17hf632918370118d80E
0000000000866930 T _ZN64_$LT$std..net..ip..Ipv4Addr$u20$as$u20$core..cmp..PartialOrd$GT$11partial_cmp17haf72c2063324cf90E
0000000000866980 T _ZN92_$LT$std..net..ip..IpAddr$u20$as$u20$core..cmp..PartialOrd$LT$std..net..ip..Ipv4Addr$GT$$GT$11partial_cmp17h6972e88814c76b7fE
00000000008669f0 T _ZN92_$LT$std..net..ip..Ipv4Addr$u20$as$u20$core..cmp..PartialOrd$LT$std..net..ip..IpAddr$GT$$GT$11partial_cmp17h725a8051ceebf537E
0000000000866a60 T _ZN57_$LT$std..net..ip..Ipv4Addr$u20$as$u20$core..cmp..Ord$GT$3cmp17h5aea4c6b8ed0c5fcE
0000000000866ac0 T _ZN111_$LT$std..net..ip..Ipv4Addr$u20$as$u20$std..sys_common..AsInner$LT$std..sys..hermit..net..netc..in_addr$GT$$GT$8as_inner17h2c42b3759b1e76d3E
0000000000866ae0 T _ZN113_$LT$std..net..ip..Ipv4Addr$u20$as$u20$std..sys_common..FromInner$LT$std..sys..hermit..net..netc..in_addr$GT$$GT$10from_inner17h67de12e32fdf7adbE
0000000000866b10 T _ZN3std3net2ip83_$LT$impl$u20$core..convert..From$LT$std..net..ip..Ipv4Addr$GT$$u20$for$u20$u32$GT$4from17hc517d2b77b1d04b1E
0000000000866b60 T _ZN73_$LT$std..net..ip..Ipv4Addr$u20$as$u20$core..convert..From$LT$u32$GT$$GT$4from17hb9bcfeacacabb9ccE
0000000000866ba0 T _ZN93_$LT$std..net..ip..Ipv4Addr$u20$as$u20$core..convert..From$LT$$u5b$u8$u3b$$u20$4$u5d$$GT$$GT$4from17h176577a82d680cf0E
0000000000866bf0 T _ZN91_$LT$std..net..ip..IpAddr$u20$as$u20$core..convert..From$LT$$u5b$u8$u3b$$u20$4$u5d$$GT$$GT$4from17ha095dcd8ab681945E
0000000000866c40 T _ZN3std3net2ip8Ipv6Addr3new17h2c0bfd88e3661864E
0000000000866eb0 T _ZN3std3net2ip8Ipv6Addr8segments17hd922077f946cc1c6E
0000000000867020 T _ZN3std3net2ip8Ipv6Addr14is_unspecified17h1c6d2553c66dbf2fE
0000000000867070 T _ZN3std3net2ip8Ipv6Addr11is_loopback17heed338d8fbc6ccadE
00000000008670c0 T _ZN3std3net2ip8Ipv6Addr9is_global17hfeeecbc4bca5b882E
0000000000867140 T _ZN3std3net2ip8Ipv6Addr15is_unique_local17haead59d5ef5ad3faE
0000000000867180 T _ZN3std3net2ip8Ipv6Addr28is_unicast_link_local_strict17h8a05a02d9556ffb1E
0000000000867250 T _ZN3std3net2ip8Ipv6Addr21is_unicast_link_local17h0cfadce7ba3c4d92E
0000000000867290 T _ZN3std3net2ip8Ipv6Addr21is_unicast_site_local17h5d9732ddc78e9ad7E
00000000008672d0 T _ZN3std3net2ip8Ipv6Addr16is_documentation17hb6fe4a84721e8798E
0000000000867340 T _ZN3std3net2ip8Ipv6Addr17is_unicast_global17h4af8c506c4e53ec1E
0000000000867480 T _ZN3std3net2ip8Ipv6Addr15multicast_scope17h25d67144261332dfE
0000000000867530 T _ZN3std3net2ip8Ipv6Addr12is_multicast17h16495f5d83fd1349E
0000000000867570 T _ZN3std3net2ip8Ipv6Addr7to_ipv417hd21ebb6c4a58d941E
00000000008676a0 T _ZN3std3net2ip8Ipv6Addr6octets17hd2eb006a29ad8d89E
00000000008676e0 T _ZN61_$LT$std..net..ip..Ipv6Addr$u20$as$u20$core..fmt..Display$GT$3fmt17h38e6d971f80adc58E
0000000000868090 t _ZN61_$LT$std..net..ip..Ipv6Addr$u20$as$u20$core..fmt..Display$GT$3fmt12fmt_subslice17hf1191bc5d70b9994E
0000000000868300 T _ZN59_$LT$std..net..ip..Ipv6Addr$u20$as$u20$core..fmt..Debug$GT$3fmt17h663d265d633918b4E
0000000000868350 T _ZN61_$LT$std..net..ip..Ipv6Addr$u20$as$u20$core..clone..Clone$GT$5clone17h95622f3f4c0ceeeeE
0000000000868390 T _ZN63_$LT$std..net..ip..Ipv6Addr$u20$as$u20$core..cmp..PartialEq$GT$2eq17he1828c2d875d45caE
00000000008683e0 T _ZN91_$LT$std..net..ip..Ipv6Addr$u20$as$u20$core..cmp..PartialEq$LT$std..net..ip..IpAddr$GT$$GT$2eq17hee22e178951e90f2E
0000000000868450 T _ZN91_$LT$std..net..ip..IpAddr$u20$as$u20$core..cmp..PartialEq$LT$std..net..ip..Ipv6Addr$GT$$GT$2eq17h5d24959cb655d309E
00000000008684c0 T _ZN64_$LT$std..net..ip..Ipv6Addr$u20$as$u20$core..cmp..PartialOrd$GT$11partial_cmp17h777cab3603b0d5edE
0000000000868510 T _ZN92_$LT$std..net..ip..IpAddr$u20$as$u20$core..cmp..PartialOrd$LT$std..net..ip..Ipv6Addr$GT$$GT$11partial_cmp17h316de507da23cd0fE
0000000000868580 T _ZN92_$LT$std..net..ip..Ipv6Addr$u20$as$u20$core..cmp..PartialOrd$LT$std..net..ip..IpAddr$GT$$GT$11partial_cmp17h53d537d889a70748E
00000000008685f0 T _ZN57_$LT$std..net..ip..Ipv6Addr$u20$as$u20$core..cmp..Ord$GT$3cmp17hb87e0efc5c241fdbE
0000000000868650 T _ZN112_$LT$std..net..ip..Ipv6Addr$u20$as$u20$std..sys_common..AsInner$LT$std..sys..hermit..net..netc..in6_addr$GT$$GT$8as_inner17hc8836aee9b050b62E
0000000000868670 T _ZN114_$LT$std..net..ip..Ipv6Addr$u20$as$u20$std..sys_common..FromInner$LT$std..sys..hermit..net..netc..in6_addr$GT$$GT$10from_inner17ha95d4d9f3f383f53E
00000000008686c0 T _ZN3std3net2ip84_$LT$impl$u20$core..convert..From$LT$std..net..ip..Ipv6Addr$GT$$u20$for$u20$u128$GT$4from17hf1f2722b93ed2c61E
0000000000868710 T _ZN74_$LT$std..net..ip..Ipv6Addr$u20$as$u20$core..convert..From$LT$u128$GT$$GT$4from17hede4de71bbe01b49E
0000000000868770 T _ZN94_$LT$std..net..ip..Ipv6Addr$u20$as$u20$core..convert..From$LT$$u5b$u8$u3b$$u20$16$u5d$$GT$$GT$4from17h16ddbbc3e99d6684E
00000000008687e0 T _ZN94_$LT$std..net..ip..Ipv6Addr$u20$as$u20$core..convert..From$LT$$u5b$u16$u3b$$u20$8$u5d$$GT$$GT$4from17he26ec7159ac51f8dE
00000000008688a0 T _ZN92_$LT$std..net..ip..IpAddr$u20$as$u20$core..convert..From$LT$$u5b$u8$u3b$$u20$16$u5d$$GT$$GT$4from17h8df81b18c422feb5E
0000000000868900 T _ZN92_$LT$std..net..ip..IpAddr$u20$as$u20$core..convert..From$LT$$u5b$u16$u3b$$u20$8$u5d$$GT$$GT$4from17h5a92cd2cac85a57fE
0000000000868960 T _ZN3std3net6parser69_$LT$impl$u20$core..str..FromStr$u20$for$u20$std..net..ip..IpAddr$GT$8from_str17hc592a05fe069c3f4E
0000000000868a30 T _ZN3std3net6parser71_$LT$impl$u20$core..str..FromStr$u20$for$u20$std..net..ip..Ipv4Addr$GT$8from_str17hd43cef5e5a02e03fE
0000000000868ab0 T _ZN3std3net6parser71_$LT$impl$u20$core..str..FromStr$u20$for$u20$std..net..ip..Ipv6Addr$GT$8from_str17hf44acb2e07b986faE
0000000000868b60 T _ZN3std3net2ip6IpAddr2V417h71ddc6e3677dc9ccE
0000000000868ba0 T _ZN3std3net2ip6IpAddr2V617haaa51abf86cd5d10E
0000000000868be0 T _ZN57_$LT$std..net..ip..IpAddr$u20$as$u20$core..fmt..Debug$GT$3fmt17h1c69a2d6f39aa07fE
0000000000868d20 T _ZN69_$LT$std..net..ip..Ipv6MulticastScope$u20$as$u20$core..fmt..Debug$GT$3fmt17hb3c61e54bc0c167eE
0000000000868f30 t _ZN114_$LT$$LT$std..net..ip..Ipv6Addr$u20$as$u20$core..fmt..Display$GT$..fmt..Span$u20$as$u20$core..default..Default$GT$7default17h1a8705df9636385eE
0000000000868f70 T _ZN101_$LT$core..ops..range..RangeTo$LT$usize$GT$$u20$as$u20$core..slice..SliceIndex$LT$$u5b$T$u5d$$GT$$GT$5index17h531a6940a2969842E
0000000000868fe0 T _ZN101_$LT$core..ops..range..RangeTo$LT$usize$GT$$u20$as$u20$core..slice..SliceIndex$LT$$u5b$T$u5d$$GT$$GT$5index17hab074e302eb00159E
0000000000869050 T _ZN101_$LT$core..ops..range..RangeTo$LT$usize$GT$$u20$as$u20$core..slice..SliceIndex$LT$$u5b$T$u5d$$GT$$GT$9index_mut17h41c94a6a6a5342a1E
00000000008690c0 T _ZN103_$LT$core..ops..range..RangeFrom$LT$usize$GT$$u20$as$u20$core..slice..SliceIndex$LT$$u5b$T$u5d$$GT$$GT$5index17h8f89a4bf7194449eE
0000000000869150 T _ZN103_$LT$core..ops..range..RangeFrom$LT$usize$GT$$u20$as$u20$core..slice..SliceIndex$LT$$u5b$T$u5d$$GT$$GT$5index17h94c111a63a3d1d7cE
00000000008691e0 T _ZN103_$LT$core..ops..range..RangeFrom$LT$usize$GT$$u20$as$u20$core..slice..SliceIndex$LT$$u5b$T$u5d$$GT$$GT$5index17hd46a7421ead7e015E
0000000000869270 T _ZN103_$LT$core..ops..range..RangeFrom$LT$usize$GT$$u20$as$u20$core..slice..SliceIndex$LT$$u5b$T$u5d$$GT$$GT$9index_mut17he64e592358aa40dbE
0000000000869300 T _ZN108_$LT$core..ops..range..RangeInclusive$LT$usize$GT$$u20$as$u20$core..slice..SliceIndex$LT$$u5b$T$u5d$$GT$$GT$5index17h627f666da49f544dE
00000000008693d0 T _ZN110_$LT$core..ops..range..RangeToInclusive$LT$usize$GT$$u20$as$u20$core..slice..SliceIndex$LT$$u5b$T$u5d$$GT$$GT$5index17h96bb59857c12d0b2E
0000000000869440 T _ZN119_$LT$core..ptr..non_null..NonNull$LT$T$GT$$u20$as$u20$core..convert..From$LT$core..ptr..unique..Unique$LT$T$GT$$GT$$GT$4from17h5cb38b3e968f6412E
0000000000869480 T _ZN42_$LT$$RF$T$u20$as$u20$core..fmt..Debug$GT$3fmt17h279a661138309d20E
00000000008694d0 T _ZN42_$LT$$RF$T$u20$as$u20$core..fmt..Debug$GT$3fmt17h41592c7c31c9ab70E
0000000000869520 T _ZN4core3ops5range25RangeInclusive$LT$Idx$GT$3end17h81db42a19f88b9a5E
0000000000869550 T _ZN4core3ops5range25RangeInclusive$LT$Idx$GT$3new17h6f143b5dde6fc4ffE
00000000008695a0 T _ZN4core3ops5range25RangeInclusive$LT$Idx$GT$5start17hea332d6547bbca73E
00000000008695c0 T _ZN4core3ops5range25RangeInclusive$LT$Idx$GT$8is_empty17h03eb725f5a254644E
0000000000869630 T _ZN4core3ops8function5impls80_$LT$impl$u20$core..ops..function..FnOnce$LT$A$GT$$u20$for$u20$$RF$mut$u20$F$GT$9call_once17h0c47c18e3efab0e9E
0000000000869680 T _ZN4core3ptr8non_null16NonNull$LT$T$GT$13new_unchecked17h03ab0d7514b374e0E
00000000008696b0 T _ZN4core3ptr8non_null16NonNull$LT$T$GT$13new_unchecked17h15b470c9d5d9010cE
00000000008696e0 T _ZN4core3ptr8non_null16NonNull$LT$T$GT$13new_unchecked17h27139e6d6054aa0eE
0000000000869710 T _ZN4core3ptr8non_null16NonNull$LT$T$GT$13new_unchecked17h394b7af4a0d34c30E
0000000000869740 T _ZN4core3ptr8non_null16NonNull$LT$T$GT$13new_unchecked17h4de5c2cadd1591e7E
0000000000869770 T _ZN4core3ptr8non_null16NonNull$LT$T$GT$13new_unchecked17h6c36533ad7553d58E
00000000008697a0 T _ZN4core3ptr8non_null16NonNull$LT$T$GT$13new_unchecked17ha37732bbf2560e33E
00000000008697d0 T _ZN4core3ptr8non_null16NonNull$LT$T$GT$13new_unchecked17hb64a64241f9f2e3aE
0000000000869800 T _ZN4core3ptr8non_null16NonNull$LT$T$GT$13new_unchecked17hd827e7394abfdce6E
0000000000869830 T _ZN4core3ptr8non_null16NonNull$LT$T$GT$13new_unchecked17he64ed0b635d90ce8E
0000000000869860 T _ZN4core3ptr8non_null16NonNull$LT$T$GT$3new17h0659d05ca28cbaf5E
00000000008698c0 T _ZN4core3ptr8non_null16NonNull$LT$T$GT$4cast17h063c9d046ac71fd3E
0000000000869900 T _ZN4core3ptr8non_null16NonNull$LT$T$GT$4cast17h1a09721b1e7527b8E
0000000000869940 T _ZN4core3ptr8non_null16NonNull$LT$T$GT$4cast17h2509a38af9b0f9d3E
0000000000869980 T _ZN4core3ptr8non_null16NonNull$LT$T$GT$4cast17h3bc420166c15466fE
00000000008699c0 T _ZN4core3ptr8non_null16NonNull$LT$T$GT$4cast17h3dbc5f17856c87edE
0000000000869a00 T _ZN4core3ptr8non_null16NonNull$LT$T$GT$4cast17h4f011288c7102bd1E
0000000000869a40 T _ZN4core3ptr8non_null16NonNull$LT$T$GT$4cast17h5a5867b89a0a7adcE
0000000000869a80 T _ZN4core3ptr8non_null16NonNull$LT$T$GT$4cast17h646e9cfcc1661522E
0000000000869ac0 T _ZN4core3ptr8non_null16NonNull$LT$T$GT$4cast17h6eb8d03622d1c91bE
0000000000869b00 T _ZN4core3ptr8non_null16NonNull$LT$T$GT$4cast17h903f040ad0e34717E
0000000000869b40 T _ZN4core3ptr8non_null16NonNull$LT$T$GT$4cast17hd38cb1fac14d066aE
0000000000869b80 T _ZN4core3ptr8non_null16NonNull$LT$T$GT$4cast17hd5d7e32730b83d95E
0000000000869bc0 T _ZN4core3ptr8non_null16NonNull$LT$T$GT$6as_ptr17h10b763b0d2267b6bE
0000000000869be0 T _ZN4core3ptr8non_null16NonNull$LT$T$GT$6as_ptr17h14a79949c82cd838E
0000000000869c00 T _ZN4core3ptr8non_null16NonNull$LT$T$GT$6as_ptr17h2962e64925850798E
0000000000869c20 T _ZN4core3ptr8non_null16NonNull$LT$T$GT$6as_ptr17h30b6bd85bb23eb9dE
0000000000869c40 T _ZN4core3ptr8non_null16NonNull$LT$T$GT$6as_ptr17h328827edec4337e1E
0000000000869c60 T _ZN4core3ptr8non_null16NonNull$LT$T$GT$6as_ptr17h3d542bc78abcc5cbE
0000000000869c80 T _ZN4core3ptr8non_null16NonNull$LT$T$GT$6as_ptr17h3ef86cff606d3f84E
0000000000869ca0 T _ZN4core3ptr8non_null16NonNull$LT$T$GT$6as_ptr17h58fee710f14cc6b8E
0000000000869cc0 T _ZN4core3ptr8non_null16NonNull$LT$T$GT$6as_ptr17h9733ecfe78ff5810E
0000000000869ce0 T _ZN4core3ptr8non_null16NonNull$LT$T$GT$6as_ptr17ha57dedc610a4195fE
0000000000869d00 T _ZN4core3ptr8non_null16NonNull$LT$T$GT$6as_ptr17hab622cd05c407860E
0000000000869d20 T _ZN4core3ptr8non_null16NonNull$LT$T$GT$6as_ptr17hb55b1c2a857528f6E
0000000000869d40 T _ZN4core3ptr8non_null16NonNull$LT$T$GT$6as_ptr17hb8f6238711adfabdE
0000000000869d60 T _ZN4core3ptr8non_null16NonNull$LT$T$GT$6as_ptr17he06314c486f94c53E
0000000000869d80 T _ZN4core3ptr8non_null16NonNull$LT$T$GT$6as_ref17h207c6f751d99b513E
0000000000869db0 T _ZN4core3ptr8non_null16NonNull$LT$T$GT$6as_ref17h3af110123149d8f7E
0000000000869de0 T _ZN4core3ptr8non_null16NonNull$LT$T$GT$6as_ref17h4a4efff68f838048E
0000000000869e10 T _ZN4core3ptr8non_null16NonNull$LT$T$GT$6as_ref17h7f7f911d8ff82e55E
0000000000869e40 T _ZN4core3ptr8non_null16NonNull$LT$T$GT$6as_ref17h85b90d1347e20173E
0000000000869e70 T _ZN4core3ptr8non_null16NonNull$LT$T$GT$6as_ref17h92d05ebfae0c26ebE
0000000000869ea0 T _ZN4core3ptr8non_null16NonNull$LT$T$GT$8dangling17h0669a519daa81586E
0000000000869ee0 T _ZN4core4iter5range101_$LT$impl$u20$core..iter..traits..iterator..Iterator$u20$for$u20$core..ops..range..Range$LT$A$GT$$GT$3nth17h6e5f18fda74a12d8E
000000000086a010 T _ZN4core4iter5range101_$LT$impl$u20$core..iter..traits..iterator..Iterator$u20$for$u20$core..ops..range..Range$LT$A$GT$$GT$4next17he6f1ec72d6c218beE
000000000086a0b0 T _ZN4core4iter5range101_$LT$impl$u20$core..iter..traits..iterator..Iterator$u20$for$u20$core..ops..range..Range$LT$A$GT$$GT$9size_hint17h686d133d8e66cd07E
000000000086a190 T _ZN4core4iter5range110_$LT$impl$u20$core..iter..traits..iterator..Iterator$u20$for$u20$core..ops..range..RangeInclusive$LT$A$GT$$GT$4next17ha6306c07f9421b1dE
000000000086a270 T _ZN4core4iter6traits8iterator8Iterator3map17h9d7b5f5728f92997E
000000000086a2c0 T _ZN4core4iter6traits8iterator8Iterator3map17hb34b94177d40764aE
000000000086a300 T _ZN4core4iter6traits8iterator8Iterator4fold17h37b4206d08da1232E
000000000086a370 T _ZN4core4iter6traits8iterator8Iterator7step_by17ha89f4b461c4792d2E
000000000086a3d0 T _ZN4core9core_arch3x864sse212_mm_or_si12817h4ffd96e0595501d1E
000000000086a420 t _ZN4core9core_arch3x864sse212_mm_set_epi817h35fed637d1396073E
000000000086a5a0 T _ZN4core9core_arch3x864sse213_mm_set1_epi817h2110eb4e910655f5E
000000000086a660 T _ZN4core9core_arch3x864sse214_mm_cmpeq_epi817hb60b763c9fe87783E
000000000086a710 T _ZN4core9core_arch3x864sse214_mm_cmpgt_epi817h94583a872cb7f234E
000000000086a7c0 T _ZN4core9core_arch3x864sse214_mm_load_si12817h244bca212e2fb2b1E
000000000086a800 t _ZN4core9core_arch3x864sse214_mm_set_epi64x17h54c9c9f0b90459d5E
000000000086a860 T _ZN4core9core_arch3x864sse215_mm_loadu_si12817hf784e62d9438ecccE
000000000086a8d0 t _ZN4core9core_arch3x864sse215_mm_set1_epi64x17h772c1859e2497269E
000000000086a910 T _ZN4core9core_arch3x864sse215_mm_store_si12817h4df442ef14331beaE
000000000086a940 T _ZN4core9core_arch3x864sse217_mm_movemask_epi817hbd9831fd6293c9fbE
000000000086a990 T _ZN4core9core_arch3x864sse217_mm_setzero_si12817ha491b6ae256f3daeE
000000000086a9c0 t _ZN4core9core_arch3x864sse219_mm_undefined_si12817h21346b8351bd77d5E
000000000086aa10 T _ZN63_$LT$I$u20$as$u20$core..iter..traits..collect..IntoIterator$GT$9into_iter17hb12837dded64c8e2E
000000000086aa60 T _ZN90_$LT$core..ops..range..RangeFull$u20$as$u20$core..slice..SliceIndex$LT$$u5b$T$u5d$$GT$$GT$5index17h25a03abdac4f4936E
000000000086aaa0 T _ZN90_$LT$core..ops..range..RangeFull$u20$as$u20$core..slice..SliceIndex$LT$$u5b$T$u5d$$GT$$GT$5index17h5ff9353a56c01a78E
000000000086aae0 T _ZN93_$LT$core..ops..range..RangeTo$LT$T$GT$$u20$as$u20$core..ops..range..RangeBounds$LT$T$GT$$GT$11start_bound17h4b46f290897cd4bbE
000000000086ab10 T _ZN93_$LT$core..ops..range..RangeTo$LT$T$GT$$u20$as$u20$core..ops..range..RangeBounds$LT$T$GT$$GT$9end_bound17hd8e1cdb119d9f1e2E
000000000086ab50 T _ZN98_$LT$core..ptr..non_null..NonNull$LT$T$GT$$u20$as$u20$core..convert..From$LT$$RF$mut$u20$T$GT$$GT$4from17h0a518ef7969ed9f5E
000000000086ab80 T _ZN98_$LT$core..ptr..non_null..NonNull$LT$T$GT$$u20$as$u20$core..convert..From$LT$$RF$mut$u20$T$GT$$GT$4from17h281ebc8bad772a10E
000000000086abb0 T _ZN98_$LT$core..ptr..non_null..NonNull$LT$T$GT$$u20$as$u20$core..convert..From$LT$$RF$mut$u20$T$GT$$GT$4from17h4c89bae42841403dE
000000000086abe0 T _ZN98_$LT$core..ptr..non_null..NonNull$LT$T$GT$$u20$as$u20$core..convert..From$LT$$RF$mut$u20$T$GT$$GT$4from17h66b8a21db70c9c35E
000000000086ac10 T _ZN98_$LT$core..ptr..non_null..NonNull$LT$T$GT$$u20$as$u20$core..convert..From$LT$$RF$mut$u20$T$GT$$GT$4from17hb83b9ad0dce0e2c8E
000000000086ac40 T _ZN99_$LT$core..ops..range..Range$LT$usize$GT$$u20$as$u20$core..slice..SliceIndex$LT$$u5b$T$u5d$$GT$$GT$13get_unchecked17h280a2cbe156e0a0fE
000000000086acf0 T _ZN99_$LT$core..ops..range..Range$LT$usize$GT$$u20$as$u20$core..slice..SliceIndex$LT$$u5b$T$u5d$$GT$$GT$13get_unchecked17h839862b9cae78b50E
000000000086ada0 T _ZN99_$LT$core..ops..range..Range$LT$usize$GT$$u20$as$u20$core..slice..SliceIndex$LT$$u5b$T$u5d$$GT$$GT$13get_unchecked17h92d82a93beafae63E
000000000086ae50 T _ZN99_$LT$core..ops..range..Range$LT$usize$GT$$u20$as$u20$core..slice..SliceIndex$LT$$u5b$T$u5d$$GT$$GT$17get_unchecked_mut17h71a69c0388719a5aE
000000000086af00 T _ZN99_$LT$core..ops..range..Range$LT$usize$GT$$u20$as$u20$core..slice..SliceIndex$LT$$u5b$T$u5d$$GT$$GT$17get_unchecked_mut17hbf7c48be9754ff3dE
000000000086afb0 T _ZN99_$LT$core..ops..range..Range$LT$usize$GT$$u20$as$u20$core..slice..SliceIndex$LT$$u5b$T$u5d$$GT$$GT$5index17h43826ab5bbe34361E
000000000086b080 T _ZN99_$LT$core..ops..range..Range$LT$usize$GT$$u20$as$u20$core..slice..SliceIndex$LT$$u5b$T$u5d$$GT$$GT$5index17h5be0eb7f788cf0b7E
000000000086b150 T _ZN99_$LT$core..ops..range..Range$LT$usize$GT$$u20$as$u20$core..slice..SliceIndex$LT$$u5b$T$u5d$$GT$$GT$5index17h6ffc2d480db84338E
000000000086b220 T _ZN99_$LT$core..ops..range..Range$LT$usize$GT$$u20$as$u20$core..slice..SliceIndex$LT$$u5b$T$u5d$$GT$$GT$9index_mut17h3556ba0d85275640E
000000000086b2f0 T _ZN99_$LT$core..ops..range..Range$LT$usize$GT$$u20$as$u20$core..slice..SliceIndex$LT$$u5b$T$u5d$$GT$$GT$9index_mut17h9d7d6237ba1bcaa6E
000000000086b3c0 t _ZN3std3ffi5c_str21FromBytesWithNulError12interior_nul17h64a5bf3e3cb8da37E
000000000086b410 t _ZN3std3ffi5c_str21FromBytesWithNulError18not_nul_terminated17h1180965fb36fd813E
000000000086b450 T _ZN3std3ffi5c_str19FromVecWithNulError8as_bytes17h772eb741e7dde0daE
000000000086b4a0 T _ZN3std3ffi5c_str19FromVecWithNulError10into_bytes17hd8e0522361b990a1E
000000000086b4f0 T _ZN3std3ffi5c_str7CString3new17h3b8b85180db6a264E
000000000086b550 T _ZN3std3ffi5c_str7CString3new17h76e8baf71be6649cE
000000000086b5b0 T _ZN79_$LT$$RF$$u5b$u8$u5d$$u20$as$u20$std..ffi..c_str..CString..new..SpecIntoVec$GT$8into_vec17hb3a18a4f4615f230E
000000000086b650 T _ZN70_$LT$$RF$str$u20$as$u20$std..ffi..c_str..CString..new..SpecIntoVec$GT$8into_vec17hdb89f54d67913134E
000000000086b710 T _ZN3std3ffi5c_str7CString4_new17hfdfcbc7c39285a28E
000000000086b840 T _ZN3std3ffi5c_str7CString18from_vec_unchecked17h8409589a80eac6acE
000000000086b8c0 T _ZN3std3ffi5c_str7CString8from_raw17h5b5ecf1956ce5c3eE
000000000086b970 T _ZN3std3ffi5c_str7CString11into_string17hd0d9b9d35ef74fc0E
000000000086b9e0 T _ZN3std3ffi5c_str7CString11into_string28_$u7b$$u7b$closure$u7d$$u7d$17hb9e6083413a490fcE
000000000086ba80 T _ZN3std3ffi5c_str7CString10into_bytes17hdce3ff4a5a666bd2E
000000000086bc80 T _ZN3std3ffi5c_str7CString19into_bytes_with_nul17h83a8ff6127c4769dE
000000000086bce0 t _ZN3std3ffi5c_str7CString17as_bytes_with_nul17hd23443c4f0319f1bE
000000000086bd10 T _ZN3std3ffi5c_str7CString16into_boxed_c_str17h55804776dfad2728E
000000000086bd90 T _ZN3std3ffi5c_str7CString10into_inner17hc308e02c698447e3E
000000000086be00 T _ZN3std3ffi5c_str7CString27from_vec_with_nul_unchecked17h55f3e3ab74268f9cE
000000000086be60 T _ZN3std3ffi5c_str7CString17from_vec_with_nul17h813d592d86c81b47E
000000000086c100 T _ZN66_$LT$std..ffi..c_str..CString$u20$as$u20$core..ops..drop..Drop$GT$4drop17h0f4f6e3561f7790dE
000000000086c140 T _ZN68_$LT$std..ffi..c_str..CString$u20$as$u20$core..ops..deref..Deref$GT$5deref17hc50865caa6427b24E
000000000086c190 T _ZN61_$LT$std..ffi..c_str..CString$u20$as$u20$core..fmt..Debug$GT$3fmt17h3f269f5d97e2987fE
000000000086c1f0 T _ZN58_$LT$std..ffi..c_str..CStr$u20$as$u20$core..fmt..Debug$GT$3fmt17hf82434690ca8c23cE
000000000086c450 t _ZN58_$LT$std..ffi..c_str..CStr$u20$as$u20$core..fmt..Debug$GT$3fmt28_$u7b$$u7b$closure$u7d$$u7d$17hafb7e96a88238f31E
000000000086c4a0 T _ZN68_$LT$$RF$std..ffi..c_str..CStr$u20$as$u20$core..default..Default$GT$7default17hab5b85cb447c6965E
000000000086c4f0 T _ZN67_$LT$std..ffi..c_str..CString$u20$as$u20$core..default..Default$GT$7default17h70670a3a4733b013E
000000000086c540 T _ZN3std3ffi5c_str8NulError12nul_position17ha8dd3300cc0df760E
000000000086c570 T _ZN3std3ffi5c_str8NulError8into_vec17h499a9c7979670846E
000000000086c5c0 T _ZN63_$LT$std..ffi..c_str..NulError$u20$as$u20$std..error..Error$GT$11description17h2fd4cd680406c447E
000000000086c5f0 T _ZN64_$LT$std..ffi..c_str..NulError$u20$as$u20$core..fmt..Display$GT$3fmt17hf48104538bfe6060E
000000000086c6b0 T _ZN76_$LT$std..ffi..c_str..FromBytesWithNulError$u20$as$u20$std..error..Error$GT$11description17h5fb9420f599db0a9E
000000000086c720 T _ZN77_$LT$std..ffi..c_str..FromBytesWithNulError$u20$as$u20$core..fmt..Display$GT$3fmt17h1f4166b9f2cf3335E
000000000086c900 T _ZN75_$LT$std..ffi..c_str..FromVecWithNulError$u20$as$u20$core..fmt..Display$GT$3fmt17h5ce410588c3b7781E
000000000086ca60 T _ZN3std3ffi5c_str15IntoStringError12into_cstring17h579e160e267eb1f7E
000000000086ca90 T _ZN3std3ffi5c_str15IntoStringError10utf8_error17he97cd07eac2c2e43E
000000000086cae0 T _ZN70_$LT$std..ffi..c_str..IntoStringError$u20$as$u20$std..error..Error$GT$11description17h1234bcde5d9e816bE
000000000086cb10 T _ZN70_$LT$std..ffi..c_str..IntoStringError$u20$as$u20$std..error..Error$GT$6source17h0fc93b0fa43bf663E
000000000086cb50 T _ZN71_$LT$std..ffi..c_str..IntoStringError$u20$as$u20$core..fmt..Display$GT$3fmt17h6ec766bfaed975b9E
000000000086cbb0 T _ZN3std3ffi5c_str4CStr8from_ptr17h6f52195bc4f910cbE
000000000086cc50 T _ZN3std3ffi5c_str4CStr19from_bytes_with_nul17h33eb2143323c1fc6E
000000000086cdb0 t _ZN3std3ffi5c_str4CStr29from_bytes_with_nul_unchecked17h2a07a2528f22cf25E
000000000086cde0 T _ZN3std3ffi5c_str4CStr6as_ptr17hc1acd3c448e7a219E
000000000086ce20 T _ZN3std3ffi5c_str4CStr8to_bytes17hd5fdf552792f8504E
000000000086cee0 T _ZN3std3ffi5c_str4CStr17to_bytes_with_nul17h4392bbad072b55efE
000000000086cf10 T _ZN3std3ffi5c_str4CStr6to_str17h65276648d8b755bdE
000000000086cf70 T _ZN3std3ffi5c_str4CStr15to_string_lossy17h4a27b170fe2758d1E
000000000086cfd0 T _ZN3std3ffi5c_str4CStr13into_c_string17h5484d6650601d866E
000000000086d050 T _ZN62_$LT$std..ffi..c_str..CStr$u20$as$u20$core..cmp..PartialEq$GT$2eq17h7e9275f3101dd3abE
000000000086d0e0 T _ZN63_$LT$std..ffi..c_str..CStr$u20$as$u20$core..cmp..PartialOrd$GT$11partial_cmp17he4e4b75c7f14a52fE
000000000086d170 T _ZN56_$LT$std..ffi..c_str..CStr$u20$as$u20$core..cmp..Ord$GT$3cmp17h5ab04cee9f51bd87E
000000000086d200 T _ZN64_$LT$std..ffi..c_str..CStr$u20$as$u20$alloc..borrow..ToOwned$GT$8to_owned17hc223a78ae1c434afE
000000000086d270 T _ZN64_$LT$std..ffi..c_str..CStr$u20$as$u20$alloc..borrow..ToOwned$GT$10clone_into17hf397f6effa610e74E
000000000086d350 T _ZN97_$LT$std..ffi..c_str..CString$u20$as$u20$core..convert..From$LT$$RF$std..ffi..c_str..CStr$GT$$GT$4from17h9ab0f7649b88c7b6E
000000000086d3a0 T _ZN3std2io8buffered18BufReader$LT$R$GT$13with_capacity17h51275aff49ae89cbE
000000000086d490 T _ZN3std2io8buffered18BufReader$LT$R$GT$14discard_buffer17hd13d26d4b9dec7f9E
000000000086d4c0 T _ZN71_$LT$std..io..buffered..BufReader$LT$R$GT$$u20$as$u20$std..io..Read$GT$4read17h6a941e69a9104843E
000000000086d790 T _ZN71_$LT$std..io..buffered..BufReader$LT$R$GT$$u20$as$u20$std..io..Read$GT$13read_vectored17h6e5693740ab8c1dfE
000000000086daa0 T _ZN71_$LT$std..io..buffered..BufReader$LT$R$GT$$u20$as$u20$std..io..Read$GT$13read_vectored28_$u7b$$u7b$closure$u7d$$u7d$17h94ebcc11cf4ff80fE
000000000086daf0 T _ZN74_$LT$std..io..buffered..BufReader$LT$R$GT$$u20$as$u20$std..io..BufRead$GT$8fill_buf17hcf915cfa577aa4e6E
000000000086dca0 T _ZN74_$LT$std..io..buffered..BufReader$LT$R$GT$$u20$as$u20$std..io..BufRead$GT$7consume17h568c2639021f8a12E
000000000086dd20 T _ZN3std2io8buffered18BufWriter$LT$W$GT$13with_capacity17h283973a985c46669E
000000000086dda0 T _ZN3std2io8buffered18BufWriter$LT$W$GT$9flush_buf17h232fa3fa0e1f56fbE
000000000086e0c0 T _ZN3std2io8buffered18BufWriter$LT$W$GT$7get_mut17hdddd21851b2751a9E
000000000086e110 T _ZN72_$LT$std..io..buffered..BufWriter$LT$W$GT$$u20$as$u20$std..io..Write$GT$5write17h0877655079eccd5fE
000000000086e370 T _ZN72_$LT$std..io..buffered..BufWriter$LT$W$GT$$u20$as$u20$std..io..Write$GT$14write_vectored17h6228951d48ff4dcbE
000000000086e600 T _ZN72_$LT$std..io..buffered..BufWriter$LT$W$GT$$u20$as$u20$std..io..Write$GT$14write_vectored28_$u7b$$u7b$closure$u7d$$u7d$17h25ff23e1108371a4E
000000000086e650 T _ZN72_$LT$std..io..buffered..BufWriter$LT$W$GT$$u20$as$u20$std..io..Write$GT$5flush17h5c4532e2e53535d4E
000000000086e6b0 T _ZN72_$LT$std..io..buffered..BufWriter$LT$W$GT$$u20$as$u20$std..io..Write$GT$5flush28_$u7b$$u7b$closure$u7d$$u7d$17h25ffbe6a18adaae0E
000000000086e700 T _ZN79_$LT$std..io..buffered..BufWriter$LT$W$GT$$u20$as$u20$core..ops..drop..Drop$GT$4drop17hed22c8f0838b3161E
000000000086e780 T _ZN3std2io8buffered19LineWriter$LT$W$GT$3new17h62aec92e8a3cf566E
000000000086e7d0 T _ZN3std2io8buffered19LineWriter$LT$W$GT$13with_capacity17hde3d4e2b680f8333E
000000000086e850 T _ZN73_$LT$std..io..buffered..LineWriter$LT$W$GT$$u20$as$u20$std..io..Write$GT$5write17h119f7817cfb340afE
000000000086ed00 T _ZN73_$LT$std..io..buffered..LineWriter$LT$W$GT$$u20$as$u20$std..io..Write$GT$14write_vectored17ha1fe38ac916418a2E
000000000086f750 T _ZN73_$LT$std..io..buffered..LineWriter$LT$W$GT$$u20$as$u20$std..io..Write$GT$14write_vectored28_$u7b$$u7b$closure$u7d$$u7d$17ha48111c3ab23b9e0E
000000000086f860 T _ZN73_$LT$std..io..buffered..LineWriter$LT$W$GT$$u20$as$u20$std..io..Write$GT$14write_vectored28_$u7b$$u7b$closure$u7d$$u7d$17hbfcfe9ec4199b329E
000000000086f8b0 T _ZN73_$LT$std..io..buffered..LineWriter$LT$W$GT$$u20$as$u20$std..io..Write$GT$14write_vectored28_$u7b$$u7b$closure$u7d$$u7d$17h59596ab53e0219dcE
000000000086f900 T _ZN73_$LT$std..io..buffered..LineWriter$LT$W$GT$$u20$as$u20$std..io..Write$GT$5flush17h647fc4354f05212aE
000000000086f9c0 T _ZN64_$LT$std..sync..barrier..Barrier$u20$as$u20$core..fmt..Debug$GT$3fmt17he69d0e7f2facfdf5E
000000000086fa10 T _ZN3std4sync7barrier7Barrier3new17hab291057315d7166E
000000000086fab0 T _ZN3std4sync7barrier7Barrier4wait17hd41a6ddd5bfd3ffbE
000000000086fcf0 T _ZN74_$LT$std..sync..barrier..BarrierWaitResult$u20$as$u20$core..fmt..Debug$GT$3fmt17heacafd366188ad60E
000000000086fda0 T _ZN3std4sync7barrier17BarrierWaitResult9is_leader17h1cccbbee1902f530E
000000000086fdd0 T _ZN62_$LT$std..ffi..c_str..NulError$u20$as$u20$core..fmt..Debug$GT$3fmt17hebb20f92c1bb852cE
000000000086fea0 T _ZN75_$LT$std..ffi..c_str..FromBytesWithNulError$u20$as$u20$core..fmt..Debug$GT$3fmt17h42ea8c462170413fE
000000000086ff50 T _ZN73_$LT$std..ffi..c_str..FromVecWithNulError$u20$as$u20$core..fmt..Debug$GT$3fmt17h9b345145a664b2ccE
0000000000870060 T _ZN79_$LT$std..ffi..c_str..FromBytesWithNulErrorKind$u20$as$u20$core..fmt..Debug$GT$3fmt17hea6f5ffe0f4f2ca3E
0000000000870150 T _ZN69_$LT$std..ffi..c_str..IntoStringError$u20$as$u20$core..fmt..Debug$GT$3fmt17h3ed1e8a2d314c2beE
0000000000870260 T _ZN3std3sys6hermit3net4init17h0787122e05d8d2cdE
00000000008702e0 T _ZN100_$LT$std..sys..hermit..net..Socket$u20$as$u20$std..sys_common..AsInner$LT$hermit_abi..Handle$GT$$GT$8as_inner17hf8d357b6001e6994E
0000000000870300 T _ZN71_$LT$std..sys..hermit..net..Socket$u20$as$u20$core..ops..drop..Drop$GT$4drop17h689efe5d0e6d3c15E
0000000000870330 T _ZN3std3sys6hermit3net9TcpStream7connect17he22c7f14b50d4c04E
00000000008705a0 T _ZN3std3sys6hermit3net9TcpStream15connect_timeout17h2af08934d0ab4b62E
0000000000870780 T _ZN3std3sys6hermit3net9TcpStream16set_read_timeout17h70b68976c4bbb7eeE
0000000000870850 T _ZN3std3sys6hermit3net9TcpStream16set_read_timeout28_$u7b$$u7b$closure$u7d$$u7d$17h59ce5178c1929c8cE
0000000000870890 T _ZN3std3sys6hermit3net9TcpStream16set_read_timeout28_$u7b$$u7b$closure$u7d$$u7d$17h9a167b9ab4d34b4fE
00000000008708e0 T _ZN3std3sys6hermit3net9TcpStream17set_write_timeout17hd15181c7ef228764E
00000000008709b0 T _ZN3std3sys6hermit3net9TcpStream17set_write_timeout28_$u7b$$u7b$closure$u7d$$u7d$17h0f4fdec00222f7bfE
00000000008709f0 T _ZN3std3sys6hermit3net9TcpStream17set_write_timeout28_$u7b$$u7b$closure$u7d$$u7d$17h170f114a8aa79f8aE
0000000000870a40 T _ZN3std3sys6hermit3net9TcpStream12read_timeout17he9d4ccf4ec89503cE
0000000000870bd0 T _ZN3std3sys6hermit3net9TcpStream12read_timeout28_$u7b$$u7b$closure$u7d$$u7d$17h2c32808b19387befE
0000000000870c20 T _ZN3std3sys6hermit3net9TcpStream12read_timeout28_$u7b$$u7b$closure$u7d$$u7d$17h3897044ab82aba0fE
0000000000870c60 T _ZN3std3sys6hermit3net9TcpStream13write_timeout17h1338620f332beab2E
0000000000870df0 T _ZN3std3sys6hermit3net9TcpStream13write_timeout28_$u7b$$u7b$closure$u7d$$u7d$17h1ae811dab0279b38E
0000000000870e40 T _ZN3std3sys6hermit3net9TcpStream13write_timeout28_$u7b$$u7b$closure$u7d$$u7d$17hedd265af390deb28E
0000000000870e80 T _ZN3std3sys6hermit3net9TcpStream4peek17h649ac1678e6d755cE
0000000000870f30 T _ZN3std3sys6hermit3net9TcpStream4peek28_$u7b$$u7b$closure$u7d$$u7d$17hd6cb44936d40c321E
0000000000870f80 T _ZN3std3sys6hermit3net9TcpStream4read17h29f99da675660d8cE
0000000000871000 T _ZN3std3sys6hermit3net9TcpStream13read_vectored17h4b686b8ec66133c6E
00000000008712f0 T _ZN3std3sys6hermit3net9TcpStream13read_vectored28_$u7b$$u7b$closure$u7d$$u7d$17hee3548a475f70dcbE
0000000000871340 T _ZN3std3sys6hermit3net9TcpStream5write17h2237c122855243aeE
00000000008713c0 T _ZN3std3sys6hermit3net9TcpStream14write_vectored17h7bfd48b4137b6829E
0000000000871660 T _ZN3std3sys6hermit3net9TcpStream14write_vectored28_$u7b$$u7b$closure$u7d$$u7d$17h44ba90082d7709e5E
00000000008716b0 T _ZN3std3sys6hermit3net9TcpStream9peer_addr17hef7507bfb5325cffE
0000000000871a10 T _ZN3std3sys6hermit3net9TcpStream9peer_addr28_$u7b$$u7b$closure$u7d$$u7d$17h9f9cd045968ec5b9E
0000000000871a60 T _ZN3std3sys6hermit3net9TcpStream11socket_addr17h1e1b06c5aafbec83E
0000000000871ad0 T _ZN3std3sys6hermit3net9TcpStream8shutdown17h2e584cfb6a1b4667E
0000000000871b60 T _ZN3std3sys6hermit3net9TcpStream8shutdown28_$u7b$$u7b$closure$u7d$$u7d$17ha864f35a54df2ad3E
0000000000871bb0 T _ZN3std3sys6hermit3net9TcpStream9duplicate17hb7443af68555ece2E
0000000000871c00 T _ZN3std3sys6hermit3net9TcpStream11set_nodelay17h36109f3f5bf7eb0dE
0000000000871ca0 T _ZN3std3sys6hermit3net9TcpStream11set_nodelay28_$u7b$$u7b$closure$u7d$$u7d$17hc813e2847f94ccd0E
0000000000871cf0 T _ZN3std3sys6hermit3net9TcpStream7nodelay17hb6de6789dc80bc6bE
0000000000871d50 T _ZN3std3sys6hermit3net9TcpStream7nodelay28_$u7b$$u7b$closure$u7d$$u7d$17h49e2970faf26924eE
0000000000871da0 T _ZN3std3sys6hermit3net9TcpStream7set_ttl17h74b1042b4e3f8fc9E
0000000000871e30 T _ZN3std3sys6hermit3net9TcpStream7set_ttl28_$u7b$$u7b$closure$u7d$$u7d$17h263d4f8cdf2f2347E
0000000000871e80 T _ZN3std3sys6hermit3net9TcpStream3ttl17h800cb8fa91efeec7E
0000000000871ef0 T _ZN3std3sys6hermit3net9TcpStream3ttl28_$u7b$$u7b$closure$u7d$$u7d$17hd07819a88d8b670bE
0000000000871f40 T _ZN3std3sys6hermit3net9TcpStream10take_error17h64f3ab3605636f4aE
0000000000871fb0 T _ZN3std3sys6hermit3net9TcpStream15set_nonblocking17hab826f6ec1427c6bE
0000000000872040 T _ZN3std3sys6hermit3net9TcpStream15set_nonblocking28_$u7b$$u7b$closure$u7d$$u7d$17hf939e4ff73579f39E
0000000000872090 T _ZN69_$LT$std..sys..hermit..net..TcpStream$u20$as$u20$core..fmt..Debug$GT$3fmt17hef8cd8d7eae92f5fE
00000000008720d0 T _ZN3std3sys6hermit3net11TcpListener4bind17h519e91a13a4d574cE
0000000000872240 T _ZN3std3sys6hermit3net11TcpListener11socket_addr17h8f846ec3c1557427E
00000000008722c0 T _ZN3std3sys6hermit3net11TcpListener6accept17h0f59bb6c607b99c0E
00000000008726b0 T _ZN3std3sys6hermit3net11TcpListener6accept28_$u7b$$u7b$closure$u7d$$u7d$17h8445b56a1cbe318aE
0000000000872700 T _ZN3std3sys6hermit3net11TcpListener9duplicate17h8f331f0d9d309965E
0000000000872770 T _ZN3std3sys6hermit3net11TcpListener7set_ttl17ha2ee8d66015d8b0fE
00000000008727e0 T _ZN3std3sys6hermit3net11TcpListener3ttl17h7152027efc524cbcE
0000000000872850 T _ZN3std3sys6hermit3net11TcpListener11set_only_v617h9992ca1a8081d258E
00000000008728c0 T _ZN3std3sys6hermit3net11TcpListener7only_v617haac379f4765d76f1E
0000000000872930 T _ZN3std3sys6hermit3net11TcpListener10take_error17hd8c3238bc109b2ddE
00000000008729a0 T _ZN3std3sys6hermit3net11TcpListener15set_nonblocking17h78d9d6ca1dec9ed6E
0000000000872a10 T _ZN71_$LT$std..sys..hermit..net..TcpListener$u20$as$u20$core..fmt..Debug$GT$3fmt17h1d3d3c01ba96b9abE
0000000000872a50 T _ZN3std3sys6hermit3net9UdpSocket4bind17h4cd3f14b7b7e9057E
0000000000872ac0 T _ZN3std3sys6hermit3net9UdpSocket9peer_addr17h8089eba0b4e7865bE
0000000000872b30 T _ZN3std3sys6hermit3net9UdpSocket11socket_addr17h85f88864cc200a5eE
0000000000872ba0 T _ZN3std3sys6hermit3net9UdpSocket9recv_from17h87d53c4f6d7ee79eE
0000000000872c30 T _ZN3std3sys6hermit3net9UdpSocket9peek_from17h8d5d15c8e120a3beE
0000000000872cc0 T _ZN3std3sys6hermit3net9UdpSocket7send_to17h9ba335a93ac17946E
0000000000872d60 T _ZN3std3sys6hermit3net9UdpSocket9duplicate17h97a0d6a87adea283E
0000000000872dd0 T _ZN3std3sys6hermit3net9UdpSocket16set_read_timeout17ha24a6920b75320aaE
0000000000872e40 T _ZN3std3sys6hermit3net9UdpSocket17set_write_timeout17h9bb637b0054a88aaE
0000000000872eb0 T _ZN3std3sys6hermit3net9UdpSocket12read_timeout17he300e6e09bf67d2cE
0000000000872f20 T _ZN3std3sys6hermit3net9UdpSocket13write_timeout17h880684826df216a5E
0000000000872f90 T _ZN3std3sys6hermit3net9UdpSocket13set_broadcast17hebdd777b6c9fd55dE
0000000000873000 T _ZN3std3sys6hermit3net9UdpSocket9broadcast17h19d035457fb5ad4dE
0000000000873070 T _ZN3std3sys6hermit3net9UdpSocket21set_multicast_loop_v417h62bab17ab79d5f09E
00000000008730e0 T _ZN3std3sys6hermit3net9UdpSocket17multicast_loop_v417hc4b7d0bc30668867E
0000000000873150 T _ZN3std3sys6hermit3net9UdpSocket20set_multicast_ttl_v417h31667dadf0ba7defE
00000000008731c0 T _ZN3std3sys6hermit3net9UdpSocket16multicast_ttl_v417h010fefe433c684adE
0000000000873230 T _ZN3std3sys6hermit3net9UdpSocket21set_multicast_loop_v617h3a09d53e34642679E
00000000008732a0 T _ZN3std3sys6hermit3net9UdpSocket17multicast_loop_v617h9ca95c41ba34ad15E
0000000000873310 T _ZN3std3sys6hermit3net9UdpSocket17join_multicast_v417hbd79afe2aa7031b5E
0000000000873390 T _ZN3std3sys6hermit3net9UdpSocket17join_multicast_v617h43f2f3575d92959cE
0000000000873410 T _ZN3std3sys6hermit3net9UdpSocket18leave_multicast_v417h4de4b52beb0fe941E
0000000000873490 T _ZN3std3sys6hermit3net9UdpSocket18leave_multicast_v617hb2014f86061a76abE
0000000000873510 T _ZN3std3sys6hermit3net9UdpSocket7set_ttl17h5b11054487a29187E
0000000000873580 T _ZN3std3sys6hermit3net9UdpSocket3ttl17hcc6cc77a67a20389E
00000000008735f0 T _ZN3std3sys6hermit3net9UdpSocket10take_error17habf49826965debf1E
0000000000873660 T _ZN3std3sys6hermit3net9UdpSocket15set_nonblocking17h2f2c154c5c235e4bE
00000000008736d0 T _ZN3std3sys6hermit3net9UdpSocket4recv17h02221c06435f995eE
0000000000873760 T _ZN3std3sys6hermit3net9UdpSocket4peek17h31f7d500fe13f0b9E
00000000008737f0 T _ZN3std3sys6hermit3net9UdpSocket4send17h0db6419bf08c7deaE
0000000000873880 T _ZN3std3sys6hermit3net9UdpSocket7connect17hdf0fa940c4772a07E
00000000008738f0 T _ZN69_$LT$std..sys..hermit..net..UdpSocket$u20$as$u20$core..fmt..Debug$GT$3fmt17h43f615fba4f775e5E
0000000000873930 T _ZN92_$LT$std..sys..hermit..net..LookupHost$u20$as$u20$core..iter..traits..iterator..Iterator$GT$4next17h0b97f2b8e26a463aE
0000000000873950 T _ZN91_$LT$std..sys..hermit..net..LookupHost$u20$as$u20$core..convert..TryFrom$LT$$RF$str$GT$$GT$8try_from17h7576e8143a969e2cE
00000000008739a0 T _ZN105_$LT$std..sys..hermit..net..LookupHost$u20$as$u20$core..convert..TryFrom$LT$$LP$$RF$str$C$u16$RP$$GT$$GT$8try_from17h09cd3eaaeb0d0b1fE
00000000008739d0 T _ZN66_$LT$std..sys..hermit..net..Socket$u20$as$u20$core..fmt..Debug$GT$3fmt17hed1dc0b340d9f4ecE
0000000000873a60 t _ZN71_$LT$std..sys..hermit..net..TcpStream$u20$as$u20$core..clone..Clone$GT$5clone17he9caea48f3b07ce0E
0000000000873aa0 t _ZN73_$LT$std..sys..hermit..net..TcpListener$u20$as$u20$core..clone..Clone$GT$5clone17h9d52864822a0fb23E
0000000000873b10 T _ZN100_$LT$core..slice..Iter$LT$T$GT$$u20$as$u20$core..iter..traits..double_ended..DoubleEndedIterator$GT$9next_back17h1a7232ef72100b19E
0000000000873c70 T _ZN105_$LT$core..slice..Split$LT$T$C$P$GT$$u20$as$u20$core..iter..traits..double_ended..DoubleEndedIterator$GT$9next_back17h582166483f02a75fE
0000000000873e20 T _ZN105_$LT$core..slice..Split$LT$T$C$P$GT$$u20$as$u20$core..iter..traits..double_ended..DoubleEndedIterator$GT$9next_back28_$u7b$$u7b$closure$u7d$$u7d$17hc27ec133f448eefbE
0000000000873e70 T _ZN42_$LT$$RF$T$u20$as$u20$core..fmt..Debug$GT$3fmt17habee4b5c9b27b3d7E
0000000000873ec0 T _ZN43_$LT$A$u20$as$u20$core..slice..SliceOrd$GT$7compare17h24662769c4e1b1ffE
00000000008741e0 t _ZN44_$LT$u8$u20$as$u20$core..slice..SliceOrd$GT$7compare17h516d5e26caa61e24E
0000000000874300 T _ZN4core4hash6Hasher11write_usize17h64e94762efe3bd39E
0000000000874360 T _ZN4core4iter6traits12double_ended19DoubleEndedIterator9try_rfold17h90a33d219188f497E
0000000000874480 T _ZN4core4iter6traits8iterator8Iterator3map17h07de5b01eec7ec93E
00000000008744d0 T _ZN4core4iter6traits8iterator8Iterator3map17h21815d48ef8f59d6E
0000000000874520 T _ZN4core4iter6traits8iterator8Iterator3map17h559b97c15147cfd2E
0000000000874570 T _ZN4core4iter6traits8iterator8Iterator3map17h5a407d22be182f77E
00000000008745c0 T _ZN4core4iter6traits8iterator8Iterator3map17h65fc6ae586d5743cE
0000000000874610 T _ZN4core4iter6traits8iterator8Iterator3map17h9dc18e0e90bcdcbbE
0000000000874660 T _ZN4core4iter6traits8iterator8Iterator3map17hcf988af3ab340f29E
00000000008746b0 T _ZN4core4iter6traits8iterator8Iterator3map17hd67ea5d74797fae1E
0000000000874700 T _ZN4core4iter6traits8iterator8Iterator4fold17h01be8862c998a38cE
00000000008747a0 T _ZN4core4iter6traits8iterator8Iterator4fold17h2c9cf359cd85ef34E
0000000000874840 T _ZN4core4iter6traits8iterator8Iterator4fold17h4dcc5ed3dc1f000fE
00000000008748e0 T _ZN4core4iter6traits8iterator8Iterator4fold17h51ba980d9274b042E
0000000000874980 T _ZN4core4iter6traits8iterator8Iterator4fold17h80d93878c5954920E
0000000000874a20 T _ZN4core4iter6traits8iterator8Iterator4fold17h92aa413554130409E
0000000000874ac0 T _ZN4core4iter6traits8iterator8Iterator4fold17hb9fc0634db21ec1aE
0000000000874b60 T _ZN4core4iter6traits8iterator8Iterator6cloned17h23860885b2a2326bE
0000000000874bb0 T _ZN4core4iter6traits8iterator8Iterator8flat_map17hb0eacafda210b776E
0000000000874c00 T _ZN4core4iter6traits8iterator8Iterator9enumerate17h0fc46bc10e28004bE
0000000000874c50 T _ZN4core4iter6traits8iterator8Iterator9enumerate17h8f2fd84ee0a79ca6E
0000000000874ca0 T _ZN4core4iter6traits8iterator8Iterator9enumerate17ha6a5487d39c628afE
0000000000874cf0 T _ZN4core5slice13Iter$LT$T$GT$8as_slice17h9ba8493704c14fa7E
0000000000874de0 T _ZN4core5slice14from_raw_parts17h0d7e039b92a1d198E
0000000000874eb0 T _ZN4core5slice14from_raw_parts17h2a0c5be9d6b773aeE
0000000000874f80 T _ZN4core5slice14from_raw_parts17h4b3967a22f070d4fE
0000000000875050 T _ZN4core5slice14from_raw_parts17h619fa93aecbde6bdE
0000000000875120 T _ZN4core5slice14from_raw_parts17h61dd0b86407b704aE
00000000008751f0 T _ZN4core5slice14from_raw_parts17h76a1297cf0f804b3E
00000000008752c0 T _ZN4core5slice18from_raw_parts_mut17h023a8cb7c7e6a1cdE
0000000000875390 T _ZN4core5slice18from_raw_parts_mut17h3e282ab1328756c1E
0000000000875460 T _ZN4core5slice18from_raw_parts_mut17h6f5087fc0ae8b33cE
0000000000875530 T _ZN4core5slice18from_raw_parts_mut17hb3c180b19e06baaaE
0000000000875600 T _ZN4core5slice18from_raw_parts_mut17hb72eb293955d8423E
00000000008756d0 T _ZN4core5slice18from_raw_parts_mut17hd475cd022abb23f3E
00000000008757a0 T _ZN4core5slice18from_raw_parts_mut17he12fb57382a898beE
0000000000875870 T _ZN4core5slice29_$LT$impl$u20$$u5b$T$u5d$$GT$10as_mut_ptr17h0bfc0e4235ba103dE
00000000008758a0 T _ZN4core5slice29_$LT$impl$u20$$u5b$T$u5d$$GT$12split_at_mut17h1a41df5ec0db8c7cE
00000000008759e0 T _ZN4core5slice29_$LT$impl$u20$$u5b$T$u5d$$GT$15copy_from_slice17h079c226ce9c179dfE
0000000000875ce0 T _ZN4core5slice29_$LT$impl$u20$$u5b$T$u5d$$GT$17get_unchecked_mut17ha41fcf557c779e16E
0000000000875d30 T _ZN4core5slice29_$LT$impl$u20$$u5b$T$u5d$$GT$4last17hfc3593d5a763eff0E
0000000000875d90 T _ZN4core5slice29_$LT$impl$u20$$u5b$T$u5d$$GT$5first17h54fe5b03bee85249E
0000000000875de0 T _ZN4core5slice29_$LT$impl$u20$$u5b$T$u5d$$GT$5split17h2b2cd242f29dc043E
0000000000875e30 T _ZN4core5slice29_$LT$impl$u20$$u5b$T$u5d$$GT$6rsplit17hcc8b39cbadf7a186E
0000000000875ea0 T _ZN4core5slice29_$LT$impl$u20$$u5b$T$u5d$$GT$7rsplitn17h0a69a2ef06edab53E
0000000000875f40 T _ZN4core5slice30_$LT$impl$u20$$u5b$u8$u5d$$GT$20make_ascii_lowercase17h7e1235a86ddcaf62E
0000000000875fd0 T _ZN4core5slice30_$LT$impl$u20$$u5b$u8$u5d$$GT$20make_ascii_uppercase17hd91e97cfb3430b23E
0000000000876060 T _ZN4core5slice30_$LT$impl$u20$$u5b$u8$u5d$$GT$8is_ascii17hfb5d07bdc2909a81E
00000000008760c0 T _ZN4core5slice30_$LT$impl$u20$$u5b$u8$u5d$$GT$8is_ascii28_$u7b$$u7b$closure$u7d$$u7d$17h0cdd8e9dd9198e57E
0000000000876100 T _ZN4core5slice56_$LT$impl$u20$core..cmp..Ord$u20$for$u20$$u5b$T$u5d$$GT$3cmp17h0b519178ac11d399E
0000000000876160 T _ZN4core5slice56_$LT$impl$u20$core..cmp..Ord$u20$for$u20$$u5b$T$u5d$$GT$3cmp17hdbd75c91af507d09E
00000000008761c0 T _ZN4core5slice63_$LT$impl$u20$core..cmp..PartialOrd$u20$for$u20$$u5b$T$u5d$$GT$11partial_cmp17h800c46277cd92a4dE
0000000000876220 T _ZN4core5slice74_$LT$impl$u20$core..ops..index..Index$LT$I$GT$$u20$for$u20$$u5b$T$u5d$$GT$5index17h19b7e40a39c3eae6E
0000000000876280 T _ZN4core5slice74_$LT$impl$u20$core..ops..index..Index$LT$I$GT$$u20$for$u20$$u5b$T$u5d$$GT$5index17h88045f47ae3eaa45E
00000000008762d0 T _ZN4core5slice74_$LT$impl$u20$core..ops..index..Index$LT$I$GT$$u20$for$u20$$u5b$T$u5d$$GT$5index17hce9a45e9380bfbc8E
0000000000876330 T _ZN4core5slice74_$LT$impl$u20$core..ops..index..Index$LT$I$GT$$u20$for$u20$$u5b$T$u5d$$GT$5index17hd5528bc520d7075fE
0000000000876390 T _ZN4core5slice77_$LT$impl$u20$core..ops..index..IndexMut$LT$I$GT$$u20$for$u20$$u5b$T$u5d$$GT$9index_mut17h2ab3d04f8f8fd992E
00000000008763f0 T _ZN4core5slice77_$LT$impl$u20$core..ops..index..IndexMut$LT$I$GT$$u20$for$u20$$u5b$T$u5d$$GT$9index_mut17h2ef9108d8a6a4e6cE
0000000000876460 T _ZN4core5slice81_$LT$impl$u20$core..cmp..PartialEq$LT$$u5b$B$u5d$$GT$$u20$for$u20$$u5b$A$u5d$$GT$2eq17h4bcd4de6ab7df798E
00000000008764c0 T _ZN4core5slice87_$LT$impl$u20$core..iter..traits..collect..IntoIterator$u20$for$u20$$RF$$u5b$T$u5d$$GT$9into_iter17hb22a14af5a6845f6E
0000000000876510 T _ZN50_$LT$A$u20$as$u20$core..slice..SlicePartialOrd$GT$15partial_compare17ha8da24e5a6b67816E
0000000000876570 T _ZN5alloc11collections5btree6search11search_node17h31bb48e9c39ee8c8E
00000000008766c0 T _ZN5alloc11collections5btree6search11search_node17h83456c7e709885a8E
0000000000876830 T _ZN5alloc11collections5btree6search11search_tree17h46a8fd25a3f97d0fE
0000000000876b50 T _ZN5alloc11collections5btree6search11search_tree17h5606f84f100ef107E
0000000000876e50 T _ZN5alloc11collections5btree6search13search_linear17had4029a76943b257E
0000000000877060 T _ZN5alloc11collections5btree6search13search_linear17hb8feee58c274975bE
0000000000877240 T _ZN63_$LT$I$u20$as$u20$core..iter..traits..collect..IntoIterator$GT$9into_iter17h0daa499c1e3dff05E
0000000000877270 T _ZN63_$LT$I$u20$as$u20$core..iter..traits..collect..IntoIterator$GT$9into_iter17h433964bbb1e1282fE
00000000008772a0 T _ZN63_$LT$I$u20$as$u20$core..iter..traits..collect..IntoIterator$GT$9into_iter17h4b6602f107fab0b4E
00000000008772e0 T _ZN63_$LT$I$u20$as$u20$core..iter..traits..collect..IntoIterator$GT$9into_iter17h694d224bad552982E
0000000000877310 T _ZN63_$LT$I$u20$as$u20$core..iter..traits..collect..IntoIterator$GT$9into_iter17he5220d23c02f275eE
0000000000877340 T _ZN63_$LT$I$u20$as$u20$core..iter..traits..collect..IntoIterator$GT$9into_iter17heb90bb3d81bcdb20E
0000000000877370 T _ZN68_$LT$$u5b$A$u5d$$u20$as$u20$core..slice..SlicePartialEq$LT$A$GT$$GT$5equal17hf615b07507c6a310E
00000000008774c0 T _ZN68_$LT$usize$u20$as$u20$core..slice..SliceIndex$LT$$u5b$T$u5d$$GT$$GT$13get_unchecked17h07e5f0766d383e63E
0000000000877520 T _ZN68_$LT$usize$u20$as$u20$core..slice..SliceIndex$LT$$u5b$T$u5d$$GT$$GT$13get_unchecked17h2e0a825318d646f0E
0000000000877580 T _ZN68_$LT$usize$u20$as$u20$core..slice..SliceIndex$LT$$u5b$T$u5d$$GT$$GT$13get_unchecked17h33ce80f5afe6b59bE
00000000008775e0 T _ZN68_$LT$usize$u20$as$u20$core..slice..SliceIndex$LT$$u5b$T$u5d$$GT$$GT$13get_unchecked17h86aa461f17ad3405E
0000000000877640 T _ZN68_$LT$usize$u20$as$u20$core..slice..SliceIndex$LT$$u5b$T$u5d$$GT$$GT$17get_unchecked_mut17h3292f6a09f9a57c3E
00000000008776a0 T _ZN68_$LT$usize$u20$as$u20$core..slice..SliceIndex$LT$$u5b$T$u5d$$GT$$GT$17get_unchecked_mut17h560383e761c606b5E
0000000000877700 T _ZN68_$LT$usize$u20$as$u20$core..slice..SliceIndex$LT$$u5b$T$u5d$$GT$$GT$17get_unchecked_mut17ha630c968c1df88c0E
0000000000877760 T _ZN68_$LT$usize$u20$as$u20$core..slice..SliceIndex$LT$$u5b$T$u5d$$GT$$GT$17get_unchecked_mut17haaf6d5c74254ca8cE
00000000008777c0 T _ZN68_$LT$usize$u20$as$u20$core..slice..SliceIndex$LT$$u5b$T$u5d$$GT$$GT$17get_unchecked_mut17hce79b2e6ff5b14bfE
0000000000877820 T _ZN74_$LT$core..slice..Split$LT$T$C$P$GT$$u20$as$u20$core..slice..SplitIter$GT$6finish17h81bfd4433e474a62E
0000000000877870 T _ZN75_$LT$core..slice..RSplit$LT$T$C$P$GT$$u20$as$u20$core..slice..SplitIter$GT$6finish17h84f58bc4ce571a24E
00000000008778b0 T _ZN85_$LT$core..slice..Iter$LT$T$GT$$u20$as$u20$core..iter..traits..iterator..Iterator$GT$3all17h381e5c6fab9013b4E
0000000000877930 T _ZN85_$LT$core..slice..Iter$LT$T$GT$$u20$as$u20$core..iter..traits..iterator..Iterator$GT$4find17hda48d507ab651c7dE
00000000008779c0 T _ZN85_$LT$core..slice..Iter$LT$T$GT$$u20$as$u20$core..iter..traits..iterator..Iterator$GT$4next17h3018cbec66a9d1d8E
0000000000877b20 T _ZN85_$LT$core..slice..Iter$LT$T$GT$$u20$as$u20$core..iter..traits..iterator..Iterator$GT$4next17h4ae05507051cdf37E
0000000000877c80 T _ZN85_$LT$core..slice..Iter$LT$T$GT$$u20$as$u20$core..iter..traits..iterator..Iterator$GT$4next17h4c4d576fb35074c7E
0000000000877de0 T _ZN85_$LT$core..slice..Iter$LT$T$GT$$u20$as$u20$core..iter..traits..iterator..Iterator$GT$4next17h78bdf2a7d1a3d12eE
0000000000877f40 T _ZN85_$LT$core..slice..Iter$LT$T$GT$$u20$as$u20$core..iter..traits..iterator..Iterator$GT$4next17h8d29d17d8272dfcfE
00000000008780a0 T _ZN85_$LT$core..slice..Iter$LT$T$GT$$u20$as$u20$core..iter..traits..iterator..Iterator$GT$8position17h0f1bc3eff44b8402E
0000000000878290 T _ZN85_$LT$core..slice..Iter$LT$T$GT$$u20$as$u20$core..iter..traits..iterator..Iterator$GT$9rposition17h9e724795322c9b99E
0000000000878490 T _ZN85_$LT$core..slice..Iter$LT$T$GT$$u20$as$u20$core..iter..traits..iterator..Iterator$GT$9rposition17hc79f74751500ca11E
0000000000878690 T _ZN88_$LT$core..slice..IterMut$LT$T$GT$$u20$as$u20$core..iter..traits..iterator..Iterator$GT$4find17hb8c5b5d919fb188eE
0000000000878720 T _ZN88_$LT$core..slice..IterMut$LT$T$GT$$u20$as$u20$core..iter..traits..iterator..Iterator$GT$4next17h380ee3ee0098bf23E
0000000000878880 T _ZN88_$LT$core..slice..IterMut$LT$T$GT$$u20$as$u20$core..iter..traits..iterator..Iterator$GT$4next17hd51a5d976f7e8969E
00000000008789e0 T _ZN91_$LT$core..slice..RSplit$LT$T$C$P$GT$$u20$as$u20$core..iter..traits..iterator..Iterator$GT$4next17h14806c2d6a88e2e4E
0000000000878a20 T _ZN92_$LT$core..slice..RSplitN$LT$T$C$P$GT$$u20$as$u20$core..iter..traits..iterator..Iterator$GT$4next17h11ccf71f05dd1199E
0000000000878a60 T _ZN94_$LT$core..slice..GenericSplitN$LT$I$GT$$u20$as$u20$core..iter..traits..iterator..Iterator$GT$4next17h797c0e662725826cE
0000000000878b50 T _ZN3std11collections4hash3map20HashMap$LT$K$C$V$GT$3new17h2cd22133ad426671E
0000000000878b80 T _ZN3std11collections4hash3map24HashMap$LT$K$C$V$C$S$GT$11with_hasher17h4e0e38eb379a57d5E
0000000000878bf0 T _ZN3std11collections4hash3map24HashMap$LT$K$C$V$C$S$GT$4iter17h0133d06a96e27f06E
0000000000878c50 T _ZN3std11collections4hash3map24HashMap$LT$K$C$V$C$S$GT$7get_mut17hea50602055ee5d25E
0000000000878ca0 T _ZN3std11collections4hash3map24HashMap$LT$K$C$V$C$S$GT$6insert17hbd8442fa789ec9e0E
0000000000878d20 T _ZN3std11collections4hash3map24HashMap$LT$K$C$V$C$S$GT$6remove17hca2bda73cb25f7e9E
0000000000878d80 T _ZN96_$LT$std..collections..hash..map..HashMap$LT$K$C$V$C$S$GT$$u20$as$u20$core..default..Default$GT$7default17h0bc94f5d2cb31d76E
0000000000878dc0 T _ZN105_$LT$std..collections..hash..map..Iter$LT$K$C$V$GT$$u20$as$u20$core..iter..traits..iterator..Iterator$GT$4next17h5474cc88e603b513E
0000000000878e00 t _ZN3std11collections4hash3map11RandomState3new17h2aab5ef851b5ac0dE
0000000000878e30 T _ZN3std11collections4hash3map11RandomState3new28_$u7b$$u7b$closure$u7d$$u7d$17hcb0a9aff7c25bc5aE
0000000000878ec0 T _ZN84_$LT$std..collections..hash..map..RandomState$u20$as$u20$core..hash..BuildHasher$GT$12build_hasher17hb2c5be6327233f87E
0000000000878f20 T _ZN3std11collections4hash3map13DefaultHasher3new17h0a45712711c9f40cE
0000000000878f70 T _ZN85_$LT$std..collections..hash..map..DefaultHasher$u20$as$u20$core..default..Default$GT$7default17h194e840c989d21b1E
0000000000878fa0 T _ZN81_$LT$std..collections..hash..map..DefaultHasher$u20$as$u20$core..hash..Hasher$GT$5write17h0917e38a734561b3E
0000000000878ff0 T _ZN81_$LT$std..collections..hash..map..DefaultHasher$u20$as$u20$core..hash..Hasher$GT$6finish17h68acd0ee583136f3E
0000000000879020 t _ZN83_$LT$std..collections..hash..map..RandomState$u20$as$u20$core..default..Default$GT$7default17hb848e634e4884affE
0000000000879050 T _ZN77_$LT$std..collections..hash..map..RandomState$u20$as$u20$core..fmt..Debug$GT$3fmt17h103b01926b5cc992E
00000000008790a0 T _ZN3std3env11current_dir17h7144331d18ce8c54E
00000000008790d0 T _ZN3std3env4vars17h687a1c9841363c03E
0000000000879120 T _ZN3std3env7vars_os17h4668ccaadca26c35E
0000000000879170 T _ZN73_$LT$std..env..Vars$u20$as$u20$core..iter..traits..iterator..Iterator$GT$4next17h575ef2472c426970E
00000000008791c0 T _ZN73_$LT$std..env..Vars$u20$as$u20$core..iter..traits..iterator..Iterator$GT$4next28_$u7b$$u7b$closure$u7d$$u7d$17hfd4bf05815d0d7b9E
0000000000879320 T _ZN73_$LT$std..env..Vars$u20$as$u20$core..iter..traits..iterator..Iterator$GT$9size_hint17ha97c64457910371dE
0000000000879360 T _ZN51_$LT$std..env..Vars$u20$as$u20$core..fmt..Debug$GT$3fmt17h5ff89ba6ef8fef14E
00000000008793b0 T _ZN75_$LT$std..env..VarsOs$u20$as$u20$core..iter..traits..iterator..Iterator$GT$4next17h3a60db05e8ba03e4E
00000000008793f0 T _ZN75_$LT$std..env..VarsOs$u20$as$u20$core..iter..traits..iterator..Iterator$GT$9size_hint17hdf014ba62df3865bE
0000000000879430 T _ZN53_$LT$std..env..VarsOs$u20$as$u20$core..fmt..Debug$GT$3fmt17hc8ddd89b6b519474E
0000000000879480 T _ZN3std3env3var17ha8085cbd39cc6b13E
00000000008794e0 T _ZN3std3env4_var17h2f1fcebe27e259bdE
00000000008795f0 T _ZN3std3env6var_os17hbc46f01c5b7252aeE
0000000000879650 T _ZN3std3env6var_os17hc5de5d0a55053f8fE
00000000008796b0 T _ZN3std3env7_var_os17hea2a0766276d2954E
0000000000879720 T _ZN3std3env7_var_os28_$u7b$$u7b$closure$u7d$$u7d$17h0ea1514621919567E
0000000000879830 T _ZN57_$LT$std..env..VarError$u20$as$u20$core..fmt..Display$GT$3fmt17h39da60c112cd3556E
0000000000879990 T _ZN56_$LT$std..env..VarError$u20$as$u20$std..error..Error$GT$11description17h91865899ad309ba6E
0000000000879a00 T _ZN3std3env8_set_var17hd9f06b6eef1589dbE
0000000000879a80 T _ZN3std3env8_set_var28_$u7b$$u7b$closure$u7d$$u7d$17h259dfc58edb0cfe2E
0000000000879bf0 T _ZN3std3env11_remove_var17h29bf4b75fa84f520E
0000000000879c50 T _ZN3std3env11_remove_var28_$u7b$$u7b$closure$u7d$$u7d$17hdd0b02758d55a58aE
0000000000879d60 T _ZN79_$LT$std..env..SplitPaths$u20$as$u20$core..iter..traits..iterator..Iterator$GT$4next17hd67f492e73fda12dE
0000000000879da0 T _ZN79_$LT$std..env..SplitPaths$u20$as$u20$core..iter..traits..iterator..Iterator$GT$9size_hint17hfa625be940bce379E
0000000000879de0 T _ZN57_$LT$std..env..SplitPaths$u20$as$u20$core..fmt..Debug$GT$3fmt17he05e516d17649597E
0000000000879e30 T _ZN63_$LT$std..env..JoinPathsError$u20$as$u20$core..fmt..Display$GT$3fmt17hba661c073fead33aE
0000000000879e80 T _ZN62_$LT$std..env..JoinPathsError$u20$as$u20$std..error..Error$GT$11description17h810273a06497d769E
0000000000879ec0 T _ZN3std3env8home_dir17hd6645a75f59b9c20E
0000000000879ef0 T _ZN3std3env8temp_dir17h49a6470330be4728E
0000000000879f20 T _ZN3std3env11current_exe17h1b3ab2a6bd535560E
0000000000879f50 T _ZN3std3env4args17hf7cd4069528c5231E
0000000000879fa0 T _ZN3std3env7args_os17ha6ee5bcb839370f1E
0000000000879ff0 T _ZN73_$LT$std..env..Args$u20$as$u20$core..iter..traits..iterator..Iterator$GT$4next17hf4c4dbf7e841da69E
000000000087a040 T _ZN73_$LT$std..env..Args$u20$as$u20$core..iter..traits..iterator..Iterator$GT$4next28_$u7b$$u7b$closure$u7d$$u7d$17h6a6d5fa5ae9dd350E
000000000087a0b0 T _ZN73_$LT$std..env..Args$u20$as$u20$core..iter..traits..iterator..Iterator$GT$9size_hint17haffaf8509ef0b3efE
000000000087a0f0 T _ZN84_$LT$std..env..Args$u20$as$u20$core..iter..traits..exact_size..ExactSizeIterator$GT$3len17h3f56c6d3d7117045E
000000000087a120 T _ZN84_$LT$std..env..Args$u20$as$u20$core..iter..traits..exact_size..ExactSizeIterator$GT$8is_empty17h9c2cb5a7607fc64aE
000000000087a160 T _ZN88_$LT$std..env..Args$u20$as$u20$core..iter..traits..double_ended..DoubleEndedIterator$GT$9next_back17h99aa474998d8dcf6E
000000000087a1b0 T _ZN88_$LT$std..env..Args$u20$as$u20$core..iter..traits..double_ended..DoubleEndedIterator$GT$9next_back28_$u7b$$u7b$closure$u7d$$u7d$17hcf5060b04f6f488dE
000000000087a220 T _ZN51_$LT$std..env..Args$u20$as$u20$core..fmt..Debug$GT$3fmt17he18f7fdd5ec735a4E
000000000087a2e0 T _ZN75_$LT$std..env..ArgsOs$u20$as$u20$core..iter..traits..iterator..Iterator$GT$4next17h791d7e3c4d02083cE
000000000087a320 T _ZN75_$LT$std..env..ArgsOs$u20$as$u20$core..iter..traits..iterator..Iterator$GT$9size_hint17h5c07b8aceefa44ddE
000000000087a360 T _ZN86_$LT$std..env..ArgsOs$u20$as$u20$core..iter..traits..exact_size..ExactSizeIterator$GT$3len17he41371cc8825d469E
000000000087a390 T _ZN86_$LT$std..env..ArgsOs$u20$as$u20$core..iter..traits..exact_size..ExactSizeIterator$GT$8is_empty17h1c14177969b3556aE
000000000087a3d0 T _ZN90_$LT$std..env..ArgsOs$u20$as$u20$core..iter..traits..double_ended..DoubleEndedIterator$GT$9next_back17h154918f3d0381d2bE
000000000087a410 T _ZN53_$LT$std..env..ArgsOs$u20$as$u20$core..fmt..Debug$GT$3fmt17hc6b6ac33df69f6a8E
000000000087a4d0 T _ZN3std2fs8DirEntry17h16b5ee0a7cdb2164E
000000000087a4f0 t _ZN3std2fs19initial_buffer_size17h94aceb9ed8aa27f7E
000000000087a540 T _ZN3std2fs19initial_buffer_size28_$u7b$$u7b$closure$u7d$$u7d$17ha4d668a357c1c981E
000000000087a590 T _ZN3std2fs4read5inner17hce3950a0f7755a96E
000000000087a7c0 T _ZN3std2fs14read_to_string5inner17hf72001b53ef8e21cE
000000000087a9f0 T _ZN3std2fs5write5inner17h57c16dd5f91c1c64E
000000000087ab20 T _ZN3std2fs4File4open17h3bb9834df028dbd3E
000000000087aba0 T _ZN3std2fs4File6create17h4bff79130b77336bE
000000000087ac50 T _ZN3std2fs4File12with_options17h0e55ef9ed6592df8E
000000000087ac80 T _ZN3std2fs4File8sync_all17h3b9400ede612f56fE
000000000087acc0 T _ZN3std2fs4File9sync_data17h9c8711ac3105ddecE
000000000087ad00 T _ZN3std2fs4File7set_len17h762f7367d85f7b2dE
000000000087ad50 T _ZN3std2fs4File8metadata17h2c620e1ccf1ca8eeE
000000000087ada0 T _ZN3std2fs4File9try_clone17h96d3dcfa0c5e23f4E
000000000087ae70 T _ZN3std2fs4File15set_permissions17h7759efa9765b656bE
000000000087aeb0 T _ZN92_$LT$std..fs..File$u20$as$u20$std..sys_common..AsInner$LT$std..sys..hermit..fs..File$GT$$GT$8as_inner17hf5cd67058e6a3983E
000000000087aed0 T _ZN94_$LT$std..fs..File$u20$as$u20$std..sys_common..FromInner$LT$std..sys..hermit..fs..File$GT$$GT$10from_inner17h6778ae9640c817a5E
000000000087af00 T _ZN94_$LT$std..fs..File$u20$as$u20$std..sys_common..IntoInner$LT$std..sys..hermit..fs..File$GT$$GT$10into_inner17h575f96314113c8d2E
000000000087af20 T _ZN50_$LT$std..fs..File$u20$as$u20$core..fmt..Debug$GT$3fmt17hb2a22285c081c65fE
000000000087af70 T _ZN47_$LT$std..fs..File$u20$as$u20$std..io..Read$GT$4read17h4b6f4c2c340070e9E
000000000087afd0 T _ZN47_$LT$std..fs..File$u20$as$u20$std..io..Read$GT$13read_vectored17h94d2f7434c93dbbcE
000000000087b030 t _ZN47_$LT$std..fs..File$u20$as$u20$std..io..Read$GT$11initializer17h949b8a1f725334d1E
000000000087b060 T _ZN48_$LT$std..fs..File$u20$as$u20$std..io..Write$GT$5write17h8e51b551779f57e8E
000000000087b0c0 T _ZN48_$LT$std..fs..File$u20$as$u20$std..io..Write$GT$14write_vectored17h37af1f0731626d2eE
000000000087b120 T _ZN48_$LT$std..fs..File$u20$as$u20$std..io..Write$GT$5flush17h346647257338bd47E
000000000087b160 T _ZN47_$LT$std..fs..File$u20$as$u20$std..io..Seek$GT$4seek17h1a1a6cb6baf676b6E
000000000087b1c0 T _ZN51_$LT$$RF$std..fs..File$u20$as$u20$std..io..Read$GT$4read17h3e121e1484e647a8E
000000000087b220 T _ZN51_$LT$$RF$std..fs..File$u20$as$u20$std..io..Read$GT$13read_vectored17h5d02c99dc0385d87E
000000000087b280 T _ZN52_$LT$$RF$std..fs..File$u20$as$u20$std..io..Write$GT$5write17h794208bc06e33bc6E
000000000087b2e0 T _ZN52_$LT$$RF$std..fs..File$u20$as$u20$std..io..Write$GT$14write_vectored17h4826e384a61974c8E
000000000087b340 T _ZN52_$LT$$RF$std..fs..File$u20$as$u20$std..io..Write$GT$5flush17h95f0ff63b15d1792E
000000000087b380 T _ZN51_$LT$$RF$std..fs..File$u20$as$u20$std..io..Seek$GT$4seek17h14e79a3616cebfb7E
000000000087b3e0 T _ZN3std2fs11OpenOptions3new17hc89144b463c6a43dE
000000000087b420 T _ZN3std2fs11OpenOptions4read17h59e0336f2057de68E
000000000087b470 T _ZN3std2fs11OpenOptions5write17he17104ed5cdfb78eE
000000000087b4c0 T _ZN3std2fs11OpenOptions6append17h936abe43603ec4b9E
000000000087b510 T _ZN3std2fs11OpenOptions8truncate17heebd86206c2883c0E
000000000087b560 T _ZN3std2fs11OpenOptions6create17h18993a6295f323fbE
000000000087b5b0 T _ZN3std2fs11OpenOptions10create_new17hb8b7e575c3c20664E
000000000087b600 T _ZN3std2fs11OpenOptions4open17h2c73b657f7b8b3aeE
000000000087b670 T _ZN3std2fs11OpenOptions5_open17h4a98d47494acf9b3E
000000000087b6e0 T _ZN3std2fs11OpenOptions5_open28_$u7b$$u7b$closure$u7d$$u7d$17h7efe5ae2c20ea90fE
000000000087b710 T _ZN106_$LT$std..fs..OpenOptions$u20$as$u20$std..sys_common..AsInner$LT$std..sys..hermit..fs..OpenOptions$GT$$GT$8as_inner17h0d9a42e9db661f24E
000000000087b730 T _ZN109_$LT$std..fs..OpenOptions$u20$as$u20$std..sys_common..AsInnerMut$LT$std..sys..hermit..fs..OpenOptions$GT$$GT$12as_inner_mut17h6d21913c23cd79e1E
000000000087b750 T _ZN3std2fs8Metadata9file_type17h4682db08ffb43dbbE
000000000087b780 T _ZN3std2fs8Metadata6is_dir17h24ce47292194edd5E
000000000087b7c0 T _ZN3std2fs8Metadata7is_file17h476a2d69fcfbfed8E
000000000087b800 T _ZN3std2fs8Metadata3len17h4c3afe14d31afd41E
000000000087b830 T _ZN3std2fs8Metadata11permissions17h97745b5eca779f9fE
000000000087b860 T _ZN3std2fs8Metadata8modified17hb59df4b1edd79d6eE
000000000087b8b0 T _ZN3std2fs8Metadata8accessed17h5806d2a1d085ec67E
000000000087b900 T _ZN3std2fs8Metadata7created17h1d595e3231463939E
000000000087b950 T _ZN54_$LT$std..fs..Metadata$u20$as$u20$core..fmt..Debug$GT$3fmt17hd6bf4832da3e55bcE
000000000087bc90 T _ZN100_$LT$std..fs..Metadata$u20$as$u20$std..sys_common..AsInner$LT$std..sys..hermit..fs..FileAttr$GT$$GT$8as_inner17hc9556245cdb97e25E
000000000087bcb0 T _ZN102_$LT$std..fs..Metadata$u20$as$u20$std..sys_common..FromInner$LT$std..sys..hermit..fs..FileAttr$GT$$GT$10from_inner17h8fd66dbb03a54aefE
000000000087bcd0 T _ZN3std2fs11Permissions8readonly17h9806a64e36d64a25E
000000000087bd10 T _ZN3std2fs11Permissions12set_readonly17hb206220a5c1d1f98E
000000000087bd50 T _ZN3std2fs8FileType6is_dir17hd39cc1dab93917f5E
000000000087bd90 T _ZN3std2fs8FileType7is_file17h6be55f09b3eb1376E
000000000087bdd0 T _ZN3std2fs8FileType10is_symlink17h794fc604798f4f34E
000000000087be10 T _ZN100_$LT$std..fs..FileType$u20$as$u20$std..sys_common..AsInner$LT$std..sys..hermit..fs..FileType$GT$$GT$8as_inner17hbde89058613a2f57E
000000000087be30 T _ZN112_$LT$std..fs..Permissions$u20$as$u20$std..sys_common..FromInner$LT$std..sys..hermit..fs..FilePermissions$GT$$GT$10from_inner17hf125ef8ba376db72E
000000000087be50 T _ZN110_$LT$std..fs..Permissions$u20$as$u20$std..sys_common..AsInner$LT$std..sys..hermit..fs..FilePermissions$GT$$GT$8as_inner17hc1c26d56050f4c2dE
000000000087be70 T _ZN75_$LT$std..fs..ReadDir$u20$as$u20$core..iter..traits..iterator..Iterator$GT$4next17h7a3b5e95685ba70cE
000000000087bec0 T _ZN75_$LT$std..fs..ReadDir$u20$as$u20$core..iter..traits..iterator..Iterator$GT$4next28_$u7b$$u7b$closure$u7d$$u7d$17ha00867d1ffce8afdE
000000000087bf10 T _ZN3std2fs8DirEntry4path17h7d6829c3eb63ca0aE
000000000087bf50 T _ZN3std2fs8DirEntry8metadata17h3758a45c82bd3977E
000000000087bfa0 T _ZN3std2fs8DirEntry9file_type17h5584b0c3d8876068E
000000000087bff0 T _ZN3std2fs8DirEntry9file_name17h7b3acde54d8a1b60E
000000000087c030 T _ZN54_$LT$std..fs..DirEntry$u20$as$u20$core..fmt..Debug$GT$3fmt17h69bd56196f76f66bE
000000000087c0d0 T _ZN100_$LT$std..fs..DirEntry$u20$as$u20$std..sys_common..AsInner$LT$std..sys..hermit..fs..DirEntry$GT$$GT$8as_inner17hc53ab9fd3511e13aE
000000000087c0f0 T _ZN3std2fs8metadata17hd43459cafc1862fcE
000000000087c160 T _ZN3std2fs16symlink_metadata17h697936959beb0143E
000000000087c1d0 T _ZN3std2fs9read_link17h3f61b2f6bac9bffaE
000000000087c230 T _ZN3std2fs12canonicalize17h0d18de95e3babb2dE
000000000087c290 T _ZN3std2fs8read_dir17h10410679c8c313ceE
000000000087c300 T _ZN3std2fs10DirBuilder3new17ha82b07bc6d5f1becE
000000000087c320 T _ZN3std2fs10DirBuilder9recursive17he580cff37d8401eaE
000000000087c360 T _ZN3std2fs10DirBuilder7_create17hd04e23b4c44f4a29E
000000000087c3e0 t _ZN3std2fs10DirBuilder14create_dir_all17h866d066d8492bd3aE
000000000087c870 T _ZN107_$LT$std..fs..DirBuilder$u20$as$u20$std..sys_common..AsInnerMut$LT$std..sys..hermit..fs..DirBuilder$GT$$GT$12as_inner_mut17hfd9914c39e00cbffE
000000000087c890 T _ZN3std2io5impls57_$LT$impl$u20$std..io..Read$u20$for$u20$$RF$mut$u20$R$GT$11initializer17h31658b5781ed26c6E
000000000087c8d0 T _ZN3std2io5impls57_$LT$impl$u20$std..io..Read$u20$for$u20$$RF$mut$u20$R$GT$11initializer17h67f777ae721a4d46E
000000000087c910 T _ZN3std2io4Read11initializer17h4bcab0c6f4d7daf8E
000000000087c940 T _ZN3std2io4Read11read_to_end17hb00348d49f39742eE
000000000087c990 T _ZN3std2io4Read11read_to_end17hcd60aff26997398bE
000000000087c9e0 T _ZN3std2io4Read14read_to_string17hc0275f7676236ce5E
000000000087ca40 T _ZN3std2io5Write9write_all17haf0a932f6854ba08E
000000000087cc40 T _ZN3std11collections4hash3map11RandomState3new4KEYS6__init17h3c16d5cb15479914E
000000000087cc80 T _ZN3std11collections4hash3map11RandomState3new4KEYS7__getit17h6dfa00c7432265c9E
000000000087ccb0 T _ZN79_$LT$std..collections..hash..map..DefaultHasher$u20$as$u20$core..fmt..Debug$GT$3fmt17hc794773c14a88e22E
000000000087cd40 T _ZN3std3env8VarError10NotUnicode17h34e55fed36c6023dE
000000000087cd90 T _ZN55_$LT$std..env..VarError$u20$as$u20$core..fmt..Debug$GT$3fmt17h2388b45f00c778dcE
000000000087ce80 T _ZN61_$LT$std..env..JoinPathsError$u20$as$u20$core..fmt..Debug$GT$3fmt17hd41dce12c5a84e09E
000000000087cf30 T _ZN3std2fs8Metadata17h9d37934f3e09caa7E
000000000087cf50 T _ZN3std2fs7ReadDir17hfbdaec266488979eE
000000000087cf70 T _ZN53_$LT$std..fs..ReadDir$u20$as$u20$core..fmt..Debug$GT$3fmt17hafb776119a972c4dE
000000000087d000 T _ZN57_$LT$std..fs..OpenOptions$u20$as$u20$core..fmt..Debug$GT$3fmt17h66e5bd2fd59e6fc1E
000000000087d090 T _ZN57_$LT$std..fs..Permissions$u20$as$u20$core..fmt..Debug$GT$3fmt17h94d8f3a0806a8e00E
000000000087d120 T _ZN3std2fs8FileType17hc3d9749d6194378fE
000000000087d140 T _ZN54_$LT$std..fs..FileType$u20$as$u20$core..fmt..Debug$GT$3fmt17h7f52633e630890ddE
000000000087d1d0 T _ZN56_$LT$std..fs..DirBuilder$u20$as$u20$core..fmt..Debug$GT$3fmt17hd69a9bc94c9cd4c3E
000000000087d2d0 T _ZN3std3sys6hermit2fd8FileDesc3new17ha18212b1e834618eE
000000000087d300 T _ZN3std3sys6hermit2fd8FileDesc3raw17h0b3b8cee572f6adeE
000000000087d330 T _ZN3std3sys6hermit2fd8FileDesc8into_raw17hc9d020130aa8e97dE
000000000087d360 T _ZN3std3sys6hermit2fd8FileDesc4read17h4a5aa8c3374ca565E
000000000087d410 T _ZN3std3sys6hermit2fd8FileDesc11read_to_end17ha8f47223160c6ebbE
000000000087d460 T _ZN3std3sys6hermit2fd8FileDesc5write17hb6b42ba27584c514E
000000000087d510 T _ZN3std3sys6hermit2fd8FileDesc9duplicate17h58caf817ceafd01aE
000000000087d560 T _ZN3std3sys6hermit2fd8FileDesc14duplicate_path17h3151a5a801e5cfeaE
000000000087d5f0 T _ZN3std3sys6hermit2fd8FileDesc11nonblocking17hac2a3552d61d1d32E
000000000087d630 T _ZN3std3sys6hermit2fd8FileDesc11set_cloexec17h179630eb61590ba6E
000000000087d6a0 T _ZN3std3sys6hermit2fd8FileDesc15set_nonblocking17h4114ea838797beb1E
000000000087d710 T _ZN68_$LT$$RF$std..sys..hermit..fd..FileDesc$u20$as$u20$std..io..Read$GT$4read17h6173f76b162e4de6E
000000000087d770 T _ZN86_$LT$std..sys..hermit..fd..FileDesc$u20$as$u20$std..sys_common..AsInner$LT$i32$GT$$GT$8as_inner17hfe223e593c847bb0E
000000000087d790 T _ZN72_$LT$std..sys..hermit..fd..FileDesc$u20$as$u20$core..ops..drop..Drop$GT$4drop17h560b005373f7c7b9E
000000000087d7c0 T _ZN67_$LT$std..sys..hermit..fd..FileDesc$u20$as$u20$core..fmt..Debug$GT$3fmt17h57e098c0a66d23f7E
000000000087d870 T __rust_panic_cleanup
000000000087d8a0 T __rust_start_panic
000000000087d8c0 t _ZN11panic_abort18__rust_start_panic5abort17h943f19cf409d60ffE
000000000087d8d0 T _ZN42_$LT$$RF$T$u20$as$u20$core..fmt..Debug$GT$3fmt17h337a660ae1de53acE
000000000087d920 T _ZN42_$LT$$RF$T$u20$as$u20$core..fmt..Debug$GT$3fmt17h53a935c0adc53ba7E
000000000087d970 T _ZN10hermit_abi8Priority4into17h69a8d4564f4e77cbE
000000000087d990 T _ZN10hermit_abi8Priority4from17haf623f3e5565b193E
000000000087d9c0 T _ZN10hermit_abi6isatty17h08a209ceb00b3ed9E
000000000087d9f0 T _ZN10hermit_abi12network_init17h05e25a2724fcdc98E
000000000087da10 T _ZN57_$LT$hermit_abi..Priority$u20$as$u20$core..fmt..Debug$GT$3fmt17h7dd1ec5e4219a33dE
000000000087daa0 T _ZN55_$LT$hermit_abi..Handle$u20$as$u20$core..fmt..Debug$GT$3fmt17h0ed2b4150cff6d8dE
000000000087db30 T _ZN57_$LT$hermit_abi..timespec$u20$as$u20$core..fmt..Debug$GT$3fmt17h2b51241f2cb46b99E
000000000087dc40 T _ZN56_$LT$hermit_abi..Version$u20$as$u20$core..fmt..Debug$GT$3fmt17h11167e5642d4f787E
000000000087dd80 T _ZN60_$LT$hermit_abi..Ipv4Address$u20$as$u20$core..fmt..Debug$GT$3fmt17h95310b461ce869e0E
000000000087de10 T _ZN60_$LT$hermit_abi..Ipv6Address$u20$as$u20$core..fmt..Debug$GT$3fmt17h841053ae4b3bef17E
000000000087dea0 T _ZN58_$LT$hermit_abi..IpAddress$u20$as$u20$core..fmt..Debug$GT$3fmt17h93755930167728f8E
000000000087e090 T _ZN42_$LT$$RF$T$u20$as$u20$core..fmt..Debug$GT$3fmt17h2da51d41e4cd1750E
000000000087e0e0 T _ZN4core5array69_$LT$impl$u20$core..fmt..Debug$u20$for$u20$$u5b$T$u3b$$u20$N$u5d$$GT$3fmt17h88784ef2f66ea1d9E
000000000087e160 T _ZN9hashbrown3raw11Fallibility17capacity_overflow17hc12ef78a913af5eeE
000000000087e1c0 T _ZN9hashbrown3raw11Fallibility9alloc_err17h0f5a04e3615025bfE
000000000087e230 T _ZN9hashbrown3raw19capacity_to_buckets17hc6bd7bdd4b15d7f1E
000000000087e330 T _ZN9hashbrown3raw23bucket_mask_to_capacity17heea34a4b3f4b2adeE
000000000087e3d0 T _ZN9hashbrown3raw4sse25Group12static_empty17h1326d14463205c04E
000000000087e3f0 T _ZN9backtrace5print12BacktraceFmt3new17ha8d05955a4b59bcfE
000000000087e460 T _ZN9backtrace5print12BacktraceFmt11add_context17h8bc5e023840b42ceE
000000000087e490 T _ZN9backtrace5print12BacktraceFmt5frame17hac2cd010b47d327eE
000000000087e4d0 T _ZN9backtrace5print12BacktraceFmt6finish17hb1b21e4beec308c7E
000000000087e500 T _ZN9backtrace5print17BacktraceFrameFmt6symbol17hcb0cacc0a3596948E
000000000087e630 T _ZN9backtrace5print17BacktraceFrameFmt9print_raw17h86b8a0427d9f6468E
000000000087e7d0 t _ZN9backtrace5print17BacktraceFrameFmt17print_raw_generic17hcf79158d0c262ad7E
000000000087f3e0 t _ZN9backtrace5print17BacktraceFrameFmt14print_fileline17hd14cfe239368865cE
000000000087f860 T _ZN77_$LT$backtrace..print..BacktraceFrameFmt$u20$as$u20$core..ops..drop..Drop$GT$4drop17hf96f4535a3aa324aE
000000000087f8c0 T _ZN9backtrace9symbolize6Symbol4name17hb136efcc5fd92c94E
000000000087f900 T _ZN9backtrace9symbolize6Symbol4addr17h8fac6ffe6adf441dE
000000000087f950 T _ZN9backtrace9symbolize6Symbol4addr28_$u7b$$u7b$closure$u7d$$u7d$17h8877451d316d01ddE
000000000087f970 T _ZN9backtrace9symbolize6Symbol12filename_raw17h03764bf21854b2a3E
000000000087f9b0 T _ZN9backtrace9symbolize6Symbol6lineno17h871163d40f8229baE
000000000087f9f0 T _ZN65_$LT$backtrace..symbolize..Symbol$u20$as$u20$core..fmt..Debug$GT$3fmt17h686507a2cbc849dbE
000000000087fc00 T _ZN9backtrace9symbolize10SymbolName3new17h04d892128f35f706E
000000000087fd50 T _ZN9backtrace9symbolize10SymbolName3new28_$u7b$$u7b$closure$u7d$$u7d$17hf5fa4c9388f013b5E
000000000087fdb0 T _ZN9backtrace9symbolize10SymbolName6as_str17hf5c07872a12c36adE
000000000087fe20 T _ZN9backtrace9symbolize10SymbolName6as_str28_$u7b$$u7b$closure$u7d$$u7d$17hbebe1ae69cd939e4E
000000000087fe60 T _ZN9backtrace9symbolize10SymbolName6as_str28_$u7b$$u7b$closure$u7d$$u7d$17h52bc651549a1ceacE
000000000087feb0 T _ZN9backtrace9symbolize10SymbolName8as_bytes17hbddca11932651e6bE
000000000087fee0 t _ZN9backtrace9symbolize18format_symbol_name17hc5daad91bce2b1ffE
00000000008801a0 t _ZN9backtrace9symbolize15OptionCppSymbol5parse17h6cd380461c77ca4cE
00000000008801d0 t _ZN9backtrace9symbolize15OptionCppSymbol4none17h6059c2a7b68fe772E
00000000008801e0 T _ZN71_$LT$backtrace..symbolize..SymbolName$u20$as$u20$core..fmt..Display$GT$3fmt17h1319de49b2081040E
0000000000880280 T _ZN69_$LT$backtrace..symbolize..SymbolName$u20$as$u20$core..fmt..Debug$GT$3fmt17h479f18d5b9916babE
0000000000880320 T _ZN4core3ptr7mut_ptr31_$LT$impl$u20$$BP$mut$u20$T$GT$7is_null17hb1f52200e47593b8E
0000000000880360 T _ZN4core3ptr13drop_in_place17h1b30c1af08f33a26E
0000000000880380 T _ZN4core3ptr13drop_in_place17h6851d906a9a1ebcdE
00000000008803a0 T _ZN4core3ptr13drop_in_place17h9e1464c87b1e0a24E
00000000008803c0 T _ZN4core3ptr13drop_in_place17hcf6098b77eb19c1aE
00000000008803e0 T _ZN4core3ptr13drop_in_place17hdbaf23ec7da02f7bE
0000000000880400 T _ZN4core3ptr13drop_in_place17hf05523a113712615E
0000000000880420 T _ZN9backtrace9backtrace4noop5Frame2ip17h0524bb367c27f854E
0000000000880450 T _ZN9backtrace9backtrace4noop5Frame14symbol_address17hc24cec43073134cbE
0000000000880480 T _ZN9backtrace9symbolize4noop7resolve17h593bdacb2f127a95E
00000000008804d0 T _ZN9backtrace9symbolize4noop6Symbol4name17h1d91ce61c1b0add2E
0000000000880510 T _ZN9backtrace9symbolize4noop6Symbol4addr17h99cc16b0145476efE
0000000000880540 T _ZN9backtrace9symbolize4noop6Symbol12filename_raw17hf75246a697637600E
0000000000880580 T _ZN9backtrace9symbolize4noop6Symbol6lineno17hf8412b6bbc439244E
00000000008805b0 T _ZN4core6option15Option$LT$T$GT$3map17h06e6df52b035b875E
0000000000880650 T _ZN4core6option15Option$LT$T$GT$3map17hb11f31d2d411db61E
00000000008806f0 T _ZN4core6option15Option$LT$T$GT$6as_ref17hf8396fb400824300E
0000000000880740 T _ZN4core6option15Option$LT$T$GT$7is_none17h533fe45814b13111E
0000000000880780 T _ZN4core6option15Option$LT$T$GT$7is_some17had235c3e3f05c312E
00000000008807e0 T _ZN4core6option15Option$LT$T$GT$7or_else17h884d7abd6f5c0924E
00000000008808a0 T _ZN4core6option15Option$LT$T$GT$8and_then17h5c9d74b0445da66dE
0000000000880950 T _ZN42_$LT$$RF$T$u20$as$u20$core..fmt..Debug$GT$3fmt17h5e5df6fef845828cE
00000000008809a0 T _ZN42_$LT$$RF$T$u20$as$u20$core..fmt..Debug$GT$3fmt17h880daebce0a6061eE
00000000008809f0 T _ZN48_$LT$$u5b$T$u5d$$u20$as$u20$core..fmt..Debug$GT$3fmt17hf2cce879fc4cfa4bE
0000000000880a80 T _ZN4core3fmt10ArgumentV13new17h2273d501b6a85560E
0000000000880ae0 T _ZN4core3fmt10ArgumentV13new17h27ab7747fc35d4dcE
0000000000880b40 T _ZN4core3fmt9Arguments16new_v1_formatted17hcb0a28d3a2026131E
0000000000880be0 T _ZN4core3fmt9Arguments6new_v117h83d7eb4ebbaa091fE
0000000000880c60 T _ZN9backtrace9backtrace5Frame2ip17hd755470f05861d0fE
0000000000880c90 T _ZN9backtrace9backtrace5Frame14symbol_address17h7966669bfc896450E
0000000000880cc0 T _ZN64_$LT$backtrace..backtrace..Frame$u20$as$u20$core..fmt..Debug$GT$3fmt17hec025c43347a9161E
0000000000880dd0 T _ZN4core3fmt8builders9DebugList7entries17hd5542c73da98cec8E
0000000000880e90 T _ZN4core3fmt3num50_$LT$impl$u20$core..fmt..Debug$u20$for$u20$u32$GT$3fmt17h7f1659ac0d7eb6ffE
0000000000880f30 T _ZN4core6result19Result$LT$T$C$E$GT$2ok17h91aabd8e844f9830E
0000000000881040 T _ZN4core6result19Result$LT$T$C$E$GT$2ok17hbccc25ac73021c8bE
00000000008810b0 t _ZN4core3str7pattern14TwoWaySearcher16byteset_contains17h985ad7d64817d2e8E
0000000000881150 T _ZN4core3str7pattern14TwoWaySearcher4next17h9bfab466cc422551E
0000000000881ac0 T _ZN4core3str7pattern14TwoWaySearcher4next17he0bf5548203bf9b0E
0000000000882430 T _ZN4core3str7pattern8Searcher10next_match17h4454e08356fad64dE
00000000008824d0 T _ZN52_$LT$char$u20$as$u20$core..str..pattern..Pattern$GT$12is_prefix_of17hb9a1b536821609ecE
0000000000882560 T _ZN52_$LT$char$u20$as$u20$core..str..pattern..Pattern$GT$13into_searcher17h213a4fd17926fbffE
0000000000882650 T _ZN55_$LT$$RF$str$u20$as$u20$core..str..pattern..Pattern$GT$12is_prefix_of17h3eb9dde8abdeb53fE
0000000000882720 T _ZN55_$LT$$RF$str$u20$as$u20$core..str..pattern..Pattern$GT$13into_searcher17h9e3511894190cdedE
0000000000882790 T _ZN80_$LT$core..str..pattern..StrSearcher$u20$as$u20$core..str..pattern..Searcher$GT$10next_match17h6beaea9fb2529b4fE
0000000000882a30 t _ZN80_$LT$core..str..pattern..StrSearcher$u20$as$u20$core..str..pattern..Searcher$GT$4next17h5480936937cb09bbE
0000000000882ea0 T _ZN81_$LT$core..str..pattern..CharSearcher$u20$as$u20$core..str..pattern..Searcher$GT$10next_match17h2f0580ba6703f7d8E
0000000000883350 T _ZN81_$LT$core..str..pattern..CharSearcher$u20$as$u20$core..str..pattern..Searcher$GT$8haystack17haebac081a9e1a7f1E
0000000000883380 t _ZN84_$LT$core..str..pattern..MatchOnly$u20$as$u20$core..str..pattern..TwoWayStrategy$GT$16use_early_reject17h46bbc4755cf41d2fE
00000000008833a0 t _ZN84_$LT$core..str..pattern..MatchOnly$u20$as$u20$core..str..pattern..TwoWayStrategy$GT$8matching17h77820ac5c47f745aE
0000000000883400 t _ZN84_$LT$core..str..pattern..MatchOnly$u20$as$u20$core..str..pattern..TwoWayStrategy$GT$9rejecting17hb38daaa5f11fbe72E
0000000000883450 t _ZN89_$LT$core..str..pattern..RejectAndMatch$u20$as$u20$core..str..pattern..TwoWayStrategy$GT$16use_early_reject17h0b1633386a58aba8E
0000000000883470 t _ZN89_$LT$core..str..pattern..RejectAndMatch$u20$as$u20$core..str..pattern..TwoWayStrategy$GT$8matching17h29a8b63763ebe90cE
00000000008834c0 t _ZN89_$LT$core..str..pattern..RejectAndMatch$u20$as$u20$core..str..pattern..TwoWayStrategy$GT$9rejecting17h61d29aa35ed9d9d5E
0000000000883510 T _ZN95_$LT$core..str..pattern..MultiCharEqPattern$LT$C$GT$$u20$as$u20$core..str..pattern..Pattern$GT$13into_searcher17hd949799dff59708dE
0000000000883590 T _ZN97_$LT$core..str..pattern..MultiCharEqSearcher$LT$C$GT$$u20$as$u20$core..str..pattern..Searcher$GT$4next17h137cf654c0ce74a1E
0000000000883950 T _ZN99_$LT$core..str..pattern..CharPredicateSearcher$LT$F$GT$$u20$as$u20$core..str..pattern..Searcher$GT$10next_match17h85568af3a8ee0f9bE
0000000000883990 T _ZN4core3num21_$LT$impl$u20$u64$GT$11checked_add17hed52526319754dccE
0000000000883a10 T _ZN4core3num21_$LT$impl$u20$u64$GT$11checked_mul17h477b2933e568e2ceE
0000000000883a90 T _ZN4core3num21_$LT$impl$u20$u64$GT$11checked_sub17h28108a63af5bd282E
0000000000883b10 T _ZN4core3num21_$LT$impl$u20$u64$GT$13unchecked_add17hbb6254683e36f73eE
0000000000883b50 t _ZN4core3num21_$LT$impl$u20$u64$GT$15overflowing_add17hd0858f8662cf9389E
0000000000883bc0 t _ZN4core3num21_$LT$impl$u20$u64$GT$15overflowing_mul17h61f5027a6173eae4E
0000000000883c30 t _ZN4core3num21_$LT$impl$u20$u64$GT$15overflowing_sub17h76d5a824a6527cd9E
0000000000883ca0 T _ZN4core3num23_$LT$impl$u20$usize$GT$11checked_add17hb4d712d57b8cf501E
0000000000883d20 T _ZN4core3num23_$LT$impl$u20$usize$GT$11checked_mul17h490e9a0f4acdecfcE
0000000000883da0 T _ZN4core3num23_$LT$impl$u20$usize$GT$12wrapping_sub17ha577b21464efc618E
0000000000883de0 T _ZN4core3num23_$LT$impl$u20$usize$GT$14saturating_mul17he7e4d6f391ad81c5E
0000000000883e50 T _ZN4core3num23_$LT$impl$u20$usize$GT$14saturating_sub17he3eb23f84c34abc4E
0000000000883ea0 t _ZN4core3num23_$LT$impl$u20$usize$GT$15overflowing_add17h3c85ae979e7558f0E
0000000000883f10 t _ZN4core3num23_$LT$impl$u20$usize$GT$15overflowing_mul17h511f98ee197681b0E
0000000000883f80 T _ZN4core10intrinsics17is_nonoverlapping17h8fa71e036dedce45E
00000000008840a0 T _ZN4core10intrinsics17is_nonoverlapping17h92531804450c1171E
00000000008841c0 T _ZN4core10intrinsics19copy_nonoverlapping17h9ff60eae56612e37E
00000000008842b0 T _ZN4core10intrinsics19copy_nonoverlapping17hc0d11d9e15baae35E
00000000008843a0 T _ZN4core10intrinsics23is_aligned_and_not_null17hce2b0ec723216162E
0000000000884440 T _ZN4core10intrinsics23is_aligned_and_not_null17hd7c516557ad55b4aE
00000000008844e0 T _ZN47_$LT$u64$u20$as$u20$core..iter..range..Step$GT$17forward_unchecked17hfbebde552dd08d59E
0000000000884520 T _ZN4core3cmp5impls53_$LT$impl$u20$core..cmp..PartialEq$u20$for$u20$u8$GT$2eq17h5eca1e4cb43e6443E
0000000000884560 T _ZN4core3cmp5impls55_$LT$impl$u20$core..cmp..PartialEq$u20$for$u20$bool$GT$2eq17h41a3f4a9a16876ebE
00000000008845a0 T _ZN4core3cmp5impls55_$LT$impl$u20$core..cmp..PartialOrd$u20$for$u20$u64$GT$2lt17h1ed7011d28bf1feaE
00000000008845e0 T _ZN4core3cmp5impls59_$LT$impl$u20$core..cmp..PartialEq$u20$for$u20$$LP$$RP$$GT$2eq17h91174fa9ea055ab2E
0000000000884620 T _ZN4core3fmt9Arguments6new_v117h0a81f2025fca3545E
00000000008846a0 T _ZN4core3mem4swap17h6ff6cecf5819d103E
00000000008846e0 T _ZN4core3mem4swap17h8a7bc5ad0d2b65d6E
0000000000884720 T _ZN4core3mem4take17hf12087945ead26adE
0000000000884770 T _ZN4core3mem7replace17h09de271b69461e9fE
00000000008847c0 T _ZN4core3mem7replace17h976b6203d0247afcE
0000000000884800 T _ZN4core3ops8function2Fn4call17h17cbf86fe681838bE
0000000000884840 T _ZN4core3ops8function2Fn4call17h5f0f15099a45006eE
0000000000884880 T _ZN4core3ops8function2Fn4call17hd23d52ffcc083ca6E
00000000008848c0 T _ZN4core3ops8function6FnOnce9call_once17hc4f866b23934a66eE
00000000008848f0 T _ZN4core3ptr13drop_in_place17h4fa48724780bd2e5E
0000000000884910 T _ZN4core3ptr13drop_in_place17hb8a7d22903186f00E
0000000000884930 T _ZN4core3ptr9const_ptr33_$LT$impl$u20$$BP$const$u20$T$GT$7is_null17ha4788421b82377d0E
0000000000884970 T _ZN4core3str6traits54_$LT$impl$u20$core..cmp..PartialEq$u20$for$u20$str$GT$2eq17hce151dcd6427c756E
0000000000884a40 t _ZN4core4char7convert68_$LT$impl$u20$core..convert..TryFrom$LT$u32$GT$$u20$for$u20$char$GT$8try_from17he636ccc03b7a013fE
0000000000884ad0 T _ZN4core4char7convert8from_u3217h50e43d169fb93a87E
0000000000884b10 T _ZN4core4hint21unreachable_unchecked17h1f95c5f9735c44cbE
0000000000884b20 T _ZN4core5clone5impls52_$LT$impl$u20$core..clone..Clone$u20$for$u20$u64$GT$5clone17hbc88591ee0d2bdedE
0000000000884b50 T _ZN50_$LT$T$u20$as$u20$core..convert..From$LT$T$GT$$GT$4from17h8540b5bdfeaffaaeE
0000000000884b70 T _ZN49_$LT$F$u20$as$u20$core..str..pattern..Pattern$GT$13into_searcher17h27b028b536154eaeE
0000000000884be0 T _ZN53_$LT$F$u20$as$u20$core..str..pattern..MultiCharEq$GT$7matches17hbfceca32eba7e29bE
0000000000884c30 T _ZN14rustc_demangle6legacy8demangle17h67837b0564852e5eE
00000000008852c0 T _ZN14rustc_demangle6legacy8demangle28_$u7b$$u7b$closure$u7d$$u7d$17h906cbb251a184ad4E
0000000000885300 T _ZN14rustc_demangle6legacy8demangle28_$u7b$$u7b$closure$u7d$$u7d$17h114e3a2480c19d7dE
0000000000885350 t _ZN14rustc_demangle6legacy12is_rust_hash17h1c4aebd61ffd38a8E
0000000000885400 T _ZN14rustc_demangle6legacy12is_rust_hash28_$u7b$$u7b$closure$u7d$$u7d$17h98539e4eef214bcbE
0000000000885440 T _ZN71_$LT$rustc_demangle..legacy..Demangle$u20$as$u20$core..fmt..Display$GT$3fmt17ha00bc06caea9a9d1E
00000000008864d0 t _ZN71_$LT$rustc_demangle..legacy..Demangle$u20$as$u20$core..fmt..Display$GT$3fmt28_$u7b$$u7b$closure$u7d$$u7d$17h131bb753128bcf9bE
0000000000886520 T _ZN71_$LT$rustc_demangle..legacy..Demangle$u20$as$u20$core..fmt..Display$GT$3fmt28_$u7b$$u7b$closure$u7d$$u7d$17h274362d9da7f7407E
0000000000886580 T _ZN4core6result19Result$LT$T$C$E$GT$2ok17h113ed217bd3e5263E
00000000008865f0 T _ZN4core6result19Result$LT$T$C$E$GT$3map17h24c7c4ad14fdc679E
0000000000886680 T _ZN4core6result19Result$LT$T$C$E$GT$3map17hf769bed3f13f01a6E
0000000000886700 T _ZN4core6result19Result$LT$T$C$E$GT$5is_ok17h67d70c69e96f7db3E
0000000000886750 T _ZN4core6result19Result$LT$T$C$E$GT$5is_ok17hcbe8ba9394552c46E
00000000008867a0 T _ZN4core6result19Result$LT$T$C$E$GT$6as_mut17hbaf13c19e059a43aE
0000000000886810 T _ZN4core6result19Result$LT$T$C$E$GT$6unwrap17h7f659034538e48c6E
0000000000886880 T _ZN4core6result19Result$LT$T$C$E$GT$7map_err17hb2552f6b9aee82f0E
0000000000886910 T _ZN4core6result19Result$LT$T$C$E$GT$8and_then17h0600282117f7055bE
0000000000886990 T _ZN4core6result19Result$LT$T$C$E$GT$8and_then17h0d6fa50ca8cddcbbE
0000000000886a10 T _ZN4core6result19Result$LT$T$C$E$GT$8and_then17h10c6f083763e1feeE
0000000000886aa0 T _ZN4core6result19Result$LT$T$C$E$GT$8and_then17h15de1d5cf1d10fabE
0000000000886b30 T _ZN4core6result19Result$LT$T$C$E$GT$8and_then17h25e65bdd7e4b9498E
0000000000886bb0 T _ZN4core6result19Result$LT$T$C$E$GT$8and_then17h3aac263f4c187bbdE
0000000000886c30 T _ZN4core6result19Result$LT$T$C$E$GT$8and_then17h50775c4f31040e3bE
0000000000886cc0 T _ZN4core6result19Result$LT$T$C$E$GT$8and_then17h59e499bb7592bed4E
0000000000886d40 T _ZN4core6result19Result$LT$T$C$E$GT$8and_then17h5e127cdc8dfeb4b2E
0000000000886dc0 T _ZN4core6result19Result$LT$T$C$E$GT$8and_then17h6338e272793f29caE
0000000000886e40 T _ZN4core6result19Result$LT$T$C$E$GT$8and_then17h633bb69f07c155f4E
0000000000886ed0 T _ZN4core6result19Result$LT$T$C$E$GT$8and_then17h9618a1aabd6693fdE
0000000000886f50 T _ZN4core6result19Result$LT$T$C$E$GT$8and_then17hb80424c0878bfd5cE
0000000000886fd0 T _ZN4core6result19Result$LT$T$C$E$GT$8and_then17hcfc355aa55fa3055E
0000000000887050 T _ZN4core6result19Result$LT$T$C$E$GT$8and_then17hd4137d75b5051c7bE
00000000008870d0 T _ZN4core6result19Result$LT$T$C$E$GT$8and_then17he23eb69a0d2d966fE
0000000000887150 T _ZN4core6result19Result$LT$T$C$E$GT$8and_then17heb6fb1e815bf1abeE
00000000008871d0 T _ZN4core6result19Result$LT$T$C$E$GT$8and_then17hedb336e1dd26b8e4E
0000000000887260 T _ZN4core6result19Result$LT$T$C$E$GT$8and_then17hfaae0460483ef862E
00000000008872e0 T _ZN74_$LT$core..result..Result$LT$T$C$E$GT$$u20$as$u20$core..cmp..PartialEq$GT$2eq17h08407e0c4016c555E
0000000000887460 t _ZN4core3str19from_utf8_unchecked17heb673c83f9486aafE
0000000000887490 T _ZN4core3str21_$LT$impl$u20$str$GT$11starts_with17h5898092cead17d8fE
00000000008874f0 T _ZN4core3str21_$LT$impl$u20$str$GT$11starts_with17hffc8844eb5481772E
0000000000887540 T _ZN4core3str21_$LT$impl$u20$str$GT$12char_indices17h9a08d813aceaf36cE
00000000008875b0 T _ZN4core3str21_$LT$impl$u20$str$GT$16is_char_boundary17h24bc4b407f299678E
00000000008876b0 T _ZN4core3str21_$LT$impl$u20$str$GT$3len17hec2327a75931ceb7E
0000000000887710 T _ZN4core3str21_$LT$impl$u20$str$GT$4find17h324fb7e315e15cfeE
0000000000887780 T _ZN4core3str21_$LT$impl$u20$str$GT$4find17h394ac85b35081306E
0000000000887840 T _ZN4core3str21_$LT$impl$u20$str$GT$4find28_$u7b$$u7b$closure$u7d$$u7d$17h20bad9207190e3dbE
0000000000887870 T _ZN4core3str21_$LT$impl$u20$str$GT$4find28_$u7b$$u7b$closure$u7d$$u7d$17h9f76a849959076eaE
00000000008878a0 T _ZN4core3str21_$LT$impl$u20$str$GT$5bytes17hef963413463c28e8E
0000000000887940 T _ZN4core3str21_$LT$impl$u20$str$GT$5chars17h422641739ddc7135E
00000000008879c0 T _ZN4core3str21_$LT$impl$u20$str$GT$5parse17h925178a0330d6b44E
0000000000887a10 T _ZN4core3str21_$LT$impl$u20$str$GT$5split17hd1a7d9ac8660455aE
0000000000887b10 T _ZN4core3str21_$LT$impl$u20$str$GT$8is_empty17h0314f4ccec4f515fE
0000000000887b60 T _ZN4core3str22SplitInternal$LT$P$GT$4next17hd97aaf28a76cbd61E
0000000000887c80 T _ZN4core3str22SplitInternal$LT$P$GT$7get_end17h47fea975daadec84E
0000000000887da0 T _ZN4core3str23from_utf8_unchecked_mut17h0f358cfe3b5b4992E
0000000000887dd0 T _ZN4core3str5Chars6as_str17h6bf7db56c7401075E
0000000000887e20 T _ZN4core4iter6traits8iterator8Iterator3all17h2c9e8989742e9ca3E
0000000000887e70 T _ZN4core4iter6traits8iterator8Iterator3all17h45e37e157b75e167E
0000000000887ec0 T _ZN4core4iter6traits8iterator8Iterator3all17h4baea5cd35b3e642E
0000000000887f10 T _ZN4core4iter6traits8iterator8Iterator3all17hc9f3841ea90adfb2E
0000000000887f60 T _ZN4core4iter6traits8iterator8Iterator8peekable17he3f80dbc21c91c79E
0000000000887fb0 T _ZN4core4iter6traits8iterator8Iterator8try_fold17h072edb560aafca78E
0000000000888070 T _ZN4core4iter6traits8iterator8Iterator8try_fold17h69b8c676fab83cd5E
0000000000888130 T _ZN4core4iter6traits8iterator8Iterator8try_fold17hbdb9bab6fb5b738eE
00000000008881f0 T _ZN4core4iter6traits8iterator8Iterator8try_fold17hd18494a6e75945c9E
00000000008882b0 T _ZN63_$LT$I$u20$as$u20$core..iter..traits..collect..IntoIterator$GT$9into_iter17h7b45939a5974c424E
00000000008882f0 T _ZN75_$LT$core..str..Bytes$u20$as$u20$core..iter..traits..iterator..Iterator$GT$3any17h2eb1fc63ca2abb4eE
0000000000888330 T _ZN75_$LT$core..str..Bytes$u20$as$u20$core..iter..traits..iterator..Iterator$GT$3any17hf8bed8e44b418c2bE
0000000000888370 T _ZN75_$LT$core..str..Bytes$u20$as$u20$core..iter..traits..iterator..Iterator$GT$4next17h8a4a4d500c58ce7aE
00000000008883b0 T _ZN75_$LT$core..str..Bytes$u20$as$u20$core..iter..traits..iterator..Iterator$GT$9rposition17h1eb751312016bf82E
00000000008883f0 T _ZN75_$LT$core..str..Chars$u20$as$u20$core..iter..traits..iterator..Iterator$GT$4next17h0d506212d7b30329E
0000000000888430 T _ZN81_$LT$core..str..CharIndices$u20$as$u20$core..iter..traits..iterator..Iterator$GT$4next17h5a1169ab8977a584E
0000000000888750 T _ZN84_$LT$core..str..Split$LT$P$GT$$u20$as$u20$core..iter..traits..iterator..Iterator$GT$4next17hbf99bacfb6cc4eedE
0000000000888790 T _ZN4core3ptr19swap_nonoverlapping17h7b2bd29b01c008f7E
00000000008888d0 T _ZN4core3ptr19swap_nonoverlapping17he6a80656a833c3b9E
0000000000888a10 T _ZN4core3ptr20slice_from_raw_parts17h399ac1434193c605E
0000000000888a60 T _ZN4core3ptr23swap_nonoverlapping_one17h831b5320c3398f3bE
0000000000888af0 T _ZN4core3ptr23swap_nonoverlapping_one17hdbf0979a380f7f4fE
0000000000888b90 t _ZN4core3ptr25swap_nonoverlapping_bytes17h39674664f32de8dfE
0000000000888e30 T _ZN4core3ptr4read17h00e8de31c5d4c5eeE
0000000000888ea0 T _ZN4core3ptr4read17hea72c0ea54a45541E
0000000000888f00 T _ZN4core3ptr5write17h9b4880fd163be9e9E
0000000000888f70 T _ZN4core3ptr5write17ha6efc9149c4a755fE
0000000000888fe0 t _ZN4core4char7methods15encode_utf8_raw17h8543b4b2c0861c0dE
00000000008894e0 T _ZN4core4char7methods22_$LT$impl$u20$char$GT$10is_control17h128ba47c1c2a6668E
0000000000889510 T _ZN4core4char7methods22_$LT$impl$u20$char$GT$11encode_utf817h249fb5235407b938E
0000000000889580 T _ZN4core4char7methods22_$LT$impl$u20$char$GT$8is_digit17h03ab6faecaa3f70fE
00000000008895d0 T _ZN4core4char7methods22_$LT$impl$u20$char$GT$8len_utf817h4885741fe1a8572bE
0000000000889600 T _ZN4core4char7methods22_$LT$impl$u20$char$GT$8to_digit17hf8ec70398148e3c5E
0000000000889810 t _ZN4core4char7methods8len_utf817h6a65fe8abbc5a260E
0000000000889880 T _ZN14rustc_demangle8demangle17hda803b1860c7c9aeE
0000000000889e40 T _ZN14rustc_demangle8demangle28_$u7b$$u7b$closure$u7d$$u7d$17h45e195f1b6d1193bE
0000000000889eb0 T _ZN14rustc_demangle12try_demangle17h39556469c212ee4fE
0000000000889fa0 T _ZN14rustc_demangle8Demangle6as_str17ha5e5bd9e22ae2855E
0000000000889fd0 t _ZN14rustc_demangle14is_symbol_like17h9140daa824f9bc0fE
000000000088a030 T _ZN14rustc_demangle14is_symbol_like28_$u7b$$u7b$closure$u7d$$u7d$17ha8a501298225822bE
000000000088a0a0 t _ZN14rustc_demangle21is_ascii_alphanumeric17h15555317eb0e2d27E
000000000088a110 t _ZN14rustc_demangle20is_ascii_punctuation17hbfff5d3797b951b8E
000000000088a190 T _ZN63_$LT$rustc_demangle..Demangle$u20$as$u20$core..fmt..Display$GT$3fmt17hddb59018b9590508E
000000000088a2c0 T _ZN61_$LT$rustc_demangle..Demangle$u20$as$u20$core..fmt..Debug$GT$3fmt17he76aaf49a0f8ab99E
000000000088a310 T _ZN69_$LT$rustc_demangle..TryDemangleError$u20$as$u20$core..fmt..Debug$GT$3fmt17hc1d1fcdc4c83a742E
000000000088a3c0 T _ZN4core3ptr9const_ptr33_$LT$impl$u20$$BP$const$u20$T$GT$7is_null17h8f8e3a46fc05aa42E
000000000088a400 T _ZN4core6option15Option$LT$T$GT$14unwrap_or_else17h63a54cc886b966f0E
000000000088a4a0 T _ZN4core6option15Option$LT$T$GT$18get_or_insert_with17h28d8e70c816da176E
000000000088a560 T _ZN4core6option15Option$LT$T$GT$3map17h4279358d98768dbdE
000000000088a600 T _ZN4core6option15Option$LT$T$GT$3map17h7df88e7cb062e92eE
000000000088a6a0 T _ZN4core6option15Option$LT$T$GT$3map17hdd3d8c8e86cde83eE
000000000088a720 T _ZN4core6option15Option$LT$T$GT$4take17h35fb76bf51e97349E
000000000088a760 T _ZN4core6option15Option$LT$T$GT$5ok_or17h044dc11363d1649dE
000000000088a7e0 T _ZN4core6option15Option$LT$T$GT$5ok_or17h14661c3fd46f476aE
000000000088a860 T _ZN4core6option15Option$LT$T$GT$5ok_or17h2c5b1661f4811df4E
000000000088a8d0 T _ZN4core6option15Option$LT$T$GT$5ok_or17h4abe1dd0db6c1232E
000000000088a950 T _ZN4core6option15Option$LT$T$GT$5ok_or17h588f1167f379ee5dE
000000000088a9c0 T _ZN4core6option15Option$LT$T$GT$5ok_or17hdbbd09a3027bd39dE
000000000088aa30 T _ZN4core6option15Option$LT$T$GT$6as_ref17h4077bb8131835453E
000000000088aa80 T _ZN4core6option15Option$LT$T$GT$6unwrap17h200fe8330b6a7cd5E
000000000088ab00 T _ZN4core6option15Option$LT$T$GT$6unwrap17hd74ae7083476fbf4E
000000000088ab60 T _ZN4core6option15Option$LT$T$GT$7is_none17hb2992c1999a1db36E
000000000088aba0 T _ZN4core6option15Option$LT$T$GT$7is_some17h0183b1166de3ea96E
000000000088abf0 T _ZN4core6option15Option$LT$T$GT$7is_some17h38109f78d8fbb7afE
000000000088ac50 T _ZN4core6option15Option$LT$T$GT$7is_some17hc655455cabc9e58bE
000000000088aca0 T _ZN4core6option15Option$LT$T$GT$8and_then17hf242d1671fbef139E
000000000088ad20 T _ZN4core6option15Option$LT$T$GT$8and_then17hf3cda8b099a465efE
000000000088adc0 T _ZN4core6option19Option$LT$$RF$T$GT$6copied17h988453b3324f93daE
000000000088ae00 T _ZN4core6option19Option$LT$$RF$T$GT$6copied28_$u7b$$u7b$closure$u7d$$u7d$17h038fecd4ea24fa20E
000000000088ae30 T _ZN70_$LT$core..option..Option$LT$T$GT$$u20$as$u20$core..cmp..PartialEq$GT$2eq17h85bfec8e1f4c3b9eE
000000000088af40 T _ZN72_$LT$core..option..Option$LT$T$GT$$u20$as$u20$core..default..Default$GT$7default17h5cec795aef85f5c8E
000000000088af60 T _ZN4core4iter6traits12double_ended19DoubleEndedIterator9try_rfold17h505f5483ddfa2479E
000000000088b080 T _ZN4core4iter6traits8iterator8Iterator6copied17h516381a6a72b087fE
000000000088b0d0 T _ZN4core4iter6traits8iterator8Iterator8try_fold17h4fa1fac5fc8d9846E
000000000088b190 T _ZN4core4iter6traits8iterator8Iterator8try_fold17h99694f1c63282c20E
000000000088b250 T _ZN4core5slice14from_raw_parts17h5a119c61ff27827cE
000000000088b320 T _ZN4core5slice29_$LT$impl$u20$$u5b$T$u5d$$GT$11starts_with17h84e0bd5df855efedE
000000000088b420 T _ZN4core5slice29_$LT$impl$u20$$u5b$T$u5d$$GT$3get17h6694e60b2a9fcf82E
000000000088b470 T _ZN4core5slice74_$LT$impl$u20$core..ops..index..Index$LT$I$GT$$u20$for$u20$$u5b$T$u5d$$GT$5index17h676e49a92ac8e425E
000000000088b4d0 T _ZN4core5slice87_$LT$impl$u20$core..iter..traits..collect..IntoIterator$u20$for$u20$$RF$$u5b$T$u5d$$GT$9into_iter17he9de8cb5ab460d24E
000000000088b520 T _ZN68_$LT$usize$u20$as$u20$core..slice..SliceIndex$LT$$u5b$T$u5d$$GT$$GT$13get_unchecked17hdebe8c2b54d836e8E
000000000088b580 T _ZN68_$LT$usize$u20$as$u20$core..slice..SliceIndex$LT$$u5b$T$u5d$$GT$$GT$3get17h71522204a9d5c7a2E
000000000088b600 T _ZN42_$LT$$RF$T$u20$as$u20$core..fmt..Debug$GT$3fmt17h5573da78124d12ebE
000000000088b650 T _ZN4core4iter6traits8iterator8Iterator4fold17h903358192499cad4E
000000000088b6b0 T _ZN4core4iter6traits8iterator8Iterator8for_each17hed9e29068fdd4976E
000000000088b6e0 T _ZN72_$LT$$RF$mut$u20$I$u20$as$u20$core..iter..traits..iterator..Iterator$GT$4next17hfca4f8bf4c8d5f09E
000000000088b720 T _ZN5alloc6string104_$LT$impl$u20$core..convert..From$LT$alloc..string..String$GT$$u20$for$u20$alloc..vec..Vec$LT$u8$GT$$GT$4from17he206920302a9cf22E
000000000088b770 T _ZN5alloc3vec12Vec$LT$T$GT$3new17h662b0249a8482b37E
000000000088b7c0 T _ZN5alloc3vec12Vec$LT$T$GT$13with_capacity17h6ac751e4fe727b81E
000000000088b820 T _ZN5alloc3vec12Vec$LT$T$GT$14into_raw_parts17h8b796dc5360a0099E
000000000088b920 T _ZN5alloc3vec12Vec$LT$T$GT$14from_raw_parts17h2368e70d7f38ecaeE
000000000088b9a0 T _ZN5alloc3vec12Vec$LT$T$GT$8capacity17hf939f74af5c83571E
000000000088ba00 T _ZN5alloc3vec12Vec$LT$T$GT$7reserve17hee7c0c8347323676E
000000000088ba40 T _ZN5alloc3vec12Vec$LT$T$GT$11try_reserve17h1afcb27fa5411af7E
000000000088ba90 T _ZN5alloc3vec12Vec$LT$T$GT$17try_reserve_exact17hd30f633c46e73920E
000000000088bae0 T _ZN5alloc3vec12Vec$LT$T$GT$13shrink_to_fit17h1bb6562d25d1bfe3E
000000000088bb40 T _ZN5alloc3vec12Vec$LT$T$GT$16into_boxed_slice17he958bad175081619E
000000000088bc60 T _ZN5alloc3vec12Vec$LT$T$GT$8truncate17h729b767dc7ca4251E
000000000088bd20 T _ZN5alloc3vec12Vec$LT$T$GT$8as_slice17h63887b09fd688180E
000000000088bd60 T _ZN5alloc3vec12Vec$LT$T$GT$6as_ptr17h238a99d76f3edad0E
000000000088bda0 T _ZN5alloc3vec12Vec$LT$T$GT$10as_mut_ptr17h4b21139b147a0b3bE
000000000088bde0 T _ZN5alloc3vec12Vec$LT$T$GT$7set_len17hb28057a0f46e1588E
000000000088be50 T _ZN5alloc3vec12Vec$LT$T$GT$11swap_remove13assert_failed17hb4018f2e9c48fae7E
000000000088bf70 T _ZN5alloc3vec12Vec$LT$T$GT$6insert13assert_failed17h182c1f7a90378fb3E
000000000088c090 T _ZN5alloc3vec12Vec$LT$T$GT$6remove13assert_failed17h4120fb68e79751b5E
000000000088c1b0 T _ZN5alloc3vec12Vec$LT$T$GT$4push17hc157c52f3e87c494E
000000000088c2b0 T _ZN5alloc3vec12Vec$LT$T$GT$5drain17h754fa2f918fbb275E
000000000088c5e0 T _ZN5alloc3vec12Vec$LT$T$GT$5drain19start_assert_failed17hb671ce42ea97e8ddE
000000000088c700 T _ZN5alloc3vec12Vec$LT$T$GT$5drain17end_assert_failed17h569a3910f5ab03d3E
000000000088c820 T _ZN5alloc3vec12Vec$LT$T$GT$3len17h64f3e183569f7e99E
000000000088c850 T _ZN5alloc3vec12Vec$LT$T$GT$9split_off13assert_failed17hefe03a79e06bd6ecE
000000000088c970 T _ZN5alloc3vec12Vec$LT$T$GT$17extend_from_slice17h03202bf80e74ae5cE
000000000088c9d0 T _ZN68_$LT$alloc..vec..Vec$LT$T$GT$$u20$as$u20$core..ops..deref..Deref$GT$5deref17h95d2e832d4b8f676E
000000000088ca20 T _ZN71_$LT$alloc..vec..Vec$LT$T$GT$$u20$as$u20$core..ops..deref..DerefMut$GT$9deref_mut17hf83e491387becb7aE
000000000088ca70 T _ZN63_$LT$alloc..vec..Vec$LT$T$GT$$u20$as$u20$core..clone..Clone$GT$5clone17h7bdec1cc605e7baeE
000000000088cac0 T _ZN63_$LT$alloc..vec..Vec$LT$T$GT$$u20$as$u20$core..clone..Clone$GT$10clone_from17h4ceb98aa81a8bbb7E
000000000088cb10 T _ZN77_$LT$alloc..vec..Vec$LT$T$GT$$u20$as$u20$core..ops..index..Index$LT$I$GT$$GT$5index17hfa839ae7f43e4414E
000000000088cb70 T _ZN109_$LT$alloc..vec..Vec$LT$T$GT$$u20$as$u20$alloc..vec..SpecExtend$LT$$RF$T$C$core..slice..Iter$LT$T$GT$$GT$$GT$11spec_extend17h4425667fdc025537E
000000000088ccd0 T _ZN93_$LT$alloc..vec..Vec$LT$T$GT$$u20$as$u20$core..iter..traits..collect..Extend$LT$$RF$T$GT$$GT$6extend17hff0ae5a360180820E
000000000088cd30 T _ZN66_$LT$alloc..vec..Vec$LT$T$GT$$u20$as$u20$core..ops..drop..Drop$GT$4drop17hcad226035cb8159bE
000000000088cd70 T _ZN61_$LT$alloc..vec..Vec$LT$T$GT$$u20$as$u20$core..fmt..Debug$GT$3fmt17h42aabee3a163471eE
000000000088cdd0 T _ZN87_$LT$alloc..vec..Vec$LT$T$GT$$u20$as$u20$core..convert..From$LT$$RF$$u5b$T$u5d$$GT$$GT$4from17h4d60df14bfd0ec40E
000000000088ce20 T _ZN80_$LT$alloc..vec..Vec$LT$u8$GT$$u20$as$u20$core..convert..From$LT$$RF$str$GT$$GT$4from17he2c64a5c5848c936E
000000000088ce90 T _ZN85_$LT$alloc..vec..Drain$LT$T$GT$$u20$as$u20$core..iter..traits..iterator..Iterator$GT$4next17h5662eca9df55d758E
000000000088cee0 T _ZN85_$LT$alloc..vec..Drain$LT$T$GT$$u20$as$u20$core..iter..traits..iterator..Iterator$GT$4next28_$u7b$$u7b$closure$u7d$$u7d$17h5c2b87628e457c2bE
000000000088cf10 T _ZN68_$LT$alloc..vec..Drain$LT$T$GT$$u20$as$u20$core..ops..drop..Drop$GT$4drop17h0c4e7e01dea13243E
000000000088cf90 T _ZN135_$LT$$LT$alloc..vec..Drain$LT$T$GT$$u20$as$u20$core..ops..drop..Drop$GT$..drop..DropGuard$LT$T$GT$$u20$as$u20$core..ops..drop..Drop$GT$4drop17h4d90d6f0d98916bdE
000000000088d0c0 T _ZN4core3ptr9const_ptr33_$LT$impl$u20$$BP$const$u20$T$GT$7is_null17hc38418c965bd5418E
000000000088d100 T _ZN5alloc7raw_vec15RawVec$LT$T$GT$13with_capacity17h88f359946f797e3fE
000000000088d140 T _ZN5alloc7raw_vec15RawVec$LT$T$GT$14from_raw_parts17hc46a510832d29193E
000000000088d190 T _ZN5alloc7raw_vec15RawVec$LT$T$GT$8into_box17h566a6168686b1ee2E
000000000088d2e0 T _ZN5alloc7raw_vec19RawVec$LT$T$C$A$GT$6new_in17h45606d23a02f59d5E
000000000088d320 T _ZN5alloc7raw_vec19RawVec$LT$T$C$A$GT$16with_capacity_in17hb1bfcd5d3d88eeb1E
000000000088d360 T _ZN5alloc7raw_vec19RawVec$LT$T$C$A$GT$11allocate_in17h987f69b472f5fcc3E
000000000088d500 T _ZN5alloc7raw_vec19RawVec$LT$T$C$A$GT$11allocate_in28_$u7b$$u7b$closure$u7d$$u7d$17h8f5d14a900e26b18E
000000000088d520 T _ZN5alloc7raw_vec19RawVec$LT$T$C$A$GT$11allocate_in28_$u7b$$u7b$closure$u7d$$u7d$17ha265961a38cc4b41E
000000000088d550 T _ZN5alloc7raw_vec19RawVec$LT$T$C$A$GT$11allocate_in28_$u7b$$u7b$closure$u7d$$u7d$17hcbe52ee77b1e56b1E
000000000088d580 T _ZN5alloc7raw_vec19RawVec$LT$T$C$A$GT$17from_raw_parts_in17hcb249db29d606e14E
000000000088d5d0 T _ZN5alloc7raw_vec19RawVec$LT$T$C$A$GT$3ptr17h9baea63552c556bfE
000000000088d600 T _ZN5alloc7raw_vec19RawVec$LT$T$C$A$GT$14current_memory17hb5607d8237e4af4dE
000000000088d780 T _ZN5alloc7raw_vec19RawVec$LT$T$C$A$GT$7reserve17hc35bb6fadb1068bbE
000000000088d820 T _ZN5alloc7raw_vec19RawVec$LT$T$C$A$GT$11try_reserve17hb995a93b447030f9E
000000000088d8b0 T _ZN5alloc7raw_vec19RawVec$LT$T$C$A$GT$17try_reserve_exact17h0701dbdf3b63a53eE
000000000088d940 T _ZN5alloc7raw_vec19RawVec$LT$T$C$A$GT$13shrink_to_fit17h398d6741925b074eE
000000000088d9d0 T _ZN5alloc7raw_vec19RawVec$LT$T$C$A$GT$13needs_to_grow17h21dc97363ff97279E
000000000088da60 T _ZN5alloc7raw_vec19RawVec$LT$T$C$A$GT$19capacity_from_bytes17ha47f74a0a200e26aE
000000000088dc30 T _ZN5alloc7raw_vec19RawVec$LT$T$C$A$GT$10set_memory17hef973459697e9e22E
000000000088dcc0 T _ZN5alloc7raw_vec19RawVec$LT$T$C$A$GT$14grow_amortized17hbd08b5539df5d95eE
000000000088e080 T _ZN5alloc7raw_vec19RawVec$LT$T$C$A$GT$10grow_exact17hc60c00aa6fc0781aE
000000000088e330 T _ZN5alloc7raw_vec19RawVec$LT$T$C$A$GT$6shrink17he19bb5381abc254aE
000000000088e670 T _ZN5alloc7raw_vec19RawVec$LT$T$C$A$GT$6shrink28_$u7b$$u7b$closure$u7d$$u7d$17he92f45d06e4dc276E
000000000088e6e0 T _ZN5alloc7raw_vec11finish_grow17h89433920b69b5349E
000000000088ec20 T _ZN5alloc7raw_vec11finish_grow28_$u7b$$u7b$closure$u7d$$u7d$17h9410d2cfeea38f4cE
000000000088ec50 T _ZN5alloc7raw_vec11finish_grow28_$u7b$$u7b$closure$u7d$$u7d$17h68d469560c7c40d3E
000000000088ec90 T _ZN77_$LT$alloc..raw_vec..RawVec$LT$T$C$A$GT$$u20$as$u20$core..ops..drop..Drop$GT$4drop17h6d2561c495d854c0E
000000000088ed10 t _ZN5alloc7raw_vec11alloc_guard17h56ddcf54ab57c7d0E
000000000088edc0 T _ZN5alloc7raw_vec17capacity_overflow17ha5d2c0a8f789151bE
000000000088ede0 T _ZN4core4iter6traits8iterator8Iterator3map17hdaef9559ce4048b4E
000000000088ee30 T _ZN4core4iter6traits8iterator8Iterator4fold17h1eec6049bb11ff75E
000000000088eed0 T _ZN4core4iter6traits8iterator8Iterator6cloned17hcac826720c90ac74E
000000000088ef20 T _ZN4core5slice18from_raw_parts_mut17h61422679a1b4c254E
000000000088eff0 T _ZN4core5slice29_$LT$impl$u20$$u5b$T$u5d$$GT$16clone_from_slice17h0cc3ce3b53d282f8E
000000000088f240 T _ZN4core5slice29_$LT$impl$u20$$u5b$T$u5d$$GT$3len17h74f7dc78588a2fb9E
000000000088f280 T _ZN4core5slice29_$LT$impl$u20$$u5b$T$u5d$$GT$4iter17h2b36cf6b557377b8E
000000000088f370 T _ZN4core5slice29_$LT$impl$u20$$u5b$T$u5d$$GT$6as_ptr17hfc87d03636399b6aE
000000000088f3a0 T _ZN85_$LT$core..slice..Iter$LT$T$GT$$u20$as$u20$core..iter..traits..iterator..Iterator$GT$4next17h1658626303ae1107E
000000000088f500 T _ZN85_$LT$core..slice..Iter$LT$T$GT$$u20$as$u20$core..iter..traits..iterator..Iterator$GT$4next17h2b5c74d6e455a6d9E
000000000088f660 T _ZN103_$LT$core..iter..adapters..SkipWhile$LT$I$C$P$GT$$u20$as$u20$core..iter..traits..iterator..Iterator$GT$4next17h35da040729708ca2E
000000000088f6d0 T _ZN103_$LT$core..iter..adapters..SkipWhile$LT$I$C$P$GT$$u20$as$u20$core..iter..traits..iterator..Iterator$GT$4next17hed204ef76c3d630aE
000000000088f740 T _ZN103_$LT$core..iter..adapters..SkipWhile$LT$I$C$P$GT$$u20$as$u20$core..iter..traits..iterator..Iterator$GT$4next5check17h9728676f610a4633E
000000000088f780 T _ZN103_$LT$core..iter..adapters..SkipWhile$LT$I$C$P$GT$$u20$as$u20$core..iter..traits..iterator..Iterator$GT$4next5check17he0e68f5283db7781E
000000000088f7c0 T _ZN103_$LT$core..iter..adapters..SkipWhile$LT$I$C$P$GT$$u20$as$u20$core..iter..traits..iterator..Iterator$GT$4next5check28_$u7b$$u7b$closure$u7d$$u7d$17h1b6b9638568477d5E
000000000088f850 T _ZN103_$LT$core..iter..adapters..SkipWhile$LT$I$C$P$GT$$u20$as$u20$core..iter..traits..iterator..Iterator$GT$4next5check28_$u7b$$u7b$closure$u7d$$u7d$17h54a620b069445f46E
000000000088f8e0 T _ZN4core4iter6traits8iterator8Iterator10skip_while17h5a8a883ca550513eE
000000000088f930 T _ZN4core4iter6traits8iterator8Iterator3sum17h494199314be2846dE
000000000088f970 T _ZN4core4iter8adapters12Rev$LT$T$GT$3new17h94dc65c450064ba9E
000000000088f9b0 T _ZN4core4iter8adapters15Cloned$LT$I$GT$3new17hc0c5f6eae03f077dE
000000000088f9f0 T _ZN4core4iter8adapters16Map$LT$I$C$F$GT$3new17h298218e5a0f85d14E
000000000088fa30 T _ZN4core4iter8adapters22SkipWhile$LT$I$C$P$GT$3new17h3a02af0f8c4c80f7E
000000000088fa80 T _ZN4core4iter8adapters22SkipWhile$LT$I$C$P$GT$3new17h98ad47014e9e0e93E
000000000088fad0 T _ZN4core4iter8adapters8map_fold17h56cf07b6056fe1aeE
000000000088faf0 T _ZN4core4iter8adapters8map_fold28_$u7b$$u7b$closure$u7d$$u7d$17hcb545900e93721ebE
000000000088fb80 T _ZN63_$LT$I$u20$as$u20$core..iter..traits..collect..IntoIterator$GT$9into_iter17h91c3d2201dcaeb7fE
000000000088fbb0 T _ZN93_$LT$core..iter..adapters..Rev$LT$I$GT$$u20$as$u20$core..iter..traits..iterator..Iterator$GT$4find17hb27190077da96490E
000000000088fc00 T _ZN96_$LT$core..iter..adapters..Cloned$LT$I$GT$$u20$as$u20$core..iter..traits..iterator..Iterator$GT$4next17h34a6f48a2128e015E
000000000088fc50 T _ZN97_$LT$core..iter..adapters..Map$LT$I$C$F$GT$$u20$as$u20$core..iter..traits..iterator..Iterator$GT$4fold17hab8e8a4b6c7c3325E
000000000088fcb0 T _ZN5alloc5boxed66Box$LT$$u5b$core..mem..maybe_uninit..MaybeUninit$LT$T$GT$$u5d$$GT$11assume_init17hd866a3ed5b93deb2E
000000000088fd10 T _ZN5alloc5boxed12Box$LT$T$GT$8from_raw17h288001dc25f924fcE
000000000088fd70 T _ZN5alloc5boxed12Box$LT$T$GT$8from_raw17hbbd0826a12bd7446E
000000000088fdd0 T _ZN5alloc5boxed12Box$LT$T$GT$8from_raw17hdaafc2d88998ae12E
000000000088fe30 T _ZN5alloc5boxed12Box$LT$T$GT$8into_raw17h37cabcb37e676ff7E
000000000088fe80 T _ZN5alloc5boxed12Box$LT$T$GT$8into_raw17h8dedb051daeda9baE
000000000088fed0 T _ZN5alloc5boxed12Box$LT$T$GT$8into_raw17hb228d3b26e0aaba2E
000000000088ff20 T _ZN5alloc5boxed12Box$LT$T$GT$4leak17h7fa1725aa43ea08aE
000000000088ffa0 T _ZN5alloc5boxed12Box$LT$T$GT$4leak17h85609559a1f9531fE
0000000000890020 T _ZN5alloc5boxed12Box$LT$T$GT$4leak17hab976346cd9ce40dE
00000000008900a0 T _ZN79_$LT$alloc..boxed..Box$LT$$u5b$T$u5d$$GT$$u20$as$u20$core..default..Default$GT$7default17hadf8fca5fa04bdf3E
00000000008900d0 T _ZN71_$LT$alloc..boxed..Box$LT$str$GT$$u20$as$u20$core..default..Default$GT$7default17hfb02a3d551ccc340E
0000000000890110 T _ZN67_$LT$alloc..boxed..Box$LT$str$GT$$u20$as$u20$core..clone..Clone$GT$5clone17hc4e89669efd7f760E
0000000000890190 T _ZN99_$LT$alloc..boxed..Box$LT$$u5b$T$u5d$$GT$$u20$as$u20$core..convert..From$LT$$RF$$u5b$T$u5d$$GT$$GT$4from17h35227ae36f4436dcE
0000000000890280 T _ZN113_$LT$alloc..boxed..Box$LT$$u5b$u8$u5d$$GT$$u20$as$u20$core..convert..From$LT$alloc..boxed..Box$LT$str$GT$$GT$$GT$4from17h0e6f42ada5d852c7E
00000000008902e0 T _ZN5alloc6string107_$LT$impl$u20$core..convert..From$LT$alloc..string..String$GT$$u20$for$u20$alloc..boxed..Box$LT$str$GT$$GT$4from17h48a226815370584eE
0000000000890330 T _ZN42_$LT$$RF$T$u20$as$u20$core..fmt..Debug$GT$3fmt17h640978ce1f48ce2aE
0000000000890380 T _ZN4core5alloc6layout10size_align17h1b76c50acecaff16E
00000000008903d0 t _ZN4core5alloc6layout6Layout12pad_to_align17ha685cafe138e8337E
00000000008904a0 t _ZN4core5alloc6layout6Layout15from_size_align17h938d7c8f4b58e0bcE
0000000000890590 t _ZN4core5alloc6layout6Layout18padding_needed_for17h4254a661964dab09E
0000000000890630 T _ZN4core5alloc6layout6Layout25from_size_align_unchecked17h9fdd7e974fd25f83E
0000000000890680 T _ZN4core5alloc6layout6Layout3new17h6659ed2970c2eee7E
00000000008906d0 T _ZN4core5alloc6layout6Layout4size17h4e4535a25248460bE
0000000000890700 T _ZN4core5alloc6layout6Layout5align17hf242f799aac51569E
0000000000890730 T _ZN4core5alloc6layout6Layout5array17hd9682ec50e8cb292E
0000000000890a00 t _ZN4core5alloc6layout6Layout6repeat17h8f05c423c22cc4f2E
0000000000890bb0 T _ZN4core5alloc6layout6Layout8dangling17hdfbd016890731f51E
0000000000890bf0 T _ZN50_$LT$T$u20$as$u20$core..convert..From$LT$T$GT$$GT$4from17h9f5379c38595e4e5E
0000000000890c10 T _ZN4core3num12NonZeroUsize13new_unchecked17h847cc8c066d0f6daE
0000000000890c40 T _ZN4core3num12NonZeroUsize3get17hac8d5601a59f9215E
0000000000890c60 t _ZN4core3num23_$LT$impl$u20$usize$GT$10count_ones17h8c3c21ee4d8d3372E
0000000000890cf0 T _ZN4core3num23_$LT$impl$u20$usize$GT$11checked_add17h320de634110234f6E
0000000000890d70 T _ZN4core3num23_$LT$impl$u20$usize$GT$11checked_mul17h6045a25171bb85bfE
0000000000890df0 T _ZN4core3num23_$LT$impl$u20$usize$GT$12wrapping_add17h19f20858aaabcfedE
0000000000890e30 T _ZN4core3num23_$LT$impl$u20$usize$GT$12wrapping_sub17h5579fdc74fff0732E
0000000000890e70 T _ZN4core3num23_$LT$impl$u20$usize$GT$14saturating_mul17h1734dd6278b7f2ceE
0000000000890ee0 T _ZN4core3num23_$LT$impl$u20$usize$GT$15is_power_of_two17h8af5c5f7e880db5bE
0000000000890f20 t _ZN4core3num23_$LT$impl$u20$usize$GT$15overflowing_add17h8576b35dc8b23b15E
0000000000890f90 t _ZN4core3num23_$LT$impl$u20$usize$GT$15overflowing_mul17h1aec68fa02af5786E
0000000000891000 T _ZN4core3ptr6unique15Unique$LT$T$GT$13new_unchecked17h3de32b285ec110dfE
0000000000891030 T _ZN4core3ptr6unique15Unique$LT$T$GT$13new_unchecked17h8ba8197a0a95b417E
0000000000891070 T _ZN4core3ptr6unique15Unique$LT$T$GT$13new_unchecked17hcbd3879d1d2a5088E
00000000008910b0 T _ZN4core3ptr6unique15Unique$LT$T$GT$13new_unchecked17hd5562445571b4506E
00000000008910f0 T _ZN4core3ptr6unique15Unique$LT$T$GT$4cast17h0c6f48f9a67c5f50E
0000000000891130 T _ZN4core3ptr6unique15Unique$LT$T$GT$6as_ptr17h079353e87cf64030E
0000000000891160 T _ZN4core3ptr6unique15Unique$LT$T$GT$6as_ptr17h1a4d720f852ab1deE
0000000000891190 T _ZN4core3ptr6unique15Unique$LT$T$GT$6as_ptr17h3cf98bdd0d81d743E
00000000008911b0 T _ZN4core3ptr6unique15Unique$LT$T$GT$6as_ptr17h90235aacae66c824E
00000000008911e0 T _ZN4core3ptr6unique15Unique$LT$T$GT$8dangling17h02a5e5e42d572097E
0000000000891220 T _ZN4core3str6traits54_$LT$impl$u20$core..cmp..PartialEq$u20$for$u20$str$GT$2eq17hbd566fbdba5902beE
00000000008912f0 T _ZN4core3str6traits66_$LT$impl$u20$core..ops..index..Index$LT$I$GT$$u20$for$u20$str$GT$5index17h06f63c0c70a54df7E
0000000000891340 T _ZN4core5alloc9AllocInit11init_offset17h6bcca50d3587a7cbE
0000000000891420 T _ZN50_$LT$T$u20$as$u20$core..convert..From$LT$T$GT$$GT$4from17hd9f734dba511b06eE
0000000000891440 T _ZN50_$LT$T$u20$as$u20$core..convert..Into$LT$U$GT$$GT$4into17hda8545e246872622E
0000000000891470 T _ZN5alloc3fmt6format17h360af3916eb35fb6E
0000000000891520 T _ZN42_$LT$$RF$T$u20$as$u20$core..fmt..Debug$GT$3fmt17h812fba31382ae5daE
0000000000891570 T _ZN4core3cmp5impls69_$LT$impl$u20$core..cmp..PartialEq$LT$$RF$B$GT$$u20$for$u20$$RF$A$GT$2eq17hf11e6b974453d83dE
00000000008915c0 T _ZN4core3ptr9const_ptr33_$LT$impl$u20$$BP$const$u20$T$GT$7is_null17h329e9c48c4028a79E
0000000000891600 T _ZN4core3ptr9const_ptr33_$LT$impl$u20$$BP$const$u20$T$GT$7is_null17h6ac99641a83dc354E
0000000000891640 T _ZN4core3str19from_utf8_unchecked17h30e45bfc81809036E
0000000000891670 T _ZN4core3str21_$LT$impl$u20$str$GT$12char_indices17hdfcc00cb4b4f06ccE
00000000008916e0 T _ZN4core3str21_$LT$impl$u20$str$GT$3len17he3d0daac211c931cE
0000000000891740 T _ZN4core3str21_$LT$impl$u20$str$GT$5chars17hf2681c6ae8c7b309E
00000000008917c0 T _ZN4core3str21_$LT$impl$u20$str$GT$8is_empty17hd9dd9b7a0ece4cbbE
0000000000891810 T _ZN4core3str23from_utf8_unchecked_mut17h5be0dca59609569cE
0000000000891840 T _ZN4core3str6traits92_$LT$impl$u20$core..slice..SliceIndex$LT$str$GT$$u20$for$u20$core..ops..range..RangeFull$GT$5index17h791c795d091b2576E
0000000000891880 T _ZN4core4iter22LoopState$LT$C$C$B$GT$11break_value17hdbed5b1eca3a699eE
00000000008918f0 T _ZN4core4iter6traits12double_ended19DoubleEndedIterator5rfind17he8d15c170b882c5fE
0000000000891960 T _ZN4core4iter6traits12double_ended19DoubleEndedIterator9try_rfold17h6e2c63e28bcc66c9E
0000000000891a30 T _ZN4core4iter6traits8iterator8Iterator10skip_while17hf4135ac03bc647d7E
0000000000891a80 T _ZN4core4iter6traits8iterator8Iterator3rev17h7001fcfb98799770E
0000000000891ad0 T _ZN4core4iter6traits8iterator8Iterator4find17h8321625a9ff75c68E
0000000000891b40 T _ZN4core4iter6traits8iterator8Iterator4find5check17hbd4dc31ab00a04d3E
0000000000891b80 T _ZN4core4iter6traits8iterator8Iterator4find5check28_$u7b$$u7b$closure$u7d$$u7d$17h538fc217d678ed3eE
0000000000891c00 T _ZN4core4iter6traits8iterator8Iterator8for_each4call17h3c619553445563d4E
0000000000891c20 T _ZN4core4iter6traits8iterator8Iterator8for_each4call28_$u7b$$u7b$closure$u7d$$u7d$17hf1d0f71da5c384a9E
0000000000891c60 T _ZN4core4iter6traits8iterator8Iterator8try_fold17h7b6e8455fb1cc85dE
0000000000891d30 T _ZN4core6option15Option$LT$T$GT$3map17ha1d1a262e8939c3bE
0000000000891dc0 T _ZN4core6option15Option$LT$T$GT$3map17hb9911960ba02ad3dE
0000000000891e40 T _ZN4core6option15Option$LT$T$GT$4take17hb4a891a17ad59318E
0000000000891e80 T _ZN4core6option15Option$LT$T$GT$5ok_or17h334e9824dd0388abE
0000000000891f30 T _ZN4core6option15Option$LT$T$GT$5ok_or17h5eb424c0b3f69f7dE
0000000000891fb0 T _ZN4core6option15Option$LT$T$GT$5ok_or17h7d14f3fd20652130E
0000000000892020 T _ZN4core6option15Option$LT$T$GT$5ok_or17hd32ccebd18f5a183E
00000000008920a0 T _ZN4core6option15Option$LT$T$GT$6expect17h8be961217a9062d6E
0000000000892120 T _ZN4core6option19Option$LT$$RF$T$GT$6cloned17hfbf851b519e1c528E
0000000000892160 T _ZN4core6option19Option$LT$$RF$T$GT$6cloned28_$u7b$$u7b$closure$u7d$$u7d$17he6599b7336e25f1bE
0000000000892190 T _ZN55_$LT$$RF$str$u20$as$u20$core..str..pattern..Pattern$GT$13into_searcher17heaa8dea1ef71b058E
0000000000892200 T _ZN69_$LT$core..option..Option$LT$T$GT$$u20$as$u20$core..ops..try..Try$GT$10from_error17h701ee2946b5c5b5eE
0000000000892220 T _ZN69_$LT$core..option..Option$LT$T$GT$$u20$as$u20$core..ops..try..Try$GT$11into_result17he920b9c635d95553E
0000000000892270 T _ZN72_$LT$core..option..Option$LT$T$GT$$u20$as$u20$core..default..Default$GT$7default17h161828ce60f5759bE
00000000008922a0 T _ZN74_$LT$core..iter..LoopState$LT$C$C$B$GT$$u20$as$u20$core..ops..try..Try$GT$10from_error17h6bf752f178fd69ccE
00000000008922d0 T _ZN74_$LT$core..iter..LoopState$LT$C$C$B$GT$$u20$as$u20$core..ops..try..Try$GT$11into_result17h3d9638f495e925d6E
0000000000892320 T _ZN74_$LT$core..iter..LoopState$LT$C$C$B$GT$$u20$as$u20$core..ops..try..Try$GT$7from_ok17h66eb818d75f750ecE
0000000000892340 T _ZN75_$LT$core..str..Chars$u20$as$u20$core..iter..traits..iterator..Iterator$GT$4next17h0845427f89928173E
0000000000892380 T _ZN75_$LT$core..str..Chars$u20$as$u20$core..iter..traits..iterator..Iterator$GT$9size_hint17h392ca33c24e47161E
00000000008924d0 T _ZN81_$LT$core..str..CharIndices$u20$as$u20$core..iter..traits..iterator..Iterator$GT$4next17h073cfc38643dc067E
00000000008927f0 t _ZN90_$LT$core..str..Chars$u20$as$u20$core..iter..traits..double_ended..DoubleEndedIterator$GT$9next_back17hf3d4898f752c0222E
0000000000892830 T _ZN91_$LT$core..ops..range..Range$LT$T$GT$$u20$as$u20$core..ops..range..RangeBounds$LT$T$GT$$GT$11start_bound17h7261c904bc99b305E
0000000000892870 T _ZN91_$LT$core..ops..range..Range$LT$T$GT$$u20$as$u20$core..ops..range..RangeBounds$LT$T$GT$$GT$9end_bound17hff3652a751a6f2dbE
00000000008928b0 T _ZN5alloc5slice4hack8into_vec17ha724f2a0e1f65328E
0000000000892930 T _ZN5alloc5slice4hack6to_vec17h17f013af4202f3f5E
00000000008929a0 T _ZN4core3fmt5Write9write_fmt17h7d7721f1e12c5d50E
0000000000892a20 T _ZN4core3ptr9const_ptr33_$LT$impl$u20$$BP$const$u20$T$GT$7is_null17h22c2e7101686113bE
0000000000892a60 T _ZN50_$LT$$RF$mut$u20$W$u20$as$u20$core..fmt..Write$GT$10write_char17h8703fba2fd329d4aE
0000000000892aa0 T _ZN50_$LT$$RF$mut$u20$W$u20$as$u20$core..fmt..Write$GT$9write_fmt17hc210ea8129090cebE
0000000000892b00 T _ZN50_$LT$$RF$mut$u20$W$u20$as$u20$core..fmt..Write$GT$9write_str17h983c00a8e29d3802E
0000000000892b50 T _ZN5alloc3str83_$LT$impl$u20$core..borrow..Borrow$LT$str$GT$$u20$for$u20$alloc..string..String$GT$6borrow17h0e445b0f2e0635a2E
0000000000892ba0 t _ZN5alloc6string6String3new17h66103b80ea582540E
0000000000892bf0 T _ZN5alloc6string6String13with_capacity17h18c78ad4be7744a2E
0000000000892c50 T _ZN5alloc6string6String15from_utf8_lossy17h680abe2ef5ef67a1E
0000000000893170 T _ZN5alloc6string6String10from_utf1617h81952bb1c6d94eabE
0000000000893350 T _ZN5alloc6string6String14into_raw_parts17hd002f24c383de98aE
00000000008933a0 T _ZN5alloc6string6String19from_utf8_unchecked17hcb12da795b8ce384E
0000000000893400 T _ZN5alloc6string6String10into_bytes17h14e99dcec8e597faE
0000000000893450 T _ZN5alloc6string6String8push_str17h5b5c8cd70a2c1c6fE
00000000008934c0 T _ZN5alloc6string6String11try_reserve17h669785f5da5b54f2E
0000000000893510 T _ZN5alloc6string6String17try_reserve_exact17he5cecfcb775a80e6E
0000000000893560 T _ZN5alloc6string6String4push17h93eb51e1e767cdafE
0000000000893650 T _ZN5alloc6string6String12insert_bytes17hfa716a7082077c25E
0000000000893840 t _ZN5alloc6string6String10as_mut_vec17h4b2ad238e84dc866E
0000000000893860 t _ZN5alloc6string6String3len17h657f325002f5a529E
0000000000893890 T _ZN5alloc6string6String14into_boxed_str17he733105c7b3bb8fbE
0000000000893900 T _ZN5alloc6string13FromUtf8Error8as_bytes17h5940d2a3c243d3deE
0000000000893950 T _ZN5alloc6string13FromUtf8Error10into_bytes17h2b454b1492b91fc3E
00000000008939a0 T _ZN5alloc6string13FromUtf8Error10utf8_error17h19e42b9e66358e72E
00000000008939f0 T _ZN67_$LT$alloc..string..FromUtf8Error$u20$as$u20$core..fmt..Display$GT$3fmt17h6d51e86880c704a7E
0000000000893a40 T _ZN68_$LT$alloc..string..FromUtf16Error$u20$as$u20$core..fmt..Display$GT$3fmt17h6b62c6878fb90391E
0000000000893a90 T _ZN60_$LT$alloc..string..String$u20$as$u20$core..clone..Clone$GT$5clone17ha2a157f5643cd668E
0000000000893af0 T _ZN60_$LT$alloc..string..String$u20$as$u20$core..clone..Clone$GT$10clone_from17h060dd611f2503558E
0000000000893b30 T _ZN73_$LT$$RF$alloc..string..String$u20$as$u20$core..str..pattern..Pattern$GT$13into_searcher17h9dce657fce1feee5E
0000000000893bb0 T _ZN64_$LT$alloc..string..String$u20$as$u20$core..default..Default$GT$7default17h6b77e23390047283E
0000000000893be0 t _ZN100_$LT$alloc..string..String$u20$as$u20$core..ops..index..Index$LT$core..ops..range..RangeFull$GT$$GT$5index17he72113afeb21605eE
0000000000893c30 T _ZN97_$LT$alloc..string..String$u20$as$u20$core..convert..From$LT$alloc..boxed..Box$LT$str$GT$$GT$$GT$4from17hac625584eeb205deE
0000000000893c80 T _ZN98_$LT$alloc..string..String$u20$as$u20$core..convert..From$LT$alloc..borrow..Cow$LT$str$GT$$GT$$GT$4from17hef9c6907a8862d5cE
0000000000893ce0 t _ZN58_$LT$alloc..string..String$u20$as$u20$core..fmt..Write$GT$9write_str17hd918951b6fdc40d3E
0000000000893d30 t _ZN58_$LT$alloc..string..String$u20$as$u20$core..fmt..Write$GT$10write_char17hcad72b1b3056a904E
0000000000893d70 T _ZN57_$LT$alloc..string..Drain$u20$as$u20$core..fmt..Debug$GT$3fmt17hcdfde67224c1ad60E
0000000000893dc0 T _ZN62_$LT$alloc..string..Drain$u20$as$u20$core..ops..drop..Drop$GT$4drop17h54c3aec0bc777f77E
0000000000893e80 T _ZN79_$LT$alloc..string..Drain$u20$as$u20$core..iter..traits..iterator..Iterator$GT$9size_hint17h7a35fb133abe359fE
0000000000893ec0 T _ZN65_$LT$alloc..string..FromUtf8Error$u20$as$u20$core..fmt..Debug$GT$3fmt17h2483dc27d9075031E
0000000000893fd0 T _ZN66_$LT$alloc..string..FromUtf16Error$u20$as$u20$core..fmt..Debug$GT$3fmt17h8e70824649803e55E
0000000000894060 T _ZN4core3ptr19swap_nonoverlapping17h5dfd374aefda7defE
00000000008941a0 T _ZN4core3ptr19swap_nonoverlapping17hcb9591363605d713E
00000000008942e0 T _ZN4core3ptr23swap_nonoverlapping_one17hde246ee4d7a8f090E
0000000000894380 T _ZN4core3ptr23swap_nonoverlapping_one17he25bb0b4cbc1bfa0E
0000000000894430 T _ZN4core3ptr24slice_from_raw_parts_mut17hdbcc24a071c095c5E
0000000000894480 t _ZN4core3ptr25swap_nonoverlapping_bytes17he460d02f69981bb4E
0000000000894720 T _ZN4core3ptr4read17h88073c5bc3811a26E
00000000008947a0 T _ZN4core3ptr4read17haffe8b209e3c666dE
0000000000894820 T _ZN4core3ptr4read17hd82076b418cfbfa2E
00000000008948d0 T _ZN4core3ptr4read17hfe98608205264b45E
0000000000894930 T _ZN4core3ptr5write17h72d6404e19e9c3b9E
0000000000894990 T _ZN4core3ptr5write17ha490c6e6ad3eecf2E
0000000000894a00 T _ZN4core3ptr5write17hf61bce467869383dE
0000000000894a80 T _ZN119_$LT$core..ptr..non_null..NonNull$LT$T$GT$$u20$as$u20$core..convert..From$LT$core..ptr..unique..Unique$LT$T$GT$$GT$$GT$4from17hc237f9b1fc40977eE
0000000000894ac0 T _ZN4core3fmt9Arguments18estimated_capacity17h62986bbe840ab195E
0000000000894c00 T _ZN4core3fmt9Arguments18estimated_capacity28_$u7b$$u7b$closure$u7d$$u7d$17hf62c5489824d0781E
0000000000894c40 T _ZN4core3fmt9Arguments6new_v117h50e9c0b0af1436adE
0000000000894cc0 T _ZN4core3ptr8non_null16NonNull$LT$T$GT$13new_unchecked17hfbbd737cf1839962E
0000000000894cf0 T _ZN4core3ptr8non_null16NonNull$LT$T$GT$3new17h718fddae8d5fbd12E
0000000000894d50 T _ZN4core3ptr8non_null16NonNull$LT$T$GT$4cast17haecdbeb0bb9e80beE
0000000000894d90 T _ZN4core3ptr8non_null16NonNull$LT$T$GT$6as_mut17h1a1363cc307f7b2bE
0000000000894dc0 T _ZN4core3ptr8non_null16NonNull$LT$T$GT$6as_ptr17h55585eec22aff418E
0000000000894de0 T _ZN4core3ptr8non_null16NonNull$LT$T$GT$6as_ptr17he9d8acda8c2c6368E
0000000000894e00 T _ZN4core5slice29_$LT$impl$u20$$u5b$T$u5d$$GT$8is_empty17hff5a46b8d09e1bbfE
0000000000894e50 T _ZN50_$LT$T$u20$as$u20$core..convert..From$LT$T$GT$$GT$4from17he565c06e5ed75d1dE
0000000000894e80 T _ZN98_$LT$core..ptr..non_null..NonNull$LT$T$GT$$u20$as$u20$core..convert..From$LT$$RF$mut$u20$T$GT$$GT$4from17hb44bd9130ed66104E
0000000000894eb0 T _ZN5alloc6borrow12Cow$LT$B$GT$6to_mut17hd9e04db6c70d58adE
0000000000894f90 T _ZN5alloc6borrow12Cow$LT$B$GT$10into_owned17h0e93a851fa52a086E
0000000000895030 T _ZN71_$LT$alloc..borrow..Cow$LT$B$GT$$u20$as$u20$core..ops..deref..Deref$GT$5deref17h4c4c39d5cd9cd83eE
00000000008950c0 T _ZN92_$LT$alloc..borrow..Cow$LT$str$GT$$u20$as$u20$core..ops..arith..AddAssign$LT$$RF$str$GT$$GT$10add_assign17h102c386b23427d0dE
0000000000895350 T _ZN77_$LT$alloc..borrow..Cow$LT$str$GT$$u20$as$u20$core..ops..arith..AddAssign$GT$10add_assign17h59abd8f3ab188361E
0000000000895630 T _ZN74_$LT$alloc..collections..TryReserveError$u20$as$u20$core..fmt..Display$GT$3fmt17h16816bc8b440ce38E
0000000000895720 T _ZN72_$LT$alloc..collections..TryReserveError$u20$as$u20$core..fmt..Debug$GT$3fmt17h432ba897ae88f608E
00000000008958a0 t _ZN5alloc5alloc5alloc17hd9e1fbbbf341f28eE
0000000000895900 t _ZN5alloc5alloc7dealloc17h32e8048bab90e6f2E
0000000000895970 t _ZN5alloc5alloc7realloc17h6ea951718302c289E
00000000008959f0 t _ZN5alloc5alloc12alloc_zeroed17h8dd294f04defb559E
0000000000895a50 T _ZN62_$LT$alloc..alloc..Global$u20$as$u20$core..alloc..AllocRef$GT$5alloc17h4539fd19c3577d5bE
0000000000895be0 T _ZN62_$LT$alloc..alloc..Global$u20$as$u20$core..alloc..AllocRef$GT$7dealloc17h6022deddf666f356E
0000000000895c60 T _ZN62_$LT$alloc..alloc..Global$u20$as$u20$core..alloc..AllocRef$GT$4grow17h40f2c24e63dc8733E
0000000000895f50 T _ZN62_$LT$alloc..alloc..Global$u20$as$u20$core..alloc..AllocRef$GT$6shrink17h9ae1241251d92555E
00000000008961e0 T _ZN5alloc5alloc15exchange_malloc17he67fafc76228193eE
0000000000896290 T _ZN5alloc5alloc18handle_alloc_error17hd569635f2be27e82E
00000000008962d0 T _ZN57_$LT$alloc..alloc..Global$u20$as$u20$core..fmt..Debug$GT$3fmt17hcd23eee6ce84c949E
0000000000896330 T _ZN5alloc3str56_$LT$impl$u20$alloc..borrow..ToOwned$u20$for$u20$str$GT$8to_owned17h449a96f6fe4dfe3eE
00000000008963b0 T _ZN5alloc3str56_$LT$impl$u20$alloc..borrow..ToOwned$u20$for$u20$str$GT$10clone_into17hdd6bce09bea06204E
00000000008964d0 T _ZN5alloc3str21_$LT$impl$u20$str$GT$12to_lowercase17h9ec8cb1c85fbf8ceE
0000000000896710 t _ZN5alloc3str21_$LT$impl$u20$str$GT$12to_lowercase19map_uppercase_sigma17h84db1a33324d78bbE
0000000000896940 t _ZN5alloc3str21_$LT$impl$u20$str$GT$12to_lowercase26case_ignoreable_then_cased17h45f93a15d8a85ab4E
00000000008969d0 t _ZN5alloc3str21_$LT$impl$u20$str$GT$12to_lowercase26case_ignoreable_then_cased17h4fba87a3b0ac0eacE
0000000000896a60 T _ZN5alloc3str21_$LT$impl$u20$str$GT$12to_lowercase26case_ignoreable_then_cased28_$u7b$$u7b$closure$u7d$$u7d$17h2a5998703553c009E
0000000000896ab0 T _ZN5alloc3str21_$LT$impl$u20$str$GT$12to_lowercase26case_ignoreable_then_cased28_$u7b$$u7b$closure$u7d$$u7d$17hc73c3c5337a7eb46E
0000000000896b00 T _ZN5alloc3str21_$LT$impl$u20$str$GT$12to_uppercase17had341c875420addfE
0000000000896cc0 T _ZN5alloc3str21_$LT$impl$u20$str$GT$11into_string17h0fd3ff313f54694fE
0000000000896d40 T _ZN5alloc3str21_$LT$impl$u20$str$GT$6repeat17ha528edc41bb67b64E
0000000000896de0 T _ZN5alloc3str25from_boxed_utf8_unchecked17he1d2e513337f7989E
0000000000896e40 T _ZN4core10intrinsics11write_bytes17hc9a1ba7890902ff0E
0000000000896ec0 T _ZN4core10intrinsics17is_nonoverlapping17h4ae34461a42f9d45E
0000000000896fe0 T _ZN4core10intrinsics17is_nonoverlapping17hd1659862426f183bE
0000000000897100 T _ZN4core10intrinsics17is_nonoverlapping17hd2cfb2a85947dac3E
0000000000897220 T _ZN4core10intrinsics19copy_nonoverlapping17h33ddb695fcee2ca9E
0000000000897310 T _ZN4core10intrinsics19copy_nonoverlapping17h98a16a231d9f3f02E
0000000000897400 T _ZN4core10intrinsics19copy_nonoverlapping17he711e351167a9687E
00000000008974f0 T _ZN4core10intrinsics23is_aligned_and_not_null17h11e6480ec0bc1275E
0000000000897590 T _ZN4core10intrinsics23is_aligned_and_not_null17h32dd5abecc862613E
0000000000897630 T _ZN4core10intrinsics23is_aligned_and_not_null17hd4edf364520951e9E
00000000008976d0 T _ZN4core10intrinsics4copy17hb604f6607a7ccc6eE
0000000000897780 t _ZN47_$LT$usize$u20$as$u20$core..ops..arith..Add$GT$3add17h268b4df3e0a94144E
00000000008977e0 T _ZN4core3mem4drop17h430ced0aec497b98E
0000000000897800 T _ZN4core3mem4swap17h4e852deec284c360E
0000000000897840 T _ZN4core3mem4swap17h94af939240448829E
0000000000897880 T _ZN4core3mem4take17h0c4d49f8811cb134E
00000000008978e0 T _ZN4core3mem4take17h9ae58031c2d45f15E
0000000000897930 T _ZN4core3mem6forget17h3237138de7885c06E
0000000000897960 T _ZN4core3mem7replace17hb7719a42f542524fE
00000000008979c0 T _ZN4core3mem7replace17hbb693be00ecd0cdaE
0000000000897a10 T _ZN4core3ops8function5FnMut8call_mut17hdc8e4b3e0a81e5bcE
0000000000897a50 T _ZN4core3ops8function5FnMut8call_mut17hec0298d5091cb061E
0000000000897aa0 T _ZN4core3ptr13drop_in_place17h09f9101e1aed52a7E
0000000000897ac0 t _ZN4core3ptr13drop_in_place17h1a9a26938a9c249bE
0000000000897ae0 T _ZN4core3ptr13drop_in_place17h1ac5c96344c712acE
0000000000897b00 t _ZN4core3ptr13drop_in_place17h34e01a536f36f84dE
0000000000897b20 T _ZN4core3ptr13drop_in_place17h503a1be7a7fc8c7bE
0000000000897b50 T _ZN4core3ptr13drop_in_place17h50cc507ed0b10614E
0000000000897b70 T _ZN4core3ptr13drop_in_place17h85c5eca02c61ef5eE
0000000000897ba0 T _ZN4core3ptr13drop_in_place17h861162ea3e8ef901E
0000000000897be0 T _ZN4core3ptr13drop_in_place17h8a78bb96670f2b91E
0000000000897c00 T _ZN4core3ptr13drop_in_place17h9b98c35e9ccd092fE
0000000000897c30 T _ZN4core3ptr13drop_in_place17hc879b38bea54a98eE
0000000000897c60 T _ZN4core3ptr13drop_in_place17hd34afbb6365e4702E
0000000000897c80 T _ZN4core3ptr13drop_in_place17hdc2e8dd776739dfdE
0000000000897cc0 T _ZN4core3ptr7mut_ptr31_$LT$impl$u20$$BP$mut$u20$T$GT$11write_bytes17h2bbf1631f2d37a52E
0000000000897d00 T _ZN4core3ptr7mut_ptr31_$LT$impl$u20$$BP$mut$u20$T$GT$7is_null17h37fec78108f75b3cE
0000000000897d40 T _ZN4core3ptr7mut_ptr31_$LT$impl$u20$$BP$mut$u20$T$GT$7is_null17ha5afb8b6adb42575E
0000000000897d80 T _ZN4core4char7convert18from_u32_unchecked17hb5e33e534488142cE
0000000000897dd0 t _ZN4core4char7convert68_$LT$impl$u20$core..convert..TryFrom$LT$u32$GT$$u20$for$u20$char$GT$8try_from17h556b20f50c4d314aE
0000000000897e60 T _ZN4core4char7convert8from_u3217h1208958f37577eb4E
0000000000897ea0 T _ZN4core4iter6traits12double_ended19DoubleEndedIterator5rfind5check17h2bc62fb8ef005bd9E
0000000000897ee0 T _ZN4core4iter6traits12double_ended19DoubleEndedIterator5rfind5check28_$u7b$$u7b$closure$u7d$$u7d$17h38cfe5e9b30a1a7bE
0000000000897f60 T _ZN4core5clone5Clone10clone_from17hf6974138b535cbf2E
0000000000897fb0 t _ZN4core5clone5impls51_$LT$impl$u20$core..clone..Clone$u20$for$u20$u8$GT$5clone17h5c98ba896f94cbd9E
0000000000897fe0 T _ZN4core5clone5impls52_$LT$impl$u20$core..clone..Clone$u20$for$u20$u16$GT$5clone17hdfa6230e12694beaE
0000000000898010 T _ZN4core6result19Result$LT$T$C$E$GT$14unwrap_or_else17hab762c9c2cb84d88E
0000000000898080 T _ZN4core6result19Result$LT$T$C$E$GT$14unwrap_or_else17hac839ca6e474de6aE
0000000000898120 T _ZN4core6result19Result$LT$T$C$E$GT$14unwrap_or_else17hc1986fbbb007d102E
00000000008981b0 T _ZN4core6result19Result$LT$T$C$E$GT$6expect17hbf6067753c16cf64E
0000000000898220 T _ZN4core6result19Result$LT$T$C$E$GT$6unwrap17h879f7206a4a3d75bE
00000000008982a0 T _ZN4core6result19Result$LT$T$C$E$GT$7map_err17h10ef069100bf4a0bE
0000000000898370 T _ZN4core6result19Result$LT$T$C$E$GT$7map_err17ha9f3c39e7dd6fc55E
0000000000898450 T _ZN4core6result19Result$LT$T$C$E$GT$7map_err17hd77686df6f96218cE
0000000000898510 T _ZN50_$LT$T$u20$as$u20$core..convert..From$LT$T$GT$$GT$4from17h584a7cbbafa15ea0E
0000000000898530 T _ZN50_$LT$T$u20$as$u20$core..convert..Into$LT$U$GT$$GT$4into17h291cf873cfdcf607E
0000000000898580 T _ZN56_$LT$usize$u20$as$u20$core..iter..traits..accum..Sum$GT$3sum17h64fed523c271efc0E
00000000008985c0 T _ZN73_$LT$core..result..Result$LT$T$C$E$GT$$u20$as$u20$core..ops..try..Try$GT$10from_error17h13283765d952491bE
00000000008985f0 T _ZN73_$LT$core..result..Result$LT$T$C$E$GT$$u20$as$u20$core..ops..try..Try$GT$10from_error17h3e8572a24d605a28E
0000000000898620 T _ZN73_$LT$core..result..Result$LT$T$C$E$GT$$u20$as$u20$core..ops..try..Try$GT$10from_error17h445dfcaa2037661dE
0000000000898670 T _ZN73_$LT$core..result..Result$LT$T$C$E$GT$$u20$as$u20$core..ops..try..Try$GT$10from_error17h5b04ddf7bc642b87E
00000000008986c0 T _ZN73_$LT$core..result..Result$LT$T$C$E$GT$$u20$as$u20$core..ops..try..Try$GT$10from_error17h90b53cbfb7c8669aE
00000000008986f0 T _ZN73_$LT$core..result..Result$LT$T$C$E$GT$$u20$as$u20$core..ops..try..Try$GT$11into_result17h321893c9642dca1eE
0000000000898740 T _ZN73_$LT$core..result..Result$LT$T$C$E$GT$$u20$as$u20$core..ops..try..Try$GT$11into_result17h64815972577cfa4dE
0000000000898760 T _ZN73_$LT$core..result..Result$LT$T$C$E$GT$$u20$as$u20$core..ops..try..Try$GT$11into_result17h78365dd340383febE
0000000000898790 T _ZN73_$LT$core..result..Result$LT$T$C$E$GT$$u20$as$u20$core..ops..try..Try$GT$11into_result17ha7226df5c86b34d0E
00000000008987e0 T _ZN73_$LT$core..result..Result$LT$T$C$E$GT$$u20$as$u20$core..ops..try..Try$GT$11into_result17hb892d23d0d6d38cfE
0000000000898830 T _ZN73_$LT$core..result..Result$LT$T$C$E$GT$$u20$as$u20$core..ops..try..Try$GT$11into_result17hf44c3bdb32042705E
0000000000898880 T _ZN73_$LT$core..result..Result$LT$T$C$E$GT$$u20$as$u20$core..ops..try..Try$GT$11into_result17hf62a8613e57392fcE
00000000008988d0 T _ZN5alloc11collections9vec_deque17VecDeque$LT$T$GT$9wrap_copy4diff17hecf7258c82faf2e0E
0000000000898980 T _ZN4core4char6decode12decode_utf1617h8015b5c31ae56f04E
0000000000898a00 T _ZN63_$LT$I$u20$as$u20$core..iter..traits..collect..IntoIterator$GT$9into_iter17hcbc70ee761721f58E
0000000000898a50 T _ZN99_$LT$core..char..decode..DecodeUtf16$LT$I$GT$$u20$as$u20$core..iter..traits..iterator..Iterator$GT$4next17h7d608974d830cf86E
0000000000898db0 T _ZN5alloc5slice29_$LT$impl$u20$$u5b$T$u5d$$GT$6to_vec17h8ad83230567fafcdE
0000000000898e00 T _ZN5alloc5slice29_$LT$impl$u20$$u5b$T$u5d$$GT$8into_vec17h0b8f813c6964b2c2E
0000000000898e50 T _ZN5alloc5slice29_$LT$impl$u20$$u5b$T$u5d$$GT$6repeat17hf52a9bd4809a78c9E
0000000000899160 T _ZN5alloc5slice64_$LT$impl$u20$alloc..borrow..ToOwned$u20$for$u20$$u5b$T$u5d$$GT$8to_owned17h43ace413a30133b8E
00000000008991b0 T _ZN5alloc5slice64_$LT$impl$u20$alloc..borrow..ToOwned$u20$for$u20$$u5b$T$u5d$$GT$10clone_into17h2c0e39112cd24a27E
00000000008992b8 T __rust_probestack
0000000000899300 T _ZN4core3cmp5impls54_$LT$impl$u20$core..cmp..PartialEq$u20$for$u20$i32$GT$2eq17hd048030e657b3047E
0000000000899340 T _ZN4core3cmp5impls54_$LT$impl$u20$core..cmp..PartialEq$u20$for$u20$i32$GT$2ne17h3d190affc92ffbb6E
0000000000899380 T _ZN4core3cmp5impls54_$LT$impl$u20$core..cmp..PartialEq$u20$for$u20$i64$GT$2eq17hb99fbe0c10c3a774E
00000000008993c0 T _ZN4core3cmp5impls54_$LT$impl$u20$core..cmp..PartialEq$u20$for$u20$i64$GT$2ne17h643a3a5e8f728861E
0000000000899400 T _ZN4core3cmp5impls54_$LT$impl$u20$core..cmp..PartialEq$u20$for$u20$u32$GT$2eq17hdcafb7b02ae64e03E
0000000000899440 T _ZN4core3cmp5impls54_$LT$impl$u20$core..cmp..PartialEq$u20$for$u20$u32$GT$2ne17h06892eb6fd795009E
0000000000899480 T _ZN4core3cmp5impls54_$LT$impl$u20$core..cmp..PartialEq$u20$for$u20$u64$GT$2eq17hddf07a252f834690E
00000000008994c0 T _ZN4core3cmp5impls54_$LT$impl$u20$core..cmp..PartialEq$u20$for$u20$u64$GT$2ne17h1930f9099e470e4dE
0000000000899500 T _ZN4core3cmp5impls55_$LT$impl$u20$core..cmp..PartialEq$u20$for$u20$i128$GT$2eq17he302c1a20efa2e57E
0000000000899550 T _ZN4core3cmp5impls55_$LT$impl$u20$core..cmp..PartialEq$u20$for$u20$i128$GT$2ne17hdfac7adca82b61ecE
00000000008995a0 T _ZN4core3cmp5impls55_$LT$impl$u20$core..cmp..PartialOrd$u20$for$u20$i32$GT$2ge17h5272c8999673cb58E
00000000008995e0 T _ZN4core3cmp5impls55_$LT$impl$u20$core..cmp..PartialOrd$u20$for$u20$i32$GT$2gt17he34f2d75cf6e7c6fE
0000000000899620 T _ZN4core3cmp5impls55_$LT$impl$u20$core..cmp..PartialOrd$u20$for$u20$i32$GT$2lt17h600fbbfd69afc844E
0000000000899660 T _ZN4core3cmp5impls55_$LT$impl$u20$core..cmp..PartialOrd$u20$for$u20$i64$GT$2ge17hfbfa9bec04a747f8E
00000000008996a0 T _ZN4core3cmp5impls55_$LT$impl$u20$core..cmp..PartialOrd$u20$for$u20$i64$GT$2gt17hbcf7d11db8fc6818E
00000000008996e0 T _ZN4core3cmp5impls55_$LT$impl$u20$core..cmp..PartialOrd$u20$for$u20$i64$GT$2lt17h21553c7167333ebcE
0000000000899720 T _ZN4core3cmp5impls55_$LT$impl$u20$core..cmp..PartialOrd$u20$for$u20$u32$GT$2ge17h79c7799217090cbfE
0000000000899760 T _ZN4core3cmp5impls55_$LT$impl$u20$core..cmp..PartialOrd$u20$for$u20$u32$GT$2gt17he77a8764efc5e252E
00000000008997a0 T _ZN4core3cmp5impls55_$LT$impl$u20$core..cmp..PartialOrd$u20$for$u20$u32$GT$2lt17h4dad7dfb1c0b5e07E
00000000008997e0 T _ZN4core3cmp5impls55_$LT$impl$u20$core..cmp..PartialOrd$u20$for$u20$u64$GT$2ge17hc8fa9cb8eb0aeaa4E
0000000000899820 T _ZN4core3cmp5impls55_$LT$impl$u20$core..cmp..PartialOrd$u20$for$u20$u64$GT$2gt17h4e1233a580a8aae6E
0000000000899860 T _ZN4core3cmp5impls55_$LT$impl$u20$core..cmp..PartialOrd$u20$for$u20$u64$GT$2lt17hee2bfdc400d237b9E
00000000008998a0 T _ZN4core3cmp5impls56_$LT$impl$u20$core..cmp..PartialOrd$u20$for$u20$i128$GT$2ge17h33cc15cea53e8375E
00000000008998f0 T _ZN4core3cmp5impls56_$LT$impl$u20$core..cmp..PartialOrd$u20$for$u20$i128$GT$2gt17h2a29b25625e2e9f9E
0000000000899940 T _ZN4core3cmp5impls56_$LT$impl$u20$core..cmp..PartialOrd$u20$for$u20$i128$GT$2le17h493896096bc60b34E
0000000000899990 T _ZN4core3cmp5impls56_$LT$impl$u20$core..cmp..PartialOrd$u20$for$u20$i128$GT$2lt17hd4c11d50c4d56567E
00000000008999e0 T _ZN4core3cmp5impls56_$LT$impl$u20$core..cmp..PartialOrd$u20$for$u20$u128$GT$2ge17ha3a6c57e2fe733dcE
0000000000899a30 T _ZN4core3cmp5impls56_$LT$impl$u20$core..cmp..PartialOrd$u20$for$u20$u128$GT$2gt17heecb97a680c7fe25E
0000000000899a80 T _ZN4core3cmp5impls56_$LT$impl$u20$core..cmp..PartialOrd$u20$for$u20$u128$GT$2le17hab29d7b06be4a91eE
0000000000899ad0 T _ZN4core3cmp5impls56_$LT$impl$u20$core..cmp..PartialOrd$u20$for$u20$u128$GT$2lt17h89fe3b9deed33cd3E
0000000000899b20 T _ZN4core3ptr7mut_ptr31_$LT$impl$u20$$BP$mut$u20$T$GT$3add17haf93561bd99c2207E
0000000000899b60 T _ZN4core3ptr7mut_ptr31_$LT$impl$u20$$BP$mut$u20$T$GT$3add17hb6bf82fdf5169f2eE
0000000000899ba0 T _ZN4core3ptr7mut_ptr31_$LT$impl$u20$$BP$mut$u20$T$GT$6offset17h2ca07dbffe157c5aE
0000000000899bf0 T _ZN4core3ptr7mut_ptr31_$LT$impl$u20$$BP$mut$u20$T$GT$6offset17h562370c195e02847E
0000000000899c40 T _ZN4core3ptr9const_ptr33_$LT$impl$u20$$BP$const$u20$T$GT$3add17h28660bca78cab51fE
0000000000899c80 T _ZN4core3ptr9const_ptr33_$LT$impl$u20$$BP$const$u20$T$GT$6offset17h99920914a57693b2E
0000000000899cd0 T _ZN4core7convert3num63_$LT$impl$u20$core..convert..From$LT$u8$GT$$u20$for$u20$u16$GT$4from17h8b9df406b06f0681E
0000000000899d00 T _ZN4core7convert3num63_$LT$impl$u20$core..convert..From$LT$u8$GT$$u20$for$u20$u32$GT$4from17h50f65cefdf15d598E
0000000000899d20 T _ZN4core7convert3num63_$LT$impl$u20$core..convert..From$LT$u8$GT$$u20$for$u20$u64$GT$4from17h6ea649748a41831cE
0000000000899d50 T _ZN4core7convert3num64_$LT$impl$u20$core..convert..From$LT$u32$GT$$u20$for$u20$u64$GT$4from17h4e65822c57498b7eE
0000000000899d80 T _ZN4core7convert3num65_$LT$impl$u20$core..convert..From$LT$u64$GT$$u20$for$u20$u128$GT$4from17h0ffcc1f2b8d977d5E
0000000000899db0 T _ZN50_$LT$T$u20$as$u20$core..convert..From$LT$T$GT$$GT$4from17h5f70b76abb8915beE
0000000000899dd0 T _ZN17compiler_builtins5abort17h00bc817e765f541dE
0000000000899de0 T __addsf3
0000000000899e20 T __adddf3
0000000000899e60 T __lesf2
0000000000899ea0 T __gesf2
0000000000899ee0 T __unordsf2
0000000000899f20 T __eqsf2
0000000000899f60 T __ltsf2
0000000000899fa0 T __nesf2
0000000000899fe0 T __gtsf2
000000000089a020 T __ledf2
000000000089a060 T __gedf2
000000000089a0a0 T __unorddf2
000000000089a0e0 T __eqdf2
000000000089a120 T __ltdf2
000000000089a160 T __nedf2
000000000089a1a0 T __gtdf2
000000000089a1e0 T __floatsisf
000000000089a210 T __floatsidf
000000000089a240 T __floatdisf
000000000089a280 T __floatdidf
000000000089a2c0 T __floattisf
000000000089a300 T __floattidf
000000000089a340 T __floatunsisf
000000000089a370 T __floatunsidf
000000000089a3a0 T __floatundisf
000000000089a3e0 T __floatundidf
000000000089a420 T __floatuntisf
000000000089a460 T __floatuntidf
000000000089a4a0 T __fixsfsi
000000000089a4d0 T __fixsfdi
000000000089a500 T __fixsfti
000000000089a540 T __fixdfsi
000000000089a570 T __fixdfdi
000000000089a5a0 T __fixdfti
000000000089a5e0 T __fixunssfsi
000000000089a610 T __fixunssfdi
000000000089a640 T __fixunssfti
000000000089a680 T __fixunsdfsi
000000000089a6b0 T __fixunsdfdi
000000000089a6e0 T __fixunsdfti
000000000089a720 T __divsf3
000000000089a760 T __divdf3
000000000089a7a0 T __extendsfdf2
000000000089a7e0 T __mulsf3
000000000089a820 T __muldf3
000000000089a860 T __powisf2
000000000089a8a0 T __powidf2
000000000089a8e0 T _ZN17compiler_builtins5float3sub8__subsf317h86d45410de0f1059E
000000000089a950 T __subsf3
000000000089a990 T _ZN17compiler_builtins5float3sub8__subdf317h915fd099b0593a1bE
000000000089aa10 T __subdf3
000000000089aa50 T __rust_i128_add
000000000089aac0 T __rust_i128_addo
000000000089ab30 T __rust_u128_add
000000000089aba0 T __rust_u128_addo
000000000089ac10 T __rust_i128_sub
000000000089ac80 T __rust_i128_subo
000000000089acf0 T __rust_u128_sub
000000000089ad60 T __rust_u128_subo
000000000089add0 T __muldi3
000000000089ae10 T __multi3
000000000089ae80 T __rust_i128_mulo
000000000089aef0 T __rust_u128_mulo
000000000089af60 T __divsi3
000000000089afa0 T __divdi3
000000000089afe0 T __divti3
000000000089b050 T __modsi3
000000000089b090 T __moddi3
000000000089b0d0 T __modti3
000000000089b140 T __ashldi3
000000000089b180 T __ashlti3
000000000089b1d0 T __ashrdi3
000000000089b210 T __ashrti3
000000000089b260 T __lshrdi3
000000000089b2a0 T __lshrti3
000000000089b2f0 T __rust_i128_shlo
000000000089b360 T __rust_u128_shlo
000000000089b3d0 T __rust_i128_shro
000000000089b440 T __rust_u128_shro
000000000089b4b0 T __udivsi3
000000000089b4f0 T __umodsi3
000000000089b530 T __udivdi3
000000000089b570 T __umoddi3
000000000089b5b0 T __udivti3
000000000089b620 T __umodti3
000000000089b690 T __udivmodti4
000000000089b710 T __clzsi2
000000000089b740 T __llvm_memcpy_element_unordered_atomic_1
000000000089b790 T __llvm_memset_element_unordered_atomic_2
000000000089b7d0 T __llvm_memset_element_unordered_atomic_8
000000000089b810 t _ZN17compiler_builtins5float3div5div3217hf6040b5964c0846eE
000000000089c470 t _ZN17compiler_builtins5float3div5div6417h5ba8b8ddcdf7e1a6E
000000000089d380 T _ZN17compiler_builtins5float3div8__divsf317h04ab34f383c873c2E
000000000089d3c0 T _ZN17compiler_builtins5float3div8__divdf317h10f4359d60c2286fE
000000000089d400 T _ZN17compiler_builtins3int4udiv9__udivsi317h53f58a92abff9806E
000000000089d680 T _ZN17compiler_builtins3int4udiv9__umodsi317he2aeeaa5a9bb498bE
000000000089d710 T _ZN17compiler_builtins3int4udiv12__udivmodsi417h522d25e020006ea9E
000000000089d7e0 T _ZN17compiler_builtins3int4udiv9__udivdi317hb99dd5df44ab75efE
000000000089d820 T _ZN17compiler_builtins3int4udiv9__umoddi317hf6349fd4c0064330E
000000000089d870 T _ZN17compiler_builtins3int4udiv9__udivti317h0d7d6172e9760c6cE
000000000089d8e0 T _ZN17compiler_builtins3int4udiv9__umodti317h07a3555038577342E
000000000089d960 T _ZN17compiler_builtins3int4udiv12__udivmoddi417hb31649389997f82bE
000000000089e7a0 T _ZN17compiler_builtins3int4udiv12__udivmodti417hc13252ee91244f40E
000000000089fa10 t _ZN17compiler_builtins3int6unwrap17h414f4499a0b7a25cE
000000000089fa70 t _ZN17compiler_builtins3int6unwrap17h458d9158fa10e34dE
000000000089fac0 t _ZN17compiler_builtins3int6unwrap17h4a8e4959654cb9e9E
000000000089fb10 t _ZN17compiler_builtins3int6unwrap17hb590a0e4f64867c8E
000000000089fb60 t _ZN17compiler_builtins3int6unwrap17hc27663343703a880E
000000000089fbc0 t _ZN17compiler_builtins3int6unwrap17hea0852230c262414E
000000000089fc10 T _ZN51_$LT$u32$u20$as$u20$compiler_builtins..int..Int$GT$12extract_sign17h8c48966da19f7e7bE
000000000089fc40 T _ZN51_$LT$u32$u20$as$u20$compiler_builtins..int..Int$GT$8unsigned17h7ac4272769b890a7E
000000000089fc60 T _ZN51_$LT$u32$u20$as$u20$compiler_builtins..int..Int$GT$13from_unsigned17h7429f74b02ad3c8eE
000000000089fc80 T _ZN51_$LT$i32$u20$as$u20$compiler_builtins..int..Int$GT$12extract_sign17hfa7c23d936b573d8E
000000000089fce0 T _ZN51_$LT$i32$u20$as$u20$compiler_builtins..int..Int$GT$8unsigned17h16bbbce37bdc1b0fE
000000000089fd00 T _ZN51_$LT$i32$u20$as$u20$compiler_builtins..int..Int$GT$13from_unsigned17ha0a82a71a25f29a9E
000000000089fd20 T _ZN51_$LT$u32$u20$as$u20$compiler_builtins..int..Int$GT$9from_bool17hec69c3cb6d6268c9E
000000000089fd50 T _ZN51_$LT$u32$u20$as$u20$compiler_builtins..int..Int$GT$9max_value17h4fbe1f22171f162dE
000000000089fd60 T _ZN51_$LT$u32$u20$as$u20$compiler_builtins..int..Int$GT$9min_value17h6aafcb64c7f19bfdE
000000000089fd70 T _ZN51_$LT$u32$u20$as$u20$compiler_builtins..int..Int$GT$12wrapping_add17ha1fa90f775114e99E
000000000089fdb0 T _ZN51_$LT$u32$u20$as$u20$compiler_builtins..int..Int$GT$12wrapping_mul17hfde6ad02d2c141ffE
000000000089fdf0 T _ZN51_$LT$u32$u20$as$u20$compiler_builtins..int..Int$GT$12wrapping_sub17h414479580de345c6E
000000000089fe30 T _ZN51_$LT$u32$u20$as$u20$compiler_builtins..int..Int$GT$12wrapping_shl17h454b58285bf6a063E
000000000089fe70 T _ZN51_$LT$u32$u20$as$u20$compiler_builtins..int..Int$GT$15overflowing_add17h01bbe9be0f49749eE
000000000089fec0 T _ZN51_$LT$u32$u20$as$u20$compiler_builtins..int..Int$GT$12aborting_div17ha71c9e52a8c0cfbdE
000000000089ff10 T _ZN51_$LT$u32$u20$as$u20$compiler_builtins..int..Int$GT$12aborting_rem17ha50ebbcbe1ab7b26E
000000000089ff60 T _ZN51_$LT$u32$u20$as$u20$compiler_builtins..int..Int$GT$13leading_zeros17h637fb5c4c018454cE
000000000089ff90 T _ZN51_$LT$i32$u20$as$u20$compiler_builtins..int..Int$GT$9from_bool17hd8dc80d45b1f643dE
000000000089ffc0 T _ZN51_$LT$i32$u20$as$u20$compiler_builtins..int..Int$GT$9max_value17h3478432ddef48230E
000000000089ffd0 T _ZN51_$LT$i32$u20$as$u20$compiler_builtins..int..Int$GT$9min_value17h5d8aeaa3ce6735e8E
000000000089ffe0 T _ZN51_$LT$i32$u20$as$u20$compiler_builtins..int..Int$GT$12wrapping_add17hb72959fd02f836aeE
00000000008a0020 T _ZN51_$LT$i32$u20$as$u20$compiler_builtins..int..Int$GT$12wrapping_mul17h529ac65d5c85513fE
00000000008a0060 T _ZN51_$LT$i32$u20$as$u20$compiler_builtins..int..Int$GT$12wrapping_sub17h216a1f1ae3be3748E
00000000008a00a0 T _ZN51_$LT$i32$u20$as$u20$compiler_builtins..int..Int$GT$12wrapping_shl17hedaf5c2a39da5374E
00000000008a00e0 T _ZN51_$LT$i32$u20$as$u20$compiler_builtins..int..Int$GT$15overflowing_add17he4c5da2af00b1b89E
00000000008a0130 T _ZN51_$LT$i32$u20$as$u20$compiler_builtins..int..Int$GT$12aborting_div17h74ea80e1af90b41dE
00000000008a0180 T _ZN51_$LT$i32$u20$as$u20$compiler_builtins..int..Int$GT$12aborting_rem17hec3eae317dbaa8fbE
00000000008a01d0 T _ZN51_$LT$i32$u20$as$u20$compiler_builtins..int..Int$GT$13leading_zeros17h6f5b344a070aa416E
00000000008a0200 T _ZN51_$LT$u64$u20$as$u20$compiler_builtins..int..Int$GT$12extract_sign17h82a1a1be5f08444aE
00000000008a0230 T _ZN51_$LT$u64$u20$as$u20$compiler_builtins..int..Int$GT$8unsigned17h8f53b889f57510cbE
00000000008a0250 T _ZN51_$LT$u64$u20$as$u20$compiler_builtins..int..Int$GT$13from_unsigned17hdeaa8c41814f764cE
00000000008a0270 T _ZN51_$LT$i64$u20$as$u20$compiler_builtins..int..Int$GT$12extract_sign17h4344fa5e2982f027E
00000000008a02e0 T _ZN51_$LT$i64$u20$as$u20$compiler_builtins..int..Int$GT$8unsigned17h7e7f4209d6aa3c8dE
00000000008a0300 T _ZN51_$LT$i64$u20$as$u20$compiler_builtins..int..Int$GT$13from_unsigned17ha95fa5d8b4e5df8fE
00000000008a0320 T _ZN51_$LT$u64$u20$as$u20$compiler_builtins..int..Int$GT$9from_bool17h9f541cee0c3ed250E
00000000008a0350 T _ZN51_$LT$u64$u20$as$u20$compiler_builtins..int..Int$GT$9max_value17hc7676b465847e3e5E
00000000008a0370 T _ZN51_$LT$u64$u20$as$u20$compiler_builtins..int..Int$GT$9min_value17hb5495a514f58590eE
00000000008a0380 T _ZN51_$LT$u64$u20$as$u20$compiler_builtins..int..Int$GT$12wrapping_add17h31a244a7e48534a9E
00000000008a03c0 T _ZN51_$LT$u64$u20$as$u20$compiler_builtins..int..Int$GT$12wrapping_mul17h0d6c5742823c83faE
00000000008a0400 T _ZN51_$LT$u64$u20$as$u20$compiler_builtins..int..Int$GT$12wrapping_sub17h5ce49efcd1216673E
00000000008a0440 T _ZN51_$LT$u64$u20$as$u20$compiler_builtins..int..Int$GT$12wrapping_shl17h8b6785a560c6221cE
00000000008a0480 T _ZN51_$LT$u64$u20$as$u20$compiler_builtins..int..Int$GT$15overflowing_add17h12807a9a5da066f8E
00000000008a04d0 T _ZN51_$LT$u64$u20$as$u20$compiler_builtins..int..Int$GT$12aborting_div17hed05f47d289a211eE
00000000008a0530 T _ZN51_$LT$u64$u20$as$u20$compiler_builtins..int..Int$GT$12aborting_rem17hb647868cda70b706E
00000000008a0590 T _ZN51_$LT$u64$u20$as$u20$compiler_builtins..int..Int$GT$13leading_zeros17he712872eee695066E
00000000008a05c0 T _ZN51_$LT$i64$u20$as$u20$compiler_builtins..int..Int$GT$9from_bool17h9096f5d19dfb3be6E
00000000008a05f0 T _ZN51_$LT$i64$u20$as$u20$compiler_builtins..int..Int$GT$9max_value17h4a8e71857b123a61E
00000000008a0610 T _ZN51_$LT$i64$u20$as$u20$compiler_builtins..int..Int$GT$9min_value17hebea179c46250e30E
00000000008a0630 T _ZN51_$LT$i64$u20$as$u20$compiler_builtins..int..Int$GT$12wrapping_add17h306f0c201240de67E
00000000008a0670 T _ZN51_$LT$i64$u20$as$u20$compiler_builtins..int..Int$GT$12wrapping_mul17ha8fd55268805c24fE
00000000008a06b0 T _ZN51_$LT$i64$u20$as$u20$compiler_builtins..int..Int$GT$12wrapping_sub17h3a264d14dbdb2791E
00000000008a06f0 T _ZN51_$LT$i64$u20$as$u20$compiler_builtins..int..Int$GT$12wrapping_shl17h2ba9e093c3bad5b7E
00000000008a0730 T _ZN51_$LT$i64$u20$as$u20$compiler_builtins..int..Int$GT$15overflowing_add17hfeaf241dff19f59cE
00000000008a0780 T _ZN51_$LT$i64$u20$as$u20$compiler_builtins..int..Int$GT$12aborting_div17hee109cd4d74e5affE
00000000008a07e0 T _ZN51_$LT$i64$u20$as$u20$compiler_builtins..int..Int$GT$12aborting_rem17hbc86fa655cf1cec7E
00000000008a0840 T _ZN51_$LT$i64$u20$as$u20$compiler_builtins..int..Int$GT$13leading_zeros17h7f0f6f2898355006E
00000000008a0870 T _ZN52_$LT$u128$u20$as$u20$compiler_builtins..int..Int$GT$12extract_sign17h22f3c0895fc3e404E
00000000008a08c0 T _ZN52_$LT$u128$u20$as$u20$compiler_builtins..int..Int$GT$8unsigned17h76b1b9e1fdac22beE
00000000008a0900 T _ZN52_$LT$u128$u20$as$u20$compiler_builtins..int..Int$GT$13from_unsigned17h4d88926522115e69E
00000000008a0940 T _ZN52_$LT$i128$u20$as$u20$compiler_builtins..int..Int$GT$12extract_sign17hc8f8f4937fc1e5f1E
00000000008a09e0 T _ZN52_$LT$i128$u20$as$u20$compiler_builtins..int..Int$GT$8unsigned17hf1e859231f15b0efE
00000000008a0a20 T _ZN52_$LT$i128$u20$as$u20$compiler_builtins..int..Int$GT$13from_unsigned17h2e135fbd38f95c25E
00000000008a0a60 T _ZN52_$LT$u128$u20$as$u20$compiler_builtins..int..Int$GT$9from_bool17h5584cb04d868fb8cE
00000000008a0a90 T _ZN52_$LT$u128$u20$as$u20$compiler_builtins..int..Int$GT$9max_value17h941ae1bcfa310b68E
00000000008a0ac0 T _ZN52_$LT$u128$u20$as$u20$compiler_builtins..int..Int$GT$9min_value17h57638f86509531a5E
00000000008a0ae0 T _ZN52_$LT$u128$u20$as$u20$compiler_builtins..int..Int$GT$12wrapping_add17hca71afe6d6dceed5E
00000000008a0b50 T _ZN52_$LT$u128$u20$as$u20$compiler_builtins..int..Int$GT$12wrapping_mul17hdab85cd9a3455428E
00000000008a0bc0 T _ZN52_$LT$u128$u20$as$u20$compiler_builtins..int..Int$GT$12wrapping_sub17h8f75a407b125afb5E
00000000008a0c30 T _ZN52_$LT$u128$u20$as$u20$compiler_builtins..int..Int$GT$12wrapping_shl17hd71e2530e9ac7d1dE
00000000008a0c80 T _ZN52_$LT$u128$u20$as$u20$compiler_builtins..int..Int$GT$15overflowing_add17h1eced0a328487716E
00000000008a0d00 T _ZN52_$LT$u128$u20$as$u20$compiler_builtins..int..Int$GT$12aborting_div17hac88b6e4b123dbf1E
00000000008a0d90 T _ZN52_$LT$u128$u20$as$u20$compiler_builtins..int..Int$GT$12aborting_rem17h6d2d993a97cb3aa6E
00000000008a0e20 T _ZN52_$LT$u128$u20$as$u20$compiler_builtins..int..Int$GT$13leading_zeros17h5c25f1fb7aff754dE
00000000008a0e60 T _ZN52_$LT$i128$u20$as$u20$compiler_builtins..int..Int$GT$9from_bool17hc4762ecff9d06f9dE
00000000008a0e90 T _ZN52_$LT$i128$u20$as$u20$compiler_builtins..int..Int$GT$9max_value17hc25ee11892f82e6eE
00000000008a0eb0 T _ZN52_$LT$i128$u20$as$u20$compiler_builtins..int..Int$GT$9min_value17hd5466e8f0f679aa8E
00000000008a0ed0 T _ZN52_$LT$i128$u20$as$u20$compiler_builtins..int..Int$GT$12wrapping_add17h73b62fc00e5e7a50E
00000000008a0f40 T _ZN52_$LT$i128$u20$as$u20$compiler_builtins..int..Int$GT$12wrapping_mul17h3afb118a040458b4E
00000000008a0fb0 T _ZN52_$LT$i128$u20$as$u20$compiler_builtins..int..Int$GT$12wrapping_sub17h396d4e148e1b209dE
00000000008a1020 T _ZN52_$LT$i128$u20$as$u20$compiler_builtins..int..Int$GT$12wrapping_shl17he15e40637a38928aE
00000000008a1070 T _ZN52_$LT$i128$u20$as$u20$compiler_builtins..int..Int$GT$15overflowing_add17h683f0f2a6e42c3cdE
00000000008a10f0 T _ZN52_$LT$i128$u20$as$u20$compiler_builtins..int..Int$GT$12aborting_div17h717b08b14a4805a9E
00000000008a1180 T _ZN52_$LT$i128$u20$as$u20$compiler_builtins..int..Int$GT$12aborting_rem17h73883ee5ca926a32E
00000000008a1210 T _ZN52_$LT$i128$u20$as$u20$compiler_builtins..int..Int$GT$13leading_zeros17h522507d4e58283b7E
00000000008a1250 T _ZN56_$LT$u64$u20$as$u20$compiler_builtins..int..LargeInt$GT$3low17ha3cca7561bf44e75E
00000000008a1280 T _ZN56_$LT$u64$u20$as$u20$compiler_builtins..int..LargeInt$GT$11low_as_high17heda2995bf1a3932cE
00000000008a12a0 T _ZN56_$LT$u64$u20$as$u20$compiler_builtins..int..LargeInt$GT$4high17h9078c94f20549891E
00000000008a12d0 T _ZN56_$LT$u64$u20$as$u20$compiler_builtins..int..LargeInt$GT$11high_as_low17h5183e8beb34d5423E
00000000008a12f0 T _ZN56_$LT$u64$u20$as$u20$compiler_builtins..int..LargeInt$GT$10from_parts17h19382ca3d99c17d8E
00000000008a1340 T _ZN56_$LT$i64$u20$as$u20$compiler_builtins..int..LargeInt$GT$3low17h60f47ba26cf4b75eE
00000000008a1370 T _ZN56_$LT$i64$u20$as$u20$compiler_builtins..int..LargeInt$GT$11low_as_high17hb134ece5aaebe51aE
00000000008a1390 T _ZN56_$LT$i64$u20$as$u20$compiler_builtins..int..LargeInt$GT$4high17h3ee2838bc7c302b2E
00000000008a13c0 T _ZN56_$LT$i64$u20$as$u20$compiler_builtins..int..LargeInt$GT$11high_as_low17h0344729c1fb7cbabE
00000000008a13e0 T _ZN56_$LT$i64$u20$as$u20$compiler_builtins..int..LargeInt$GT$10from_parts17he3e0fd882cf1a1fbE
00000000008a1430 T _ZN57_$LT$u128$u20$as$u20$compiler_builtins..int..LargeInt$GT$3low17hb86a6f764e8856d2E
00000000008a1460 T _ZN57_$LT$u128$u20$as$u20$compiler_builtins..int..LargeInt$GT$11low_as_high17hdfad856443cd119dE
00000000008a1480 T _ZN57_$LT$u128$u20$as$u20$compiler_builtins..int..LargeInt$GT$4high17h28a7841688054b80E
00000000008a14c0 T _ZN57_$LT$u128$u20$as$u20$compiler_builtins..int..LargeInt$GT$11high_as_low17h52185cc0949c0e3fE
00000000008a14e0 T _ZN57_$LT$u128$u20$as$u20$compiler_builtins..int..LargeInt$GT$10from_parts17hc9c96c1e85e330efE
00000000008a1540 T _ZN57_$LT$i128$u20$as$u20$compiler_builtins..int..LargeInt$GT$3low17h6f363b616c4cd198E
00000000008a1570 T _ZN57_$LT$i128$u20$as$u20$compiler_builtins..int..LargeInt$GT$11low_as_high17h6f67b8880e1a0bcaE
00000000008a1590 T _ZN57_$LT$i128$u20$as$u20$compiler_builtins..int..LargeInt$GT$4high17h71625e6e56d28116E
00000000008a15d0 T _ZN57_$LT$i128$u20$as$u20$compiler_builtins..int..LargeInt$GT$11high_as_low17h3f5f3aec43b7ec41E
00000000008a15f0 T _ZN57_$LT$i128$u20$as$u20$compiler_builtins..int..LargeInt$GT$10from_parts17h2663078218c08328E
00000000008a1650 T _ZN69_$LT$u32$u20$as$u20$compiler_builtins..int..CastInto$LT$usize$GT$$GT$4cast17h6f3ed1d21877c84bE
00000000008a1680 T _ZN69_$LT$u32$u20$as$u20$compiler_builtins..int..CastInto$LT$isize$GT$$GT$4cast17hc5c3d65ac5741d81E
00000000008a16b0 T _ZN67_$LT$u32$u20$as$u20$compiler_builtins..int..CastInto$LT$u32$GT$$GT$4cast17hc79371af35db470fE
00000000008a16d0 T _ZN67_$LT$u32$u20$as$u20$compiler_builtins..int..CastInto$LT$i32$GT$$GT$4cast17hf7f3ecc206679f7dE
00000000008a16f0 T _ZN67_$LT$u32$u20$as$u20$compiler_builtins..int..CastInto$LT$u64$GT$$GT$4cast17h7a6306a81d0d5e6fE
00000000008a1720 T _ZN67_$LT$u32$u20$as$u20$compiler_builtins..int..CastInto$LT$i64$GT$$GT$4cast17h3735933fb977ee59E
00000000008a1750 T _ZN68_$LT$u32$u20$as$u20$compiler_builtins..int..CastInto$LT$u128$GT$$GT$4cast17h9db8628d626e028fE
00000000008a1780 T _ZN68_$LT$u32$u20$as$u20$compiler_builtins..int..CastInto$LT$i128$GT$$GT$4cast17h634ca03692200cf8E
00000000008a17b0 T _ZN69_$LT$i32$u20$as$u20$compiler_builtins..int..CastInto$LT$usize$GT$$GT$4cast17h4fcf5b5e16967146E
00000000008a17e0 T _ZN69_$LT$i32$u20$as$u20$compiler_builtins..int..CastInto$LT$isize$GT$$GT$4cast17h08272f05ce8c376bE
00000000008a1810 T _ZN67_$LT$i32$u20$as$u20$compiler_builtins..int..CastInto$LT$u32$GT$$GT$4cast17h801714b595535da6E
00000000008a1830 T _ZN67_$LT$i32$u20$as$u20$compiler_builtins..int..CastInto$LT$i32$GT$$GT$4cast17h47e0cfb0ca8431c3E
00000000008a1850 T _ZN67_$LT$i32$u20$as$u20$compiler_builtins..int..CastInto$LT$u64$GT$$GT$4cast17h2711b888aa30a857E
00000000008a1880 T _ZN67_$LT$i32$u20$as$u20$compiler_builtins..int..CastInto$LT$i64$GT$$GT$4cast17hbfbe06939ad13394E
00000000008a18b0 T _ZN68_$LT$i32$u20$as$u20$compiler_builtins..int..CastInto$LT$u128$GT$$GT$4cast17h88d31fdb046d9523E
00000000008a18e0 T _ZN68_$LT$i32$u20$as$u20$compiler_builtins..int..CastInto$LT$i128$GT$$GT$4cast17h8ce2d7962fba0f9bE
00000000008a1910 T _ZN69_$LT$u64$u20$as$u20$compiler_builtins..int..CastInto$LT$usize$GT$$GT$4cast17h49208ef9a5e9c770E
00000000008a1930 T _ZN69_$LT$u64$u20$as$u20$compiler_builtins..int..CastInto$LT$isize$GT$$GT$4cast17h80eca0e3ec25df04E
00000000008a1950 T _ZN67_$LT$u64$u20$as$u20$compiler_builtins..int..CastInto$LT$u32$GT$$GT$4cast17h262458890ee53cf6E
00000000008a1980 T _ZN67_$LT$u64$u20$as$u20$compiler_builtins..int..CastInto$LT$i32$GT$$GT$4cast17ha26f0123ce96627cE
00000000008a19b0 T _ZN67_$LT$u64$u20$as$u20$compiler_builtins..int..CastInto$LT$u64$GT$$GT$4cast17he03cec2644cfe715E
00000000008a19d0 T _ZN67_$LT$u64$u20$as$u20$compiler_builtins..int..CastInto$LT$i64$GT$$GT$4cast17h6b8aee0f749a4cb2E
00000000008a19f0 T _ZN68_$LT$u64$u20$as$u20$compiler_builtins..int..CastInto$LT$u128$GT$$GT$4cast17hf6ad2abecdaf9b46E
00000000008a1a20 T _ZN68_$LT$u64$u20$as$u20$compiler_builtins..int..CastInto$LT$i128$GT$$GT$4cast17h58afb1994f35632bE
00000000008a1a50 T _ZN69_$LT$i64$u20$as$u20$compiler_builtins..int..CastInto$LT$usize$GT$$GT$4cast17hef9c4097830d1018E
00000000008a1a70 T _ZN69_$LT$i64$u20$as$u20$compiler_builtins..int..CastInto$LT$isize$GT$$GT$4cast17h56ac4c2f5557da7bE
00000000008a1a90 T _ZN67_$LT$i64$u20$as$u20$compiler_builtins..int..CastInto$LT$u32$GT$$GT$4cast17h40664b2e20dac9f7E
00000000008a1ac0 T _ZN67_$LT$i64$u20$as$u20$compiler_builtins..int..CastInto$LT$i32$GT$$GT$4cast17h3226d652ca813589E
00000000008a1af0 T _ZN67_$LT$i64$u20$as$u20$compiler_builtins..int..CastInto$LT$u64$GT$$GT$4cast17h470007e202dad4ccE
00000000008a1b10 T _ZN67_$LT$i64$u20$as$u20$compiler_builtins..int..CastInto$LT$i64$GT$$GT$4cast17hdcc13d37c13f1f2fE
00000000008a1b30 T _ZN68_$LT$i64$u20$as$u20$compiler_builtins..int..CastInto$LT$u128$GT$$GT$4cast17h32f672eff2aaf75cE
00000000008a1b70 T _ZN68_$LT$i64$u20$as$u20$compiler_builtins..int..CastInto$LT$i128$GT$$GT$4cast17h29ef698c9a3dd17bE
00000000008a1bb0 T _ZN70_$LT$u128$u20$as$u20$compiler_builtins..int..CastInto$LT$usize$GT$$GT$4cast17h258b9170f7d6fcbdE
00000000008a1be0 T _ZN70_$LT$u128$u20$as$u20$compiler_builtins..int..CastInto$LT$isize$GT$$GT$4cast17h2389e0855c316fdfE
00000000008a1c10 T _ZN68_$LT$u128$u20$as$u20$compiler_builtins..int..CastInto$LT$u32$GT$$GT$4cast17h5d1e506c6fcbd030E
00000000008a1c40 T _ZN68_$LT$u128$u20$as$u20$compiler_builtins..int..CastInto$LT$i32$GT$$GT$4cast17he3d64660c973d59fE
00000000008a1c70 T _ZN68_$LT$u128$u20$as$u20$compiler_builtins..int..CastInto$LT$u64$GT$$GT$4cast17h479d5090c078be50E
00000000008a1ca0 T _ZN68_$LT$u128$u20$as$u20$compiler_builtins..int..CastInto$LT$i64$GT$$GT$4cast17hfa2dc7512b0af864E
00000000008a1cd0 T _ZN69_$LT$u128$u20$as$u20$compiler_builtins..int..CastInto$LT$u128$GT$$GT$4cast17h0d938f15c923f404E
00000000008a1d10 T _ZN69_$LT$u128$u20$as$u20$compiler_builtins..int..CastInto$LT$i128$GT$$GT$4cast17h570d197ccc21d669E
00000000008a1d50 T _ZN70_$LT$i128$u20$as$u20$compiler_builtins..int..CastInto$LT$usize$GT$$GT$4cast17hd86c3c92204f0d41E
00000000008a1d80 T _ZN70_$LT$i128$u20$as$u20$compiler_builtins..int..CastInto$LT$isize$GT$$GT$4cast17h0e320fd7cdfd1fe9E
00000000008a1db0 T _ZN68_$LT$i128$u20$as$u20$compiler_builtins..int..CastInto$LT$u32$GT$$GT$4cast17ha2611b49be70eb2eE
00000000008a1de0 T _ZN68_$LT$i128$u20$as$u20$compiler_builtins..int..CastInto$LT$i32$GT$$GT$4cast17hafea5d2cf1197df1E
00000000008a1e10 T _ZN68_$LT$i128$u20$as$u20$compiler_builtins..int..CastInto$LT$u64$GT$$GT$4cast17h98634fc37aca39f8E
00000000008a1e40 T _ZN68_$LT$i128$u20$as$u20$compiler_builtins..int..CastInto$LT$i64$GT$$GT$4cast17h49baf052cb42f354E
00000000008a1e70 T _ZN69_$LT$i128$u20$as$u20$compiler_builtins..int..CastInto$LT$u128$GT$$GT$4cast17he1c2e38796a81f7bE
00000000008a1eb0 T _ZN69_$LT$i128$u20$as$u20$compiler_builtins..int..CastInto$LT$i128$GT$$GT$4cast17h6e93f9ad9c73e617E
00000000008a1ef0 T _ZN55_$LT$u32$u20$as$u20$compiler_builtins..int..WideInt$GT$8wide_mul17ha10f8fa0b84eb799E
00000000008a1f60 T _ZN55_$LT$u32$u20$as$u20$compiler_builtins..int..WideInt$GT$15wide_shift_left17h9e62dea590780968E
00000000008a20a0 T _ZN55_$LT$u32$u20$as$u20$compiler_builtins..int..WideInt$GT$28wide_shift_right_with_sticky17h72bf9fda4bb1fd86E
00000000008a23f0 T _ZN55_$LT$u64$u20$as$u20$compiler_builtins..int..WideInt$GT$8wide_mul17h90e4b0adcbd44772E
00000000008a2470 T _ZN55_$LT$u64$u20$as$u20$compiler_builtins..int..WideInt$GT$15wide_shift_left17h7be89d609ea1fb45E
00000000008a25e0 T _ZN55_$LT$u64$u20$as$u20$compiler_builtins..int..WideInt$GT$28wide_shift_right_with_sticky17h651627f86e67d0d8E
00000000008a29d0 T _ZN17compiler_builtins3int8__clzsi217h856d1350cd8c3cc8E
00000000008a2c80 t _ZN17compiler_builtins5float3mul3mul17h0f92f727dd883c20E
00000000008a3760 t _ZN17compiler_builtins5float3mul3mul17hf73f52281fd07acfE
00000000008a4100 T _ZN17compiler_builtins5float3mul8__mulsf317hda4c6cb903f3dcfbE
00000000008a4140 T _ZN17compiler_builtins5float3mul8__muldf317h03bec84827f7ce20E
00000000008a4180 T _ZN17compiler_builtins3int3mul3Mul3mul17h7a0aa36fa5f8aca3E
00000000008a4650 T _ZN17compiler_builtins3int3mul3Mul3mul17hbdfbb1b2a50c4998E
00000000008a49f0 T _ZN17compiler_builtins3int3mul4Mulo4mulo17h10550c8a05cea4ddE
00000000008a5020 T _ZN17compiler_builtins3int3mul4Mulo4mulo17h5c0e5fd41a82eae0E
00000000008a5490 T _ZN17compiler_builtins3int3mul4Mulo4mulo17he8769a653d373709E
00000000008a5830 T _ZN17compiler_builtins3int3mul5UMulo4mulo17h74d97d7c2c147f0bE
00000000008a5920 T _ZN17compiler_builtins3int3mul8__muldi317h63d124507ef27e2cE
00000000008a5960 T _ZN17compiler_builtins3int3mul8__multi317h3f777e667002bfc4E
00000000008a59d0 T _ZN17compiler_builtins3int3mul9__mulosi417hc84cfe3b4e9bac35E
00000000008a5a10 T _ZN17compiler_builtins3int3mul9__mulodi417h385d7c779f837998E
00000000008a5a60 T _ZN17compiler_builtins3int3mul9__muloti417h33a7f758ba308df7E
00000000008a5ae0 T _ZN17compiler_builtins3int3mul16__rust_i128_mulo17h8da30eb4929a4bb8E
00000000008a5b90 T _ZN17compiler_builtins3int3mul16__rust_u128_mulo17hc38bd9054076db73E
00000000008a5c40 T _ZN17compiler_builtins3mem6memcpy17h0bf16ff85ff9ce71E
00000000008a5d00 T _ZN17compiler_builtins3mem7memmove17hc9893dcd208f6fafE
00000000008a5e50 T _ZN17compiler_builtins3mem6memset17h745d84cc42f892eeE
00000000008a5ef0 T _ZN17compiler_builtins3mem6memcmp17h6906993762a4bf41E
00000000008a6010 T _ZN17compiler_builtins3mem4bcmp17h28fb4478c846be92E
00000000008a6060 t _ZN17compiler_builtins3mem31memcpy_element_unordered_atomic17h0b4b8d0210b9d0eeE
00000000008a6160 t _ZN17compiler_builtins3mem31memcpy_element_unordered_atomic17h453be2554c2454cfE
00000000008a6260 t _ZN17compiler_builtins3mem31memcpy_element_unordered_atomic17h684398e333021988E
00000000008a6360 t _ZN17compiler_builtins3mem31memcpy_element_unordered_atomic17h85baa5c1f54e18d5E
00000000008a6460 t _ZN17compiler_builtins3mem32memmove_element_unordered_atomic17h27ce92ba0a855519E
00000000008a6620 t _ZN17compiler_builtins3mem32memmove_element_unordered_atomic17h4eb94e8d1d376f91E
00000000008a67f0 t _ZN17compiler_builtins3mem32memmove_element_unordered_atomic17h948cb0eaca07363bE
00000000008a69c0 t _ZN17compiler_builtins3mem32memmove_element_unordered_atomic17hedd778806c279515E
00000000008a6b80 t _ZN17compiler_builtins3mem31memset_element_unordered_atomic17h3d598becfe8f3275E
00000000008a6d30 t _ZN17compiler_builtins3mem31memset_element_unordered_atomic17h5a9444066014af53E
00000000008a6ee0 t _ZN17compiler_builtins3mem31memset_element_unordered_atomic17h81e264fb3d501490E
00000000008a7080 t _ZN17compiler_builtins3mem31memset_element_unordered_atomic17hfdfa70fc154df149E
00000000008a7230 T _ZN17compiler_builtins3mem40__llvm_memcpy_element_unordered_atomic_117h4588cf25f4c05000E
00000000008a7280 T _ZN17compiler_builtins3mem40__llvm_memcpy_element_unordered_atomic_217h203835a2a252696bE
00000000008a72d0 T _ZN17compiler_builtins3mem40__llvm_memcpy_element_unordered_atomic_417hb2c3dc700f9199d7E
00000000008a7320 T _ZN17compiler_builtins3mem40__llvm_memcpy_element_unordered_atomic_817h23a41e19c2c3439eE
00000000008a7370 T _ZN17compiler_builtins3mem41__llvm_memmove_element_unordered_atomic_117h55513893bb604866E
00000000008a73c0 T _ZN17compiler_builtins3mem41__llvm_memmove_element_unordered_atomic_217h57c7c27488c85c75E
00000000008a7410 T _ZN17compiler_builtins3mem41__llvm_memmove_element_unordered_atomic_417h59f833964c8b210fE
00000000008a7460 T _ZN17compiler_builtins3mem41__llvm_memmove_element_unordered_atomic_817h677bc31313825f3fE
00000000008a74b0 T _ZN17compiler_builtins3mem40__llvm_memset_element_unordered_atomic_117h7446aaa75096660fE
00000000008a74f0 T _ZN17compiler_builtins3mem40__llvm_memset_element_unordered_atomic_217h44d2a0a632f27937E
00000000008a7530 T _ZN17compiler_builtins3mem40__llvm_memset_element_unordered_atomic_417h5a601824a5e4cb4aE
00000000008a7570 T _ZN17compiler_builtins3mem40__llvm_memset_element_unordered_atomic_817hcc36cf1b2d14777fE
00000000008a75b0 T _ZN4core3num21_$LT$impl$u20$i32$GT$11checked_div17hd190a187f75dae17E
00000000008a7650 T _ZN4core3num21_$LT$impl$u20$i32$GT$11checked_rem17h419e8ca2ef613de3E
00000000008a76f0 T _ZN4core3num21_$LT$impl$u20$i32$GT$12wrapping_add17heb13e71025991fbbE
00000000008a7730 T _ZN4core3num21_$LT$impl$u20$i32$GT$12wrapping_mul17h31ca3fdefea5b0d5E
00000000008a7770 T _ZN4core3num21_$LT$impl$u20$i32$GT$12wrapping_neg17h05a20cf1f2c0e3c2E
00000000008a77a0 T _ZN4core3num21_$LT$impl$u20$i32$GT$12wrapping_shl17haf5aba7b13f68de7E
00000000008a77e0 T _ZN4core3num21_$LT$impl$u20$i32$GT$12wrapping_sub17h89a0251a05df3614E
00000000008a7820 T _ZN4core3num21_$LT$impl$u20$i32$GT$13leading_zeros17hcf13bc5f22b41c9eE
00000000008a7850 T _ZN4core3num21_$LT$impl$u20$i32$GT$15overflowing_add17hd68962a7a28de391E
00000000008a78b0 t _ZN4core3num21_$LT$impl$u20$i32$GT$15overflowing_neg17h0ff5893a56c3d254E
00000000008a7920 T _ZN4core3num21_$LT$impl$u20$i64$GT$11checked_div17h5d9c85ff21f30741E
00000000008a79e0 T _ZN4core3num21_$LT$impl$u20$i64$GT$11checked_rem17h03c8a4fd017386efE
00000000008a7aa0 T _ZN4core3num21_$LT$impl$u20$i64$GT$12wrapping_add17h8f25058836c152a9E
00000000008a7ae0 T _ZN4core3num21_$LT$impl$u20$i64$GT$12wrapping_mul17hbd001300c81aa932E
00000000008a7b20 T _ZN4core3num21_$LT$impl$u20$i64$GT$12wrapping_neg17hab3c5b8ee492d209E
00000000008a7b50 T _ZN4core3num21_$LT$impl$u20$i64$GT$12wrapping_shl17haa30413f85a68b8cE
00000000008a7b90 T _ZN4core3num21_$LT$impl$u20$i64$GT$12wrapping_sub17hca78a0fbd34325fcE
00000000008a7bd0 T _ZN4core3num21_$LT$impl$u20$i64$GT$13leading_zeros17h5220989ffdc9e778E
00000000008a7c00 T _ZN4core3num21_$LT$impl$u20$i64$GT$15overflowing_add17h5d10eae7a9036152E
00000000008a7c70 t _ZN4core3num21_$LT$impl$u20$i64$GT$15overflowing_neg17hd0275dc3d3429f61E
00000000008a7d00 t _ZN4core3num21_$LT$impl$u20$u32$GT$10count_ones17h8b1e5551f4d843abE
00000000008a7d60 T _ZN4core3num21_$LT$impl$u20$u32$GT$11checked_div17h5df6a327dea30e3eE
00000000008a7dd0 T _ZN4core3num21_$LT$impl$u20$u32$GT$11checked_rem17h8392201bad1abea6E
00000000008a7e30 T _ZN4core3num21_$LT$impl$u20$u32$GT$12wrapping_add17hfa8718a437ef0a95E
00000000008a7e70 T _ZN4core3num21_$LT$impl$u20$u32$GT$12wrapping_mul17hc3c46b201671d35fE
00000000008a7eb0 T _ZN4core3num21_$LT$impl$u20$u32$GT$12wrapping_shl17h844cad9b7fbcadbbE
00000000008a7ef0 T _ZN4core3num21_$LT$impl$u20$u32$GT$12wrapping_sub17hd63d44a5d582c524E
00000000008a7f30 T _ZN4core3num21_$LT$impl$u20$u32$GT$13leading_zeros17hc44f02c16796c9abE
00000000008a7f70 T _ZN4core3num21_$LT$impl$u20$u32$GT$14trailing_zeros17hea585398afc32b3bE
00000000008a7fb0 T _ZN4core3num21_$LT$impl$u20$u32$GT$15is_power_of_two17h78bea3e2b1eb532aE
00000000008a7ff0 T _ZN4core3num21_$LT$impl$u20$u32$GT$15overflowing_add17haa81437aae98c8b6E
00000000008a8050 t _ZN4core3num21_$LT$impl$u20$u64$GT$10count_ones17h8f1291f60814c04aE
00000000008a80e0 T _ZN4core3num21_$LT$impl$u20$u64$GT$11checked_div17haafa6911304c5993E
00000000008a8160 T _ZN4core3num21_$LT$impl$u20$u64$GT$11checked_rem17h529fa0d84fec46c2E
00000000008a81d0 T _ZN4core3num21_$LT$impl$u20$u64$GT$12wrapping_add17h06fb2266fce83b98E
00000000008a8210 T _ZN4core3num21_$LT$impl$u20$u64$GT$12wrapping_mul17h0e5bcce13aa6465dE
00000000008a8250 T _ZN4core3num21_$LT$impl$u20$u64$GT$12wrapping_shl17h88662b3a92f47995E
00000000008a8290 T _ZN4core3num21_$LT$impl$u20$u64$GT$12wrapping_sub17h2ca4a3054264afd2E
00000000008a82d0 T _ZN4core3num21_$LT$impl$u20$u64$GT$13leading_zeros17h89fe9be97ed48ffcE
00000000008a8320 T _ZN4core3num21_$LT$impl$u20$u64$GT$14trailing_zeros17hfcc9e087091e1efdE
00000000008a8360 T _ZN4core3num21_$LT$impl$u20$u64$GT$15is_power_of_two17h649b4f59835b7561E
00000000008a83a0 T _ZN4core3num21_$LT$impl$u20$u64$GT$15overflowing_add17hb7fa1d0673bf2241E
00000000008a8410 T _ZN4core3num22_$LT$impl$u20$i128$GT$11checked_div17h5b1bd75f155983fdE
00000000008a8520 T _ZN4core3num22_$LT$impl$u20$i128$GT$11checked_rem17h52fb0b72789714a5E
00000000008a8630 T _ZN4core3num22_$LT$impl$u20$i128$GT$12wrapping_add17h316fac1758f85342E
00000000008a86a0 T _ZN4core3num22_$LT$impl$u20$i128$GT$12wrapping_mul17hd0e55d1ced83c17dE
00000000008a8720 T _ZN4core3num22_$LT$impl$u20$i128$GT$12wrapping_shl17h81e293258b1e6689E
00000000008a87a0 T _ZN4core3num22_$LT$impl$u20$i128$GT$12wrapping_sub17h7b6d7320547595ddE
00000000008a8810 T _ZN4core3num22_$LT$impl$u20$i128$GT$13leading_zeros17he126860f5aa78392E
00000000008a8850 T _ZN4core3num22_$LT$impl$u20$i128$GT$15overflowing_add17h9baa9852115fb4c5E
00000000008a8940 T _ZN4core3num22_$LT$impl$u20$u128$GT$11checked_div17h0e53aef5dab9bc82E
00000000008a8a00 T _ZN4core3num22_$LT$impl$u20$u128$GT$11checked_rem17ha8197b1d22699b6fE
00000000008a8ab0 T _ZN4core3num22_$LT$impl$u20$u128$GT$12wrapping_add17h86f3cccd48cca00aE
00000000008a8b20 T _ZN4core3num22_$LT$impl$u20$u128$GT$12wrapping_mul17h79d03f2a7ef1754dE
00000000008a8ba0 T _ZN4core3num22_$LT$impl$u20$u128$GT$12wrapping_shl17he3e98e93ce7239d2E
00000000008a8c20 T _ZN4core3num22_$LT$impl$u20$u128$GT$12wrapping_sub17hab33675c7c590d62E
00000000008a8c90 T _ZN4core3num22_$LT$impl$u20$u128$GT$13leading_zeros17h0a4f7e280e8eaeccE
00000000008a8d00 T _ZN4core3num22_$LT$impl$u20$u128$GT$15overflowing_add17hfe87dc5d24c73875E
00000000008a8dc0 T _ZN17compiler_builtins3int5shift4Ashl4ashl17h5739faf280eda517E
00000000008a8f70 T _ZN17compiler_builtins3int5shift4Ashl4ashl17hc5ad89db14095d50E
00000000008a90c0 T _ZN17compiler_builtins3int5shift4Ashr4ashr17h04c65c5882a60843E
00000000008a9270 T _ZN17compiler_builtins3int5shift4Ashr4ashr17h14f32661662c3137E
00000000008a94b0 T _ZN17compiler_builtins3int5shift4Lshr4lshr17h22f0aafa7b8462d0E
00000000008a9660 T _ZN17compiler_builtins3int5shift4Lshr4lshr17h446e2686f7e2d0b6E
00000000008a97b0 T _ZN17compiler_builtins3int5shift9__ashldi317h988b97e22ca2af67E
00000000008a97f0 T _ZN17compiler_builtins3int5shift9__ashlti317he3c4cd2f9ccaea22E
00000000008a9840 T _ZN17compiler_builtins3int5shift9__ashrdi317h5aad79020b84a010E
00000000008a9880 T _ZN17compiler_builtins3int5shift9__ashrti317h9e59529bbff490ecE
00000000008a98d0 T _ZN17compiler_builtins3int5shift9__lshrdi317he47aaa16eab1c06fE
00000000008a9910 T _ZN17compiler_builtins3int5shift9__lshrti317h520db86d24a24179E
00000000008a9960 T _ZN17compiler_builtins3int5shift16__rust_i128_shlo17h5f6be5e51aecc62aE
00000000008a9a10 T _ZN17compiler_builtins3int5shift16__rust_u128_shlo17h0de229a0a201141bE
00000000008a9ac0 T _ZN17compiler_builtins3int5shift16__rust_i128_shro17h0131cb0173fb84feE
00000000008a9b70 T _ZN17compiler_builtins3int5shift16__rust_u128_shro17hc032af828e7840beE
00000000008a9c20 T _ZN4core3fmt3num12GenericRadix7fmt_int17h0eaa342b20ce90f5E
00000000008aa2f0 T _ZN4core3fmt3num12GenericRadix7fmt_int17h117cf8b8e043de27E
00000000008aa900 T _ZN4core3fmt3num12GenericRadix7fmt_int17h152d53c4aa580f90E
00000000008aaf00 T _ZN4core3fmt3num12GenericRadix7fmt_int17h1570a74b3e711d49E
00000000008ab500 T _ZN4core3fmt3num12GenericRadix7fmt_int17h259d0d16db99fddeE
00000000008abbd0 T _ZN4core3fmt3num12GenericRadix7fmt_int17h2bea2262689b88b9E
00000000008ac1d0 T _ZN4core3fmt3num12GenericRadix7fmt_int17h36b31b9f2a1c3683E
00000000008ac7d0 T _ZN4core3fmt3num12GenericRadix7fmt_int17h47d05c48ada55667E
00000000008acdc0 T _ZN4core3fmt3num12GenericRadix7fmt_int17h638dd02e26e98351E
00000000008ad3b0 T _ZN4core3fmt3num12GenericRadix7fmt_int17h66476b4d9d7a8887E
00000000008ad9c0 T _ZN4core3fmt3num12GenericRadix7fmt_int17h66b4a1c2a915cdb6E
00000000008adfc0 T _ZN4core3fmt3num12GenericRadix7fmt_int17h8f1047613fad6be3E
00000000008ae5c0 T _ZN4core3fmt3num12GenericRadix7fmt_int17h8f396d33b6444e7cE
00000000008aebc0 T _ZN4core3fmt3num12GenericRadix7fmt_int17h8f3e8f7285c10a72E
00000000008af290 T _ZN4core3fmt3num12GenericRadix7fmt_int17h93ecc38cddfa58b7E
00000000008af890 T _ZN4core3fmt3num12GenericRadix7fmt_int17h996ca57bd3582a4cE
00000000008afe90 T _ZN4core3fmt3num12GenericRadix7fmt_int17ha9095d367bd036e3E
00000000008b04a0 T _ZN4core3fmt3num12GenericRadix7fmt_int17hb37280dbfea57837E
00000000008b0aa0 T _ZN4core3fmt3num12GenericRadix7fmt_int17hb6ebf4612413be8eE
00000000008b10a0 T _ZN4core3fmt3num12GenericRadix7fmt_int17hd9821229baf194f9E
00000000008b1770 T _ZN4core3fmt3num12GenericRadix7fmt_int17hda514249c78248b9E
00000000008b1d60 T _ZN4core3fmt3num12GenericRadix7fmt_int17he45918a830557d83E
00000000008b2360 T _ZN4core3fmt3num12GenericRadix7fmt_int17hea5fd268c995405bE
00000000008b2970 T _ZN4core3fmt3num12GenericRadix7fmt_int17hfe2451cc3966cabcE
00000000008b2f60 T _ZN42_$LT$i8$u20$as$u20$core..fmt..num..Int$GT$4zero17h8df3e74326baa805E
00000000008b2f70 T _ZN42_$LT$i8$u20$as$u20$core..fmt..num..Int$GT$7from_u817h8749adf875ef82d1E
00000000008b2f90 T _ZN42_$LT$i8$u20$as$u20$core..fmt..num..Int$GT$5to_u817h57e5b689cf8ae070E
00000000008b2fc0 T _ZN42_$LT$i8$u20$as$u20$core..fmt..num..Int$GT$6to_u1617h93255e7289a43ab5E
00000000008b2ff0 T _ZN42_$LT$i8$u20$as$u20$core..fmt..num..Int$GT$6to_u3217h55d7c185f3994a54E
00000000008b3020 T _ZN42_$LT$i8$u20$as$u20$core..fmt..num..Int$GT$6to_u6417hcebcc32d2c51917cE
00000000008b3050 T _ZN42_$LT$i8$u20$as$u20$core..fmt..num..Int$GT$7to_u12817hb6ad60362b035f30E
00000000008b3080 T _ZN43_$LT$i16$u20$as$u20$core..fmt..num..Int$GT$4zero17hebcfe33db7806cf9E
00000000008b3090 T _ZN43_$LT$i16$u20$as$u20$core..fmt..num..Int$GT$7from_u817h3bb98c4ef3fc083eE
00000000008b30c0 T _ZN43_$LT$i16$u20$as$u20$core..fmt..num..Int$GT$5to_u817hbfdba3763de111ccE
00000000008b30f0 T _ZN43_$LT$i16$u20$as$u20$core..fmt..num..Int$GT$6to_u1617he4fa7887c06cbc2aE
00000000008b3120 T _ZN43_$LT$i16$u20$as$u20$core..fmt..num..Int$GT$6to_u3217h151ad6b391960438E
00000000008b3150 T _ZN43_$LT$i16$u20$as$u20$core..fmt..num..Int$GT$6to_u6417h6a37100af6b03f82E
00000000008b3180 T _ZN43_$LT$i16$u20$as$u20$core..fmt..num..Int$GT$7to_u12817h69b3c887e30414c1E
00000000008b31b0 T _ZN43_$LT$i32$u20$as$u20$core..fmt..num..Int$GT$4zero17h4a9df30cbd34d925E
00000000008b31c0 T _ZN43_$LT$i32$u20$as$u20$core..fmt..num..Int$GT$7from_u817h64cac04d89f8f590E
00000000008b31e0 T _ZN43_$LT$i32$u20$as$u20$core..fmt..num..Int$GT$5to_u817hfd0de19b928c8b92E
00000000008b3210 T _ZN43_$LT$i32$u20$as$u20$core..fmt..num..Int$GT$6to_u1617h1ca71b7d9e77fba4E
00000000008b3240 T _ZN43_$LT$i32$u20$as$u20$core..fmt..num..Int$GT$6to_u3217hd47d0c36f2265a40E
00000000008b3270 T _ZN43_$LT$i32$u20$as$u20$core..fmt..num..Int$GT$6to_u6417hc3fffa9937599624E
00000000008b32a0 T _ZN43_$LT$i32$u20$as$u20$core..fmt..num..Int$GT$7to_u12817hde3b48349ee08aa8E
00000000008b32d0 T _ZN43_$LT$i64$u20$as$u20$core..fmt..num..Int$GT$4zero17h6e26c8857df56d5bE
00000000008b32e0 T _ZN43_$LT$i64$u20$as$u20$core..fmt..num..Int$GT$7from_u817h813f20066e9d153fE
00000000008b3310 T _ZN43_$LT$i64$u20$as$u20$core..fmt..num..Int$GT$5to_u817he5c74fd7ea6addd1E
00000000008b3340 T _ZN43_$LT$i64$u20$as$u20$core..fmt..num..Int$GT$6to_u1617h7d8221d4e35690a2E
00000000008b3370 T _ZN43_$LT$i64$u20$as$u20$core..fmt..num..Int$GT$6to_u3217h928e85aacb1295f0E
00000000008b33a0 T _ZN43_$LT$i64$u20$as$u20$core..fmt..num..Int$GT$6to_u6417hc9875e7502ba2df1E
00000000008b33d0 T _ZN43_$LT$i64$u20$as$u20$core..fmt..num..Int$GT$7to_u12817he5a8e5bbd4945916E
00000000008b3400 T _ZN44_$LT$i128$u20$as$u20$core..fmt..num..Int$GT$4zero17h392895e4a65e7c38E
00000000008b3420 T _ZN44_$LT$i128$u20$as$u20$core..fmt..num..Int$GT$7from_u817h5074026a5c75ec3fE
00000000008b3450 T _ZN44_$LT$i128$u20$as$u20$core..fmt..num..Int$GT$5to_u817h9b74a6a30439d67fE
00000000008b3480 T _ZN44_$LT$i128$u20$as$u20$core..fmt..num..Int$GT$6to_u1617h323cba686d85ec00E
00000000008b34b0 T _ZN44_$LT$i128$u20$as$u20$core..fmt..num..Int$GT$6to_u3217h456003d0a1cbf922E
00000000008b34e0 T _ZN44_$LT$i128$u20$as$u20$core..fmt..num..Int$GT$6to_u6417h458f27ae8446a2b9E
00000000008b3510 T _ZN44_$LT$i128$u20$as$u20$core..fmt..num..Int$GT$7to_u12817hee8762985b034836E
00000000008b3540 T _ZN45_$LT$isize$u20$as$u20$core..fmt..num..Int$GT$4zero17h3ed17c4ee299035eE
00000000008b3550 T _ZN45_$LT$isize$u20$as$u20$core..fmt..num..Int$GT$7from_u817hd94b9efd7a0ebb40E
00000000008b3580 T _ZN45_$LT$isize$u20$as$u20$core..fmt..num..Int$GT$5to_u817h32d08aa62064711bE
00000000008b35b0 T _ZN45_$LT$isize$u20$as$u20$core..fmt..num..Int$GT$6to_u1617hc92b72ed6b627e92E
00000000008b35e0 T _ZN45_$LT$isize$u20$as$u20$core..fmt..num..Int$GT$6to_u3217h11500883b47d4916E
00000000008b3610 T _ZN45_$LT$isize$u20$as$u20$core..fmt..num..Int$GT$6to_u6417h8bf3407f605bbcf1E
00000000008b3640 T _ZN45_$LT$isize$u20$as$u20$core..fmt..num..Int$GT$7to_u12817hd4273f0880fb0eb6E
00000000008b3670 T _ZN42_$LT$u8$u20$as$u20$core..fmt..num..Int$GT$4zero17h46f347ba0a8635eeE
00000000008b3680 T _ZN42_$LT$u8$u20$as$u20$core..fmt..num..Int$GT$7from_u817h10354ee9d1c0d7c6E
00000000008b36a0 T _ZN42_$LT$u8$u20$as$u20$core..fmt..num..Int$GT$5to_u817h8ed3c19ab1a0d3cfE
00000000008b36d0 T _ZN42_$LT$u8$u20$as$u20$core..fmt..num..Int$GT$6to_u1617h53ea42bd9ef5f13bE
00000000008b3700 T _ZN42_$LT$u8$u20$as$u20$core..fmt..num..Int$GT$6to_u3217h8100fed4ffcc3d6eE
00000000008b3730 T _ZN42_$LT$u8$u20$as$u20$core..fmt..num..Int$GT$6to_u6417h0198e6648fb4e262E
00000000008b3760 T _ZN42_$LT$u8$u20$as$u20$core..fmt..num..Int$GT$7to_u12817h8844168390eeaaaeE
00000000008b3790 T _ZN43_$LT$u16$u20$as$u20$core..fmt..num..Int$GT$4zero17h83af48630bdcf0dcE
00000000008b37a0 T _ZN43_$LT$u16$u20$as$u20$core..fmt..num..Int$GT$7from_u817h46d9fce2942576dfE
00000000008b37d0 T _ZN43_$LT$u16$u20$as$u20$core..fmt..num..Int$GT$5to_u817h7237605d76566bdfE
00000000008b3800 T _ZN43_$LT$u16$u20$as$u20$core..fmt..num..Int$GT$6to_u1617hb0cbdeb2bfe40fa0E
00000000008b3830 T _ZN43_$LT$u16$u20$as$u20$core..fmt..num..Int$GT$6to_u3217h6f8bb9d7731b2b52E
00000000008b3860 T _ZN43_$LT$u16$u20$as$u20$core..fmt..num..Int$GT$6to_u6417hac40a3e0d452e5adE
00000000008b3890 T _ZN43_$LT$u16$u20$as$u20$core..fmt..num..Int$GT$7to_u12817h7d5b22afa5074863E
00000000008b38c0 T _ZN43_$LT$u32$u20$as$u20$core..fmt..num..Int$GT$4zero17h26e7e282183750dbE
00000000008b38d0 T _ZN43_$LT$u32$u20$as$u20$core..fmt..num..Int$GT$7from_u817hc289c1740baf95c4E
00000000008b38f0 T _ZN43_$LT$u32$u20$as$u20$core..fmt..num..Int$GT$5to_u817hcef0960ae63e6075E
00000000008b3920 T _ZN43_$LT$u32$u20$as$u20$core..fmt..num..Int$GT$6to_u1617hebd2522d5189708bE
00000000008b3950 T _ZN43_$LT$u32$u20$as$u20$core..fmt..num..Int$GT$6to_u3217he48f8852740dbafaE
00000000008b3980 T _ZN43_$LT$u32$u20$as$u20$core..fmt..num..Int$GT$6to_u6417h5bab4ae4e44ba8d5E
00000000008b39b0 T _ZN43_$LT$u32$u20$as$u20$core..fmt..num..Int$GT$7to_u12817h88c751fa331d7a9eE
00000000008b39e0 T _ZN43_$LT$u64$u20$as$u20$core..fmt..num..Int$GT$4zero17hedaabf43cd56e9ccE
00000000008b39f0 T _ZN43_$LT$u64$u20$as$u20$core..fmt..num..Int$GT$7from_u817hf807b26e0212e93bE
00000000008b3a20 T _ZN43_$LT$u64$u20$as$u20$core..fmt..num..Int$GT$5to_u817h25b0d634222a5e31E
00000000008b3a50 T _ZN43_$LT$u64$u20$as$u20$core..fmt..num..Int$GT$6to_u1617h110aa50a968e6eddE
00000000008b3a80 T _ZN43_$LT$u64$u20$as$u20$core..fmt..num..Int$GT$6to_u3217h3d939ccdc35e5326E
00000000008b3ab0 T _ZN43_$LT$u64$u20$as$u20$core..fmt..num..Int$GT$6to_u6417hd458831c1645244fE
00000000008b3ae0 T _ZN43_$LT$u64$u20$as$u20$core..fmt..num..Int$GT$7to_u12817h3c2b20abdce215faE
00000000008b3b10 T _ZN44_$LT$u128$u20$as$u20$core..fmt..num..Int$GT$4zero17he24083ad7159df68E
00000000008b3b30 T _ZN44_$LT$u128$u20$as$u20$core..fmt..num..Int$GT$7from_u817h6569215c1009e070E
00000000008b3b60 T _ZN44_$LT$u128$u20$as$u20$core..fmt..num..Int$GT$5to_u817hc7832e74ed3aa7bfE
00000000008b3b90 T _ZN44_$LT$u128$u20$as$u20$core..fmt..num..Int$GT$6to_u1617h910e73b2c9eacde8E
00000000008b3bc0 T _ZN44_$LT$u128$u20$as$u20$core..fmt..num..Int$GT$6to_u3217hfd80c66b7f3f67f5E
00000000008b3bf0 T _ZN44_$LT$u128$u20$as$u20$core..fmt..num..Int$GT$6to_u6417hf17e9941a8b0764bE
00000000008b3c20 T _ZN44_$LT$u128$u20$as$u20$core..fmt..num..Int$GT$7to_u12817h9749eb306f137b34E
00000000008b3c50 T _ZN45_$LT$usize$u20$as$u20$core..fmt..num..Int$GT$4zero17h89f11092767d6c28E
00000000008b3c60 T _ZN45_$LT$usize$u20$as$u20$core..fmt..num..Int$GT$7from_u817h813f6f53d2e8a30aE
00000000008b3c90 T _ZN45_$LT$usize$u20$as$u20$core..fmt..num..Int$GT$5to_u817h644ca5c931b1fc57E
00000000008b3cc0 T _ZN45_$LT$usize$u20$as$u20$core..fmt..num..Int$GT$6to_u1617h1ce90f51beadca54E
00000000008b3cf0 T _ZN45_$LT$usize$u20$as$u20$core..fmt..num..Int$GT$6to_u3217h128635cb118bf129E
00000000008b3d20 T _ZN45_$LT$usize$u20$as$u20$core..fmt..num..Int$GT$6to_u6417hd557f6440c806d2eE
00000000008b3d50 T _ZN45_$LT$usize$u20$as$u20$core..fmt..num..Int$GT$7to_u12817hba9ab0d95e054944E
00000000008b3d80 T _ZN71_$LT$core..fmt..num..Binary$u20$as$u20$core..fmt..num..GenericRadix$GT$5digit17hf6b386aac3309fa1E
00000000008b3ee0 T _ZN70_$LT$core..fmt..num..Octal$u20$as$u20$core..fmt..num..GenericRadix$GT$5digit17h9abf34c02a9ee496E
00000000008b4040 T _ZN73_$LT$core..fmt..num..LowerHex$u20$as$u20$core..fmt..num..GenericRadix$GT$5digit17h3a9f4370c2e2789fE
00000000008b4230 T _ZN73_$LT$core..fmt..num..UpperHex$u20$as$u20$core..fmt..num..GenericRadix$GT$5digit17ha960d79fc63401fcE
00000000008b4420 T _ZN4core3fmt3num53_$LT$impl$u20$core..fmt..Binary$u20$for$u20$isize$GT$3fmt17h17db43ebbe6e27b7E
00000000008b4470 T _ZN4core3fmt3num52_$LT$impl$u20$core..fmt..Octal$u20$for$u20$isize$GT$3fmt17h0b0ab80aecc55c2aE
00000000008b44c0 T _ZN4core3fmt3num55_$LT$impl$u20$core..fmt..LowerHex$u20$for$u20$isize$GT$3fmt17h474dd1a03ff84b06E
00000000008b4510 T _ZN4core3fmt3num55_$LT$impl$u20$core..fmt..UpperHex$u20$for$u20$isize$GT$3fmt17h3da5e8a99551eee0E
00000000008b4560 T _ZN4core3fmt3num52_$LT$impl$u20$core..fmt..Debug$u20$for$u20$isize$GT$3fmt17h1f109b2e5df3520bE
00000000008b4600 T _ZN4core3fmt3num53_$LT$impl$u20$core..fmt..Binary$u20$for$u20$usize$GT$3fmt17h7b47fa8ecee0dfd9E
00000000008b4650 T _ZN4core3fmt3num52_$LT$impl$u20$core..fmt..Octal$u20$for$u20$usize$GT$3fmt17hece1a665336d6885E
00000000008b46a0 T _ZN4core3fmt3num55_$LT$impl$u20$core..fmt..LowerHex$u20$for$u20$usize$GT$3fmt17hcff317e31121571fE
00000000008b46f0 T _ZN4core3fmt3num55_$LT$impl$u20$core..fmt..UpperHex$u20$for$u20$usize$GT$3fmt17h8b38bfacb33bf3fbE
00000000008b4740 T _ZN4core3fmt3num52_$LT$impl$u20$core..fmt..Debug$u20$for$u20$usize$GT$3fmt17hd330af623f2248deE
00000000008b47e0 T _ZN4core3fmt3num50_$LT$impl$u20$core..fmt..Binary$u20$for$u20$i8$GT$3fmt17hdb367e03bb98e48eE
00000000008b4830 T _ZN4core3fmt3num49_$LT$impl$u20$core..fmt..Octal$u20$for$u20$i8$GT$3fmt17h4f24b7ca0d287c41E
00000000008b4880 T _ZN4core3fmt3num52_$LT$impl$u20$core..fmt..LowerHex$u20$for$u20$i8$GT$3fmt17h806d088c37f78007E
00000000008b48d0 T _ZN4core3fmt3num52_$LT$impl$u20$core..fmt..UpperHex$u20$for$u20$i8$GT$3fmt17hfca6eef315299eb3E
00000000008b4920 T _ZN4core3fmt3num49_$LT$impl$u20$core..fmt..Debug$u20$for$u20$i8$GT$3fmt17h538628658264ce44E
00000000008b49c0 T _ZN4core3fmt3num50_$LT$impl$u20$core..fmt..Binary$u20$for$u20$u8$GT$3fmt17h705d5042db767681E
00000000008b4a10 T _ZN4core3fmt3num49_$LT$impl$u20$core..fmt..Octal$u20$for$u20$u8$GT$3fmt17he2d038a82fd00feeE
00000000008b4a60 T _ZN4core3fmt3num52_$LT$impl$u20$core..fmt..LowerHex$u20$for$u20$u8$GT$3fmt17h64d4040e2f21bd4bE
00000000008b4ab0 T _ZN4core3fmt3num52_$LT$impl$u20$core..fmt..UpperHex$u20$for$u20$u8$GT$3fmt17h11aafb30cbe65317E
00000000008b4b00 T _ZN4core3fmt3num49_$LT$impl$u20$core..fmt..Debug$u20$for$u20$u8$GT$3fmt17hdaef2afdf480792dE
00000000008b4ba0 T _ZN4core3fmt3num51_$LT$impl$u20$core..fmt..Binary$u20$for$u20$i16$GT$3fmt17h5460af81f27f9a5eE
00000000008b4bf0 T _ZN4core3fmt3num50_$LT$impl$u20$core..fmt..Octal$u20$for$u20$i16$GT$3fmt17h04a81a542be19e2cE
00000000008b4c40 T _ZN4core3fmt3num53_$LT$impl$u20$core..fmt..LowerHex$u20$for$u20$i16$GT$3fmt17hee12de5634690569E
00000000008b4c90 T _ZN4core3fmt3num53_$LT$impl$u20$core..fmt..UpperHex$u20$for$u20$i16$GT$3fmt17h0bb141fb668ec6dfE
00000000008b4ce0 T _ZN4core3fmt3num50_$LT$impl$u20$core..fmt..Debug$u20$for$u20$i16$GT$3fmt17hb280083a20f574a2E
00000000008b4d80 T _ZN4core3fmt3num51_$LT$impl$u20$core..fmt..Binary$u20$for$u20$u16$GT$3fmt17h83cdcfc5b7b91cd0E
00000000008b4dd0 T _ZN4core3fmt3num50_$LT$impl$u20$core..fmt..Octal$u20$for$u20$u16$GT$3fmt17h30ee572c052be62aE
00000000008b4e20 T _ZN4core3fmt3num53_$LT$impl$u20$core..fmt..LowerHex$u20$for$u20$u16$GT$3fmt17hc9e72095cf1126bdE
00000000008b4e70 T _ZN4core3fmt3num53_$LT$impl$u20$core..fmt..UpperHex$u20$for$u20$u16$GT$3fmt17h0c6ba4600b5e2928E
00000000008b4ec0 T _ZN4core3fmt3num50_$LT$impl$u20$core..fmt..Debug$u20$for$u20$u16$GT$3fmt17ha6559a3f67475f57E
00000000008b4f60 T _ZN4core3fmt3num51_$LT$impl$u20$core..fmt..Binary$u20$for$u20$i32$GT$3fmt17ha7aa34bbee9d77c0E
00000000008b4fb0 T _ZN4core3fmt3num50_$LT$impl$u20$core..fmt..Octal$u20$for$u20$i32$GT$3fmt17hf4f65c8fd262ac25E
00000000008b5000 T _ZN4core3fmt3num53_$LT$impl$u20$core..fmt..LowerHex$u20$for$u20$i32$GT$3fmt17hf6408218b5ed6c9eE
00000000008b5050 T _ZN4core3fmt3num53_$LT$impl$u20$core..fmt..UpperHex$u20$for$u20$i32$GT$3fmt17hbb91023634c338daE
00000000008b50a0 T _ZN4core3fmt3num50_$LT$impl$u20$core..fmt..Debug$u20$for$u20$i32$GT$3fmt17h30f5f753350e454cE
00000000008b5140 T _ZN4core3fmt3num51_$LT$impl$u20$core..fmt..Binary$u20$for$u20$u32$GT$3fmt17h08e74eda65504ae3E
00000000008b5190 T _ZN4core3fmt3num50_$LT$impl$u20$core..fmt..Octal$u20$for$u20$u32$GT$3fmt17h18329d78de4ec08cE
00000000008b51e0 T _ZN4core3fmt3num53_$LT$impl$u20$core..fmt..LowerHex$u20$for$u20$u32$GT$3fmt17h871bf9e62db4079fE
00000000008b5230 T _ZN4core3fmt3num53_$LT$impl$u20$core..fmt..UpperHex$u20$for$u20$u32$GT$3fmt17hcc610d41687399b0E
00000000008b5280 T _ZN4core3fmt3num50_$LT$impl$u20$core..fmt..Debug$u20$for$u20$u32$GT$3fmt17h2ef14d825484c5a6E
00000000008b5320 T _ZN4core3fmt3num51_$LT$impl$u20$core..fmt..Binary$u20$for$u20$i64$GT$3fmt17h899f5cacf7d55738E
00000000008b5370 T _ZN4core3fmt3num50_$LT$impl$u20$core..fmt..Octal$u20$for$u20$i64$GT$3fmt17h26c1a66aeb626101E
00000000008b53c0 T _ZN4core3fmt3num53_$LT$impl$u20$core..fmt..LowerHex$u20$for$u20$i64$GT$3fmt17h2952baa33c1baca3E
00000000008b5410 T _ZN4core3fmt3num53_$LT$impl$u20$core..fmt..UpperHex$u20$for$u20$i64$GT$3fmt17hae3302bc9428c342E
00000000008b5460 T _ZN4core3fmt3num50_$LT$impl$u20$core..fmt..Debug$u20$for$u20$i64$GT$3fmt17h6022c55671713abcE
00000000008b5500 T _ZN4core3fmt3num51_$LT$impl$u20$core..fmt..Binary$u20$for$u20$u64$GT$3fmt17h5a4522f6d6268dcaE
00000000008b5550 T _ZN4core3fmt3num50_$LT$impl$u20$core..fmt..Octal$u20$for$u20$u64$GT$3fmt17hd237d73078a08230E
00000000008b55a0 T _ZN4core3fmt3num53_$LT$impl$u20$core..fmt..LowerHex$u20$for$u20$u64$GT$3fmt17h783cdb94acbe78beE
00000000008b55f0 T _ZN4core3fmt3num53_$LT$impl$u20$core..fmt..UpperHex$u20$for$u20$u64$GT$3fmt17h80629b32cc962ad1E
00000000008b5640 T _ZN4core3fmt3num50_$LT$impl$u20$core..fmt..Debug$u20$for$u20$u64$GT$3fmt17h70b0fc04da3036eaE
00000000008b56e0 T _ZN4core3fmt3num52_$LT$impl$u20$core..fmt..Binary$u20$for$u20$i128$GT$3fmt17h68b446c9bbbfdf9fE
00000000008b5730 T _ZN4core3fmt3num51_$LT$impl$u20$core..fmt..Octal$u20$for$u20$i128$GT$3fmt17h9700a3ff705f38ceE
00000000008b5780 T _ZN4core3fmt3num54_$LT$impl$u20$core..fmt..LowerHex$u20$for$u20$i128$GT$3fmt17h4ee5a6322cbfd91dE
00000000008b57d0 T _ZN4core3fmt3num54_$LT$impl$u20$core..fmt..UpperHex$u20$for$u20$i128$GT$3fmt17hb40f6154285c9e62E
00000000008b5820 T _ZN4core3fmt3num52_$LT$impl$u20$core..fmt..Binary$u20$for$u20$u128$GT$3fmt17h2d3d033058370bfcE
00000000008b5870 T _ZN4core3fmt3num51_$LT$impl$u20$core..fmt..Octal$u20$for$u20$u128$GT$3fmt17h652c5c4ae462fe60E
00000000008b58c0 T _ZN4core3fmt3num54_$LT$impl$u20$core..fmt..LowerHex$u20$for$u20$u128$GT$3fmt17hda9412ded7da92f8E
00000000008b5910 T _ZN4core3fmt3num54_$LT$impl$u20$core..fmt..UpperHex$u20$for$u20$u128$GT$3fmt17h0a93397f96ab4858E
00000000008b5960 t _ZN4core3fmt3num8fmt_u12817hd3461f739aaf6f88E
00000000008b60d0 T _ZN4core3fmt3num53_$LT$impl$u20$core..fmt..Display$u20$for$u20$i128$GT$3fmt17h4e07cb392aab5687E
00000000008b61a0 T _ZN4core3fmt3num53_$LT$impl$u20$core..fmt..Display$u20$for$u20$u128$GT$3fmt17h6be766d42e4ca2b4E
00000000008b6270 t _ZN4core3fmt3num8exp_u12817h9af77022552d9928E
00000000008b7130 T _ZN4core3fmt3num54_$LT$impl$u20$core..fmt..LowerExp$u20$for$u20$i128$GT$3fmt17hc9b4373ddc07e583E
00000000008b7210 T _ZN4core3fmt3num54_$LT$impl$u20$core..fmt..LowerExp$u20$for$u20$u128$GT$3fmt17h5c29b5ed84dc26a5E
00000000008b72e0 T _ZN4core3fmt3num54_$LT$impl$u20$core..fmt..UpperExp$u20$for$u20$i128$GT$3fmt17h48947878dd0ded32E
00000000008b73c0 T _ZN4core3fmt3num54_$LT$impl$u20$core..fmt..UpperExp$u20$for$u20$u128$GT$3fmt17h4af2af7e9addbd36E
00000000008b7490 t _ZN4core3num20_$LT$impl$u20$u8$GT$18to_ascii_uppercase17hde99339a97c6ec07E
00000000008b74e0 t _ZN4core3num20_$LT$impl$u20$u8$GT$18to_ascii_lowercase17h2c84a01b8fabdbc7E
00000000008b7530 T _ZN4core3num20_$LT$impl$u20$u8$GT$20make_ascii_uppercase17h06141aab1cc57915E
00000000008b7570 T _ZN4core3num20_$LT$impl$u20$u8$GT$20make_ascii_lowercase17h9ba6387bb515f8ecE
00000000008b75b0 t _ZN4core3num20_$LT$impl$u20$u8$GT$18is_ascii_uppercase17h03610e935f55ce9fE
00000000008b75f0 t _ZN4core3num20_$LT$impl$u20$u8$GT$18is_ascii_lowercase17h19be84bd73c25ff5E
00000000008b7630 T _ZN4core3num15TryFromIntError13__description17hbd8c4b0c92430559E
00000000008b7660 T _ZN65_$LT$core..num..TryFromIntError$u20$as$u20$core..fmt..Display$GT$3fmt17ha499b878e1f0a777E
00000000008b76c0 T _ZN99_$LT$core..num..TryFromIntError$u20$as$u20$core..convert..From$LT$core..convert..Infallible$GT$$GT$4from17h81cc85e8c8fefd01E
00000000008b76d0 T _ZN79_$LT$core..num..TryFromIntError$u20$as$u20$core..convert..From$LT$$u21$$GT$$GT$4from17hdb594e3123cc8edeE
00000000008b76e0 t _ZN4core3num14from_str_radix17h16e20ca32ff6d7a3E
00000000008b7dc0 t _ZN4core3num14from_str_radix17h2fab0209d10ba335E
00000000008b84d0 t _ZN4core3num14from_str_radix17h508d5e3877ca83faE
00000000008b8bb0 t _ZN4core3num14from_str_radix17h642e2a6c0e749732E
00000000008b9350 t _ZN4core3num14from_str_radix17h90809e059c51bdefE
00000000008b9a30 t _ZN4core3num14from_str_radix17h9c40df242a99a86fE
00000000008ba1d0 t _ZN4core3num14from_str_radix17haeb4c9c1c8f8da42E
00000000008ba8e0 t _ZN4core3num14from_str_radix17hafb2dc236f0a518dE
00000000008bafc0 t _ZN4core3num14from_str_radix17hb337f9599819c139E
00000000008bb6b0 t _ZN4core3num14from_str_radix17hd251253900895ed8E
00000000008bbda0 t _ZN4core3num14from_str_radix17hecdfecb9eaeffa3bE
00000000008bc4b0 t _ZN4core3num14from_str_radix17hedbea5619dea9c31E
00000000008bcbc0 T _ZN4core3num13ParseIntError4kind17h6492eb37cb3c71a6E
00000000008bcbe0 T _ZN4core3num13ParseIntError13__description17h642d3ac1225b22c9E
00000000008bcca0 T _ZN63_$LT$core..num..ParseIntError$u20$as$u20$core..fmt..Display$GT$3fmt17h1d8e0cb903ea0d22E
00000000008bcd00 T _ZN50_$LT$T$u20$as$u20$core..convert..From$LT$T$GT$$GT$4from17h00824448f464acfaE
00000000008bcd20 t _ZN4core3num9NonZeroU83new17h44ee6c4da718ee41E
00000000008bcd60 t _ZN4core3num10NonZeroU163new17h6c2e24c515c55147E
00000000008bcdb0 t _ZN4core3num10NonZeroU323new17h327c98d866e832afE
00000000008bcdf0 t _ZN4core3num10NonZeroU643new17hca32165592e48790E
00000000008bce40 t _ZN4core3num11NonZeroU1283new17h70105e5a833fb771E
00000000008bceb0 t _ZN4core3num12NonZeroUsize3new17hcc7dcb0994f21f29E
00000000008bcf00 t _ZN4core3num12NonZeroUsize3get17h92b580760e718642E
00000000008bcf20 t _ZN4core3num9NonZeroI83new17h4ae203219234332aE
00000000008bcf60 t _ZN4core3num10NonZeroI163new17h932a3fa2911bbdeaE
00000000008bcfb0 t _ZN4core3num10NonZeroI323new17habf93649746e4389E
00000000008bcff0 t _ZN4core3num10NonZeroI643new17h84d346fc7bd3e24aE
00000000008bd040 t _ZN4core3num11NonZeroI1283new17hfa611618ab233e42E
00000000008bd0b0 t _ZN4core3num12NonZeroIsize3new17hdb68adfc59059ecaE
00000000008bd100 T _ZN4core3num80_$LT$impl$u20$core..convert..From$LT$core..num..NonZeroU8$GT$$u20$for$u20$u8$GT$4from17hd8284a74cb7d4690E
00000000008bd120 T _ZN4core3num82_$LT$impl$u20$core..convert..From$LT$core..num..NonZeroU16$GT$$u20$for$u20$u16$GT$4from17hcec34bd0c93c78dfE
00000000008bd140 T _ZN4core3num82_$LT$impl$u20$core..convert..From$LT$core..num..NonZeroU32$GT$$u20$for$u20$u32$GT$4from17haee7e1ac4033c909E
00000000008bd160 T _ZN4core3num82_$LT$impl$u20$core..convert..From$LT$core..num..NonZeroU64$GT$$u20$for$u20$u64$GT$4from17h451f77121807502eE
00000000008bd180 T _ZN4core3num84_$LT$impl$u20$core..convert..From$LT$core..num..NonZeroU128$GT$$u20$for$u20$u128$GT$4from17h5b97c1eeb939dce2E
00000000008bd1c0 T _ZN4core3num86_$LT$impl$u20$core..convert..From$LT$core..num..NonZeroUsize$GT$$u20$for$u20$usize$GT$4from17hcf7cd33db85ca659E
00000000008bd1e0 t _ZN60_$LT$core..num..NonZeroUsize$u20$as$u20$core..fmt..Debug$GT$3fmt17hecfc8fee7fbcd64fE
00000000008bd230 T _ZN4core3num80_$LT$impl$u20$core..convert..From$LT$core..num..NonZeroI8$GT$$u20$for$u20$i8$GT$4from17h1ee703ed8580c2cdE
00000000008bd250 T _ZN4core3num82_$LT$impl$u20$core..convert..From$LT$core..num..NonZeroI16$GT$$u20$for$u20$i16$GT$4from17h67aa7e55aa243c7aE
00000000008bd270 T _ZN4core3num82_$LT$impl$u20$core..convert..From$LT$core..num..NonZeroI32$GT$$u20$for$u20$i32$GT$4from17h9358212cce52b70eE
00000000008bd290 T _ZN4core3num82_$LT$impl$u20$core..convert..From$LT$core..num..NonZeroI64$GT$$u20$for$u20$i64$GT$4from17hefebfc0f6b4993bcE
00000000008bd2b0 T _ZN4core3num84_$LT$impl$u20$core..convert..From$LT$core..num..NonZeroI128$GT$$u20$for$u20$i128$GT$4from17hacde0b585aff6cc6E
00000000008bd2f0 T _ZN4core3num86_$LT$impl$u20$core..convert..From$LT$core..num..NonZeroIsize$GT$$u20$for$u20$isize$GT$4from17h07a3bace475d39afE
00000000008bd310 T _ZN59_$LT$core..num..NonZeroU8$u20$as$u20$core..str..FromStr$GT$8from_str17hc3ae8ca8c5af4f47E
00000000008bd3e0 T _ZN60_$LT$core..num..NonZeroU16$u20$as$u20$core..str..FromStr$GT$8from_str17hd1ef43f259cddf61E
00000000008bd4b0 T _ZN60_$LT$core..num..NonZeroU32$u20$as$u20$core..str..FromStr$GT$8from_str17hbda4a5300b36b461E
00000000008bd580 T _ZN60_$LT$core..num..NonZeroU64$u20$as$u20$core..str..FromStr$GT$8from_str17h2db24edd5d4e2725E
00000000008bd640 T _ZN61_$LT$core..num..NonZeroU128$u20$as$u20$core..str..FromStr$GT$8from_str17h88af73555b482b75E
00000000008bd730 T _ZN62_$LT$core..num..NonZeroUsize$u20$as$u20$core..str..FromStr$GT$8from_str17h0f21f150bac57595E
00000000008bd7f0 T _ZN59_$LT$core..num..NonZeroI8$u20$as$u20$core..str..FromStr$GT$8from_str17he15393f202cda5b1E
00000000008bd8c0 T _ZN60_$LT$core..num..NonZeroI16$u20$as$u20$core..str..FromStr$GT$8from_str17h915664d1fe2725c7E
00000000008bd990 T _ZN60_$LT$core..num..NonZeroI32$u20$as$u20$core..str..FromStr$GT$8from_str17hd682bb66b0eca43fE
00000000008bda60 T _ZN60_$LT$core..num..NonZeroI64$u20$as$u20$core..str..FromStr$GT$8from_str17hbc30affa44abd81fE
00000000008bdb20 T _ZN61_$LT$core..num..NonZeroI128$u20$as$u20$core..str..FromStr$GT$8from_str17hf27a63800a611c0dE
00000000008bdc10 T _ZN62_$LT$core..num..NonZeroIsize$u20$as$u20$core..str..FromStr$GT$8from_str17h57bc6b5e48c9cf0fE
00000000008bdcd0 T _ZN4core3num20_$LT$impl$u20$i8$GT$14from_str_radix17he1e236fe0f61691fE
00000000008bdd20 t _ZN4core3num20_$LT$impl$u20$i8$GT$11checked_add17h9f3fe4fcec1dea9eE
00000000008bdd90 t _ZN4core3num20_$LT$impl$u20$i8$GT$11checked_sub17hf59fe77605531d44E
00000000008bde00 t _ZN4core3num20_$LT$impl$u20$i8$GT$11checked_mul17h7a0e545923c6a74cE
00000000008bde70 t _ZN4core3num20_$LT$impl$u20$i8$GT$15overflowing_add17h330da59603bdc132E
00000000008bded0 t _ZN4core3num20_$LT$impl$u20$i8$GT$15overflowing_sub17h9fcc607ee442acc8E
00000000008bdf30 t _ZN4core3num20_$LT$impl$u20$i8$GT$15overflowing_mul17h034d1645a8e9ff12E
00000000008bdf90 T _ZN4core3num21_$LT$impl$u20$i16$GT$14from_str_radix17h8640ffd862d5c562E
00000000008bdfe0 t _ZN4core3num21_$LT$impl$u20$i16$GT$11checked_add17h33f4e4910e8aa252E
00000000008be060 t _ZN4core3num21_$LT$impl$u20$i16$GT$11checked_sub17hcb46d7b96fd24692E
00000000008be0e0 t _ZN4core3num21_$LT$impl$u20$i16$GT$11checked_mul17he171261bf80e4873E
00000000008be160 t _ZN4core3num21_$LT$impl$u20$i16$GT$15overflowing_add17hf1b49caf72966f1aE
00000000008be1d0 t _ZN4core3num21_$LT$impl$u20$i16$GT$15overflowing_sub17h9cf719e0d76112a4E
00000000008be240 t _ZN4core3num21_$LT$impl$u20$i16$GT$15overflowing_mul17h2de5a0d957fedcffE
00000000008be2b0 T _ZN4core3num21_$LT$impl$u20$i16$GT$3abs17h590cca929870d85dE
00000000008be330 t _ZN4core3num21_$LT$impl$u20$i16$GT$11is_negative17hdeea2fcc82b3adbeE
00000000008be360 T _ZN4core3num21_$LT$impl$u20$i32$GT$14from_str_radix17hb0422fb437c61d20E
00000000008be3b0 t _ZN4core3num21_$LT$impl$u20$i32$GT$11checked_add17h8926e63c4a2e2bedE
00000000008be420 t _ZN4core3num21_$LT$impl$u20$i32$GT$11checked_sub17hf440b1145dbb4ec0E
00000000008be490 t _ZN4core3num21_$LT$impl$u20$i32$GT$11checked_mul17h39fb6c7f9b633803E
00000000008be500 t _ZN4core3num21_$LT$impl$u20$i32$GT$15overflowing_add17h52e769e3eba61dfbE
00000000008be560 t _ZN4core3num21_$LT$impl$u20$i32$GT$15overflowing_sub17h9fb252bf97dd167dE
00000000008be5c0 t _ZN4core3num21_$LT$impl$u20$i32$GT$15overflowing_mul17h9cbde51068fa5edaE
00000000008be620 T _ZN4core3num21_$LT$impl$u20$i64$GT$14from_str_radix17h9144f8c3ae1841b4E
00000000008be670 t _ZN4core3num21_$LT$impl$u20$i64$GT$11checked_add17h992c9b838b28acd0E
00000000008be6f0 t _ZN4core3num21_$LT$impl$u20$i64$GT$11checked_sub17h0c6f64978d890786E
00000000008be770 t _ZN4core3num21_$LT$impl$u20$i64$GT$11checked_mul17h188f80bb4cf6559bE
00000000008be7f0 t _ZN4core3num21_$LT$impl$u20$i64$GT$15overflowing_add17h23770b373ce11e76E
00000000008be860 t _ZN4core3num21_$LT$impl$u20$i64$GT$15overflowing_sub17h0c333c71fce5f632E
00000000008be8d0 t _ZN4core3num21_$LT$impl$u20$i64$GT$15overflowing_mul17h329cca987b99064dE
00000000008be940 T _ZN4core3num21_$LT$impl$u20$i64$GT$3abs17h995023b2b155c2a3E
00000000008be9c0 t _ZN4core3num21_$LT$impl$u20$i64$GT$11is_negative17h0848906d89b6fbf9E
00000000008be9f0 T _ZN4core3num22_$LT$impl$u20$i128$GT$14from_str_radix17hfa5e39c2fe4a70fbE
00000000008bea40 t _ZN4core3num22_$LT$impl$u20$i128$GT$11checked_add17h93dc0837a1042a5fE
00000000008beb10 t _ZN4core3num22_$LT$impl$u20$i128$GT$11checked_sub17h2dc699256de24ce3E
00000000008bebe0 t _ZN4core3num22_$LT$impl$u20$i128$GT$11checked_mul17h71fbc92f0fb7d9b5E
00000000008becb0 t _ZN4core3num22_$LT$impl$u20$i128$GT$15overflowing_add17h50d0336ca586cb9dE
00000000008beda0 t _ZN4core3num22_$LT$impl$u20$i128$GT$15overflowing_sub17h9629c34347c65a9aE
00000000008bee90 t _ZN4core3num22_$LT$impl$u20$i128$GT$15overflowing_mul17h29d982e16b73031bE
00000000008bef70 T _ZN4core3num23_$LT$impl$u20$isize$GT$14from_str_radix17ha441dcafc876cecaE
00000000008befc0 t _ZN4core3num23_$LT$impl$u20$isize$GT$11checked_add17hb7ad24a4ce3e8b27E
00000000008bf040 t _ZN4core3num23_$LT$impl$u20$isize$GT$11checked_sub17h9d9c4ccdeb95c7f3E
00000000008bf0c0 t _ZN4core3num23_$LT$impl$u20$isize$GT$11checked_mul17h3716a4c4e921e9d7E
00000000008bf140 t _ZN4core3num23_$LT$impl$u20$isize$GT$15overflowing_add17h1510884bc34781f9E
00000000008bf1b0 t _ZN4core3num23_$LT$impl$u20$isize$GT$15overflowing_sub17h252b1a678aa1017dE
00000000008bf220 t _ZN4core3num23_$LT$impl$u20$isize$GT$15overflowing_mul17h5c7fd20a7129ed28E
00000000008bf290 t _ZN4core3num20_$LT$impl$u20$u8$GT$15overflowing_mul17h019d61dfad30b7a6E
00000000008bf2f0 t _ZN4core3num20_$LT$impl$u20$u8$GT$31one_less_than_next_power_of_two17hc167655101626208E
00000000008bf3a0 T _ZN4core3num20_$LT$impl$u20$u8$GT$14from_str_radix17he4bd6881e8e9ab70E
00000000008bf3f0 t _ZN4core3num20_$LT$impl$u20$u8$GT$11checked_add17h468a95562bca6dceE
00000000008bf460 t _ZN4core3num20_$LT$impl$u20$u8$GT$11checked_sub17h29c1577cebcdaf15E
00000000008bf4d0 t _ZN4core3num20_$LT$impl$u20$u8$GT$11checked_mul17hf3855bc86e3bf533E
00000000008bf540 t _ZN4core3num20_$LT$impl$u20$u8$GT$12wrapping_add17h3a4bccb01dfe1b3bE
00000000008bf580 t _ZN4core3num20_$LT$impl$u20$u8$GT$15overflowing_add17h25cd4cfe3318576dE
00000000008bf5e0 t _ZN4core3num20_$LT$impl$u20$u8$GT$15overflowing_sub17h659bc39056eba170E
00000000008bf640 T _ZN4core3num20_$LT$impl$u20$u8$GT$26wrapping_next_power_of_two17h21874775e4f2f03bE
00000000008bf680 t _ZN4core3num21_$LT$impl$u20$u16$GT$15overflowing_mul17hf2c8cc986c42b852E
00000000008bf6f0 t _ZN4core3num21_$LT$impl$u20$u16$GT$31one_less_than_next_power_of_two17h195a525603ce7252E
00000000008bf7c0 T _ZN4core3num21_$LT$impl$u20$u16$GT$14from_str_radix17hb887514e0985ef46E
00000000008bf810 t _ZN4core3num21_$LT$impl$u20$u16$GT$11checked_add17h15c44df986aa6707E
00000000008bf890 t _ZN4core3num21_$LT$impl$u20$u16$GT$11checked_sub17hd1d5350218a9470dE
00000000008bf910 t _ZN4core3num21_$LT$impl$u20$u16$GT$11checked_mul17hc5e204f09188e3acE
00000000008bf990 t _ZN4core3num21_$LT$impl$u20$u16$GT$12wrapping_add17hda49b7cee59357b0E
00000000008bf9d0 t _ZN4core3num21_$LT$impl$u20$u16$GT$15overflowing_add17ha18a482f7713f5feE
00000000008bfa40 t _ZN4core3num21_$LT$impl$u20$u16$GT$15overflowing_sub17hac935aa7847655d4E
00000000008bfab0 T _ZN4core3num21_$LT$impl$u20$u16$GT$26wrapping_next_power_of_two17hd693ce06c2006e78E
00000000008bfb00 t _ZN4core3num21_$LT$impl$u20$u32$GT$15overflowing_mul17h0a5eb63401f62e37E
00000000008bfb60 t _ZN4core3num21_$LT$impl$u20$u32$GT$31one_less_than_next_power_of_two17h5f0db8a48469ee93E
00000000008bfc20 T _ZN4core3num21_$LT$impl$u20$u32$GT$14from_str_radix17h4bc080e46cf501e9E
00000000008bfc70 T _ZN4core3num21_$LT$impl$u20$u32$GT$13leading_zeros17h0b44723206c398f5E
00000000008bfcb0 t _ZN4core3num21_$LT$impl$u20$u32$GT$11checked_add17h457b26803c748eabE
00000000008bfd20 t _ZN4core3num21_$LT$impl$u20$u32$GT$11checked_sub17h6fca856dc3e4ef25E
00000000008bfd90 t _ZN4core3num21_$LT$impl$u20$u32$GT$11checked_mul17h0884e5261504d751E
00000000008bfe00 t _ZN4core3num21_$LT$impl$u20$u32$GT$12wrapping_add17h7ef1308e602c4ea0E
00000000008bfe40 t _ZN4core3num21_$LT$impl$u20$u32$GT$15overflowing_add17h396eeb3a4b733f16E
00000000008bfea0 t _ZN4core3num21_$LT$impl$u20$u32$GT$15overflowing_sub17hfc0c4ed613765575E
00000000008bff00 T _ZN4core3num21_$LT$impl$u20$u32$GT$26wrapping_next_power_of_two17hb39a6db049813b6dE
00000000008bff40 t _ZN4core3num21_$LT$impl$u20$u64$GT$15overflowing_mul17h2425c3ba8a05b8e5E
00000000008bffb0 t _ZN4core3num21_$LT$impl$u20$u64$GT$31one_less_than_next_power_of_two17hb304a15650257cf1E
00000000008c0090 T _ZN4core3num21_$LT$impl$u20$u64$GT$14from_str_radix17h0ad6896bb9ec3c45E
00000000008c00e0 T _ZN4core3num21_$LT$impl$u20$u64$GT$13leading_zeros17h835058716f18a0c9E
00000000008c0130 T _ZN4core3num21_$LT$impl$u20$u64$GT$11rotate_left17hb5a9c17495a0eb74E
00000000008c0180 T _ZN4core3num21_$LT$impl$u20$u64$GT$11checked_add17h8d6a65cca9b17adcE
00000000008c0200 T _ZN4core3num21_$LT$impl$u20$u64$GT$11checked_sub17h2c2bdad237fb694bE
00000000008c0280 T _ZN4core3num21_$LT$impl$u20$u64$GT$11checked_mul17h17cef2b0ea2a36f0E
00000000008c0300 T _ZN4core3num21_$LT$impl$u20$u64$GT$12wrapping_add17h3d17d7dbdf41249fE
00000000008c0340 t _ZN4core3num21_$LT$impl$u20$u64$GT$15overflowing_add17hd0830b36716c6971E
00000000008c03b0 t _ZN4core3num21_$LT$impl$u20$u64$GT$15overflowing_sub17h1b5071c4a89602edE
00000000008c0420 T _ZN4core3num21_$LT$impl$u20$u64$GT$26wrapping_next_power_of_two17h19091fe8d5d6c668E
00000000008c0470 t _ZN4core3num22_$LT$impl$u20$u128$GT$15overflowing_mul17h9bd3b097e77fc100E
00000000008c0580 t _ZN4core3num22_$LT$impl$u20$u128$GT$31one_less_than_next_power_of_two17h5ed57a4f0e5e3b83E
00000000008c06f0 T _ZN4core3num22_$LT$impl$u20$u128$GT$14from_str_radix17h9932cdb9524614a0E
00000000008c0740 t _ZN4core3num22_$LT$impl$u20$u128$GT$11checked_add17hc42214bb62959c65E
00000000008c0810 t _ZN4core3num22_$LT$impl$u20$u128$GT$11checked_sub17hcfabbe0898f122dbE
00000000008c08e0 t _ZN4core3num22_$LT$impl$u20$u128$GT$11checked_mul17hcb7933a6b14e3835E
00000000008c09b0 T _ZN4core3num22_$LT$impl$u20$u128$GT$12wrapping_add17h06b0e8e1976524feE
00000000008c0a20 t _ZN4core3num22_$LT$impl$u20$u128$GT$15overflowing_add17h8ac5b137bc6bed82E
00000000008c0ae0 t _ZN4core3num22_$LT$impl$u20$u128$GT$15overflowing_sub17h34e03c246eb27907E
00000000008c0ba0 T _ZN4core3num22_$LT$impl$u20$u128$GT$26wrapping_next_power_of_two17h61c887d15db295c9E
00000000008c0c10 T _ZN4core3num23_$LT$impl$u20$usize$GT$12wrapping_mul17h8801409808aca594E
00000000008c0c50 t _ZN4core3num23_$LT$impl$u20$usize$GT$15overflowing_mul17hd502da73935c4326E
00000000008c0cc0 t _ZN4core3num23_$LT$impl$u20$usize$GT$31one_less_than_next_power_of_two17h8015a9636a114ce8E
00000000008c0da0 T _ZN4core3num23_$LT$impl$u20$usize$GT$14from_str_radix17h5c0b7649b1dc3770E
00000000008c0df0 t _ZN4core3num23_$LT$impl$u20$usize$GT$10count_ones17h187401c3f63bde7cE
00000000008c0e80 T _ZN4core3num23_$LT$impl$u20$usize$GT$14trailing_zeros17h04a894a84e7ce090E
00000000008c0ec0 t _ZN4core3num23_$LT$impl$u20$usize$GT$11checked_add17h7839dc53b5055108E
00000000008c0f40 T _ZN4core3num23_$LT$impl$u20$usize$GT$13unchecked_add17h6e2c3bfc1a0b0c0dE
00000000008c0f80 T _ZN4core3num23_$LT$impl$u20$usize$GT$11checked_sub17h3204b63745abf799E
00000000008c1000 T _ZN4core3num23_$LT$impl$u20$usize$GT$11checked_mul17h2bb6f08f63d5a016E
00000000008c1080 T _ZN4core3num23_$LT$impl$u20$usize$GT$14saturating_sub17h8c33e88c63e844f2E
00000000008c10d0 T _ZN4core3num23_$LT$impl$u20$usize$GT$14saturating_mul17h6d4543a72dcc61ebE
00000000008c1140 t _ZN4core3num23_$LT$impl$u20$usize$GT$12wrapping_add17hc6a2b1346c53c20fE
00000000008c1180 T _ZN4core3num23_$LT$impl$u20$usize$GT$12wrapping_sub17hda0c1a9199d52d86E
00000000008c11c0 t _ZN4core3num23_$LT$impl$u20$usize$GT$15overflowing_add17h224aaa59412bd699E
00000000008c1230 t _ZN4core3num23_$LT$impl$u20$usize$GT$15overflowing_sub17h15eea9a093bcb776E
00000000008c12a0 T _ZN4core3num23_$LT$impl$u20$usize$GT$15is_power_of_two17ha8fd484ac52f15f1E
00000000008c12e0 T _ZN4core3num23_$LT$impl$u20$usize$GT$26wrapping_next_power_of_two17h3ac7c0f8d5cf07ccE
00000000008c1330 T _ZN58_$LT$core..num..FpCategory$u20$as$u20$core..fmt..Debug$GT$3fmt17h5468aa94d01d7f45E
00000000008c14c0 T _ZN4core3num54_$LT$impl$u20$core..str..FromStr$u20$for$u20$isize$GT$8from_str17h964f279a3b580700E
00000000008c1520 T _ZN4core3num51_$LT$impl$u20$core..str..FromStr$u20$for$u20$i8$GT$8from_str17hb391e2b9e5e76010E
00000000008c1570 T _ZN4core3num52_$LT$impl$u20$core..str..FromStr$u20$for$u20$i16$GT$8from_str17h6216684ddae66ba1E
00000000008c15c0 T _ZN4core3num52_$LT$impl$u20$core..str..FromStr$u20$for$u20$i32$GT$8from_str17hdecd66ae6775afd1E
00000000008c1610 T _ZN4core3num52_$LT$impl$u20$core..str..FromStr$u20$for$u20$i64$GT$8from_str17hc8d77b684c39a051E
00000000008c1670 T _ZN4core3num53_$LT$impl$u20$core..str..FromStr$u20$for$u20$i128$GT$8from_str17h8e511d256423b519E
00000000008c16d0 T _ZN4core3num54_$LT$impl$u20$core..str..FromStr$u20$for$u20$usize$GT$8from_str17h82ade1f39b81e9a8E
00000000008c1730 T _ZN4core3num51_$LT$impl$u20$core..str..FromStr$u20$for$u20$u8$GT$8from_str17h7561e48af221c3b0E
00000000008c1780 T _ZN4core3num52_$LT$impl$u20$core..str..FromStr$u20$for$u20$u16$GT$8from_str17h26fc9d2a31dc2f21E
00000000008c17d0 T _ZN4core3num52_$LT$impl$u20$core..str..FromStr$u20$for$u20$u32$GT$8from_str17hc1f6912eaddd170cE
00000000008c1820 T _ZN4core3num52_$LT$impl$u20$core..str..FromStr$u20$for$u20$u64$GT$8from_str17he8905e2434823b9fE
00000000008c1880 T _ZN4core3num53_$LT$impl$u20$core..str..FromStr$u20$for$u20$u128$GT$8from_str17hd4cbd29cb3e0234cE
00000000008c18e0 T _ZN63_$LT$core..num..TryFromIntError$u20$as$u20$core..fmt..Debug$GT$3fmt17h755fda06fae6a9b1E
00000000008c1970 t _ZN52_$LT$i8$u20$as$u20$core..num..FromStrRadixHelper$GT$9min_value17hc66b028309e5bd87E
00000000008c1980 t _ZN52_$LT$i8$u20$as$u20$core..num..FromStrRadixHelper$GT$8from_u3217h73559309481dcac4E
00000000008c19a0 t _ZN52_$LT$i8$u20$as$u20$core..num..FromStrRadixHelper$GT$11checked_mul17hc47a8d4054690a37E
00000000008c19f0 t _ZN52_$LT$i8$u20$as$u20$core..num..FromStrRadixHelper$GT$11checked_sub17h3411f313f45352d9E
00000000008c1a40 t _ZN52_$LT$i8$u20$as$u20$core..num..FromStrRadixHelper$GT$11checked_add17h46bd93d49eca7412E
00000000008c1a90 t _ZN53_$LT$i16$u20$as$u20$core..num..FromStrRadixHelper$GT$9min_value17he23b7b1f08f6c57eE
00000000008c1aa0 t _ZN53_$LT$i16$u20$as$u20$core..num..FromStrRadixHelper$GT$8from_u3217hc102e461b9d3a3a9E
00000000008c1ad0 t _ZN53_$LT$i16$u20$as$u20$core..num..FromStrRadixHelper$GT$11checked_mul17h1ee2a614070193a9E
00000000008c1b20 t _ZN53_$LT$i16$u20$as$u20$core..num..FromStrRadixHelper$GT$11checked_sub17h3bf4a4132f7eae18E
00000000008c1b70 t _ZN53_$LT$i16$u20$as$u20$core..num..FromStrRadixHelper$GT$11checked_add17h439b1676cbc1ff59E
00000000008c1bc0 t _ZN53_$LT$i32$u20$as$u20$core..num..FromStrRadixHelper$GT$9min_value17h92498bff640a61f7E
00000000008c1bd0 t _ZN53_$LT$i32$u20$as$u20$core..num..FromStrRadixHelper$GT$8from_u3217hd0865cd90b37795dE
00000000008c1bf0 t _ZN53_$LT$i32$u20$as$u20$core..num..FromStrRadixHelper$GT$11checked_mul17haa9dd67d45f4662eE
00000000008c1c30 t _ZN53_$LT$i32$u20$as$u20$core..num..FromStrRadixHelper$GT$11checked_sub17h4c3e82925ce2b61bE
00000000008c1c70 t _ZN53_$LT$i32$u20$as$u20$core..num..FromStrRadixHelper$GT$11checked_add17h8b27edc680682a7eE
00000000008c1cb0 t _ZN53_$LT$i64$u20$as$u20$core..num..FromStrRadixHelper$GT$9min_value17h7e31b98bebb46133E
00000000008c1cd0 t _ZN53_$LT$i64$u20$as$u20$core..num..FromStrRadixHelper$GT$8from_u3217hed59d6c4cd65f033E
00000000008c1d00 t _ZN53_$LT$i64$u20$as$u20$core..num..FromStrRadixHelper$GT$11checked_mul17h41facf51187a8d3fE
00000000008c1d50 t _ZN53_$LT$i64$u20$as$u20$core..num..FromStrRadixHelper$GT$11checked_sub17hf4368b4dbb2c3a89E
00000000008c1da0 t _ZN53_$LT$i64$u20$as$u20$core..num..FromStrRadixHelper$GT$11checked_add17h8fc929919019549dE
00000000008c1df0 t _ZN54_$LT$i128$u20$as$u20$core..num..FromStrRadixHelper$GT$9min_value17hbccc03d1f8ba9e26E
00000000008c1e10 t _ZN54_$LT$i128$u20$as$u20$core..num..FromStrRadixHelper$GT$8from_u3217h6ac35f90617f6226E
00000000008c1e40 t _ZN54_$LT$i128$u20$as$u20$core..num..FromStrRadixHelper$GT$11checked_mul17ha9a45edd5d38285fE
00000000008c1ea0 t _ZN54_$LT$i128$u20$as$u20$core..num..FromStrRadixHelper$GT$11checked_sub17hde7a912329ba017dE
00000000008c1f00 t _ZN54_$LT$i128$u20$as$u20$core..num..FromStrRadixHelper$GT$11checked_add17hed66e871bee6145aE
00000000008c1f60 t _ZN55_$LT$isize$u20$as$u20$core..num..FromStrRadixHelper$GT$9min_value17ha52d7139503c451bE
00000000008c1f80 t _ZN55_$LT$isize$u20$as$u20$core..num..FromStrRadixHelper$GT$8from_u3217hf511a3d4afc3cd0cE
00000000008c1fb0 t _ZN55_$LT$isize$u20$as$u20$core..num..FromStrRadixHelper$GT$11checked_mul17h30a96f0715b217baE
00000000008c2000 t _ZN55_$LT$isize$u20$as$u20$core..num..FromStrRadixHelper$GT$11checked_sub17hee6c95cc25efbf47E
00000000008c2050 t _ZN55_$LT$isize$u20$as$u20$core..num..FromStrRadixHelper$GT$11checked_add17h969197797478e9bcE
00000000008c20a0 t _ZN52_$LT$u8$u20$as$u20$core..num..FromStrRadixHelper$GT$9min_value17haa10a0aec8203d78E
00000000008c20b0 t _ZN52_$LT$u8$u20$as$u20$core..num..FromStrRadixHelper$GT$8from_u3217h3c1107fc4b131b4eE
00000000008c20d0 t _ZN52_$LT$u8$u20$as$u20$core..num..FromStrRadixHelper$GT$11checked_mul17h1a14f5760e48848aE
00000000008c2120 t _ZN52_$LT$u8$u20$as$u20$core..num..FromStrRadixHelper$GT$11checked_sub17h6924d51f291ae35eE
00000000008c2170 t _ZN52_$LT$u8$u20$as$u20$core..num..FromStrRadixHelper$GT$11checked_add17hfbb5516e738a7748E
00000000008c21c0 t _ZN53_$LT$u16$u20$as$u20$core..num..FromStrRadixHelper$GT$9min_value17h89a9df8724c5607aE
00000000008c21d0 t _ZN53_$LT$u16$u20$as$u20$core..num..FromStrRadixHelper$GT$8from_u3217h3e1528ecd75bf785E
00000000008c2200 t _ZN53_$LT$u16$u20$as$u20$core..num..FromStrRadixHelper$GT$11checked_mul17hceac4f44f8664532E
00000000008c2250 t _ZN53_$LT$u16$u20$as$u20$core..num..FromStrRadixHelper$GT$11checked_sub17h9e746cfbe83bf47bE
00000000008c22a0 t _ZN53_$LT$u16$u20$as$u20$core..num..FromStrRadixHelper$GT$11checked_add17hf5cc26bf63ca4746E
00000000008c22f0 t _ZN53_$LT$u32$u20$as$u20$core..num..FromStrRadixHelper$GT$9min_value17h2c3646528e984095E
00000000008c2300 t _ZN53_$LT$u32$u20$as$u20$core..num..FromStrRadixHelper$GT$8from_u3217hbff17da07e39990bE
00000000008c2320 t _ZN53_$LT$u32$u20$as$u20$core..num..FromStrRadixHelper$GT$11checked_mul17haefc04eeb0f10814E
00000000008c2360 t _ZN53_$LT$u32$u20$as$u20$core..num..FromStrRadixHelper$GT$11checked_sub17hab9f8407e178480eE
00000000008c23a0 t _ZN53_$LT$u32$u20$as$u20$core..num..FromStrRadixHelper$GT$11checked_add17he22b5633808f6b9aE
00000000008c23e0 t _ZN53_$LT$u64$u20$as$u20$core..num..FromStrRadixHelper$GT$9min_value17had85d4b914763e74E
00000000008c23f0 t _ZN53_$LT$u64$u20$as$u20$core..num..FromStrRadixHelper$GT$8from_u3217h7afec1e3d0e665b3E
00000000008c2420 t _ZN53_$LT$u64$u20$as$u20$core..num..FromStrRadixHelper$GT$11checked_mul17h4625c84b9f3a2df1E
00000000008c2470 t _ZN53_$LT$u64$u20$as$u20$core..num..FromStrRadixHelper$GT$11checked_sub17hcd39f1916dedccb8E
00000000008c24c0 t _ZN53_$LT$u64$u20$as$u20$core..num..FromStrRadixHelper$GT$11checked_add17h3c71ee154053208bE
00000000008c2510 t _ZN54_$LT$u128$u20$as$u20$core..num..FromStrRadixHelper$GT$9min_value17heffe73f7670d34ccE
00000000008c2530 t _ZN54_$LT$u128$u20$as$u20$core..num..FromStrRadixHelper$GT$8from_u3217h8bcd451fbf0c9887E
00000000008c2560 t _ZN54_$LT$u128$u20$as$u20$core..num..FromStrRadixHelper$GT$11checked_mul17h5778f5c3960a4140E
00000000008c25c0 t _ZN54_$LT$u128$u20$as$u20$core..num..FromStrRadixHelper$GT$11checked_sub17h5285d22834358503E
00000000008c2620 t _ZN54_$LT$u128$u20$as$u20$core..num..FromStrRadixHelper$GT$11checked_add17h83ef8325937dc238E
00000000008c2680 t _ZN55_$LT$usize$u20$as$u20$core..num..FromStrRadixHelper$GT$9min_value17h0fb231cc31befc99E
00000000008c2690 t _ZN55_$LT$usize$u20$as$u20$core..num..FromStrRadixHelper$GT$8from_u3217h634903e48e5c5c10E
00000000008c26c0 t _ZN55_$LT$usize$u20$as$u20$core..num..FromStrRadixHelper$GT$11checked_mul17h2fa5a4a47d2ed8f8E
00000000008c2710 t _ZN55_$LT$usize$u20$as$u20$core..num..FromStrRadixHelper$GT$11checked_sub17h2f56750e64840bc6E
00000000008c2760 t _ZN55_$LT$usize$u20$as$u20$core..num..FromStrRadixHelper$GT$11checked_add17hb3b813b6a5ca3a34E
00000000008c27b0 T _ZN61_$LT$core..num..ParseIntError$u20$as$u20$core..fmt..Debug$GT$3fmt17hd8680fd645bf1c2eE
00000000008c2860 T _ZN60_$LT$core..num..IntErrorKind$u20$as$u20$core..fmt..Debug$GT$3fmt17h440e4953e5f326e1E
00000000008c29f0 T _ZN42_$LT$$RF$T$u20$as$u20$core..fmt..Debug$GT$3fmt17h8bc3e0814b32af52E
00000000008c2a40 T _ZN42_$LT$$RF$T$u20$as$u20$core..fmt..Debug$GT$3fmt17hb8d65db335238303E
00000000008c2a90 T _ZN4core3f3221_$LT$impl$u20$f32$GT$8classify17h237e8a36cd35ac89E
00000000008c2b20 T _ZN4core3f3221_$LT$impl$u20$f32$GT$7to_bits17hbf3e0c20f26473b0E
00000000008c2b50 T _ZN4core3f3221_$LT$impl$u20$f32$GT$9from_bits17h13b337f405517dd7E
00000000008c2b80 T _ZN4core3f6421_$LT$impl$u20$f64$GT$8classify17h99571576aea850faE
00000000008c2c40 T _ZN4core3f6421_$LT$impl$u20$f64$GT$7to_bits17h4ec1d92739b6a5a3E
00000000008c2c80 T _ZN4core3f6421_$LT$impl$u20$f64$GT$9from_bits17hc0fa4ab72093608dE
00000000008c2cc0 T _ZN4core3ptr9const_ptr33_$LT$impl$u20$$BP$const$u20$T$GT$7is_null17h255c69e91122e7c9E
00000000008c2d00 T _ZN4core3ptr9const_ptr33_$LT$impl$u20$$BP$const$u20$T$GT$7is_null17h59be7c8ecb883e13E
00000000008c2d40 T _ZN4core3ptr9const_ptr33_$LT$impl$u20$$BP$const$u20$T$GT$7is_null17hbc12c5f4e773b268E
00000000008c2d80 T _ZN4core3ptr9const_ptr33_$LT$impl$u20$$BP$const$u20$T$GT$6offset17h1592ff9ecc543e93E
00000000008c2dd0 T _ZN4core3ptr9const_ptr33_$LT$impl$u20$$BP$const$u20$T$GT$6offset17haa9b00bf867d179aE
00000000008c2e10 T _ZN4core3ptr9const_ptr33_$LT$impl$u20$$BP$const$u20$T$GT$3add17hb3bf513f73a3df4fE
00000000008c2e50 T _ZN4core3ptr9const_ptr33_$LT$impl$u20$$BP$const$u20$T$GT$3add17hc55b7e951063b386E
00000000008c2e90 T _ZN4core3ptr7mut_ptr31_$LT$impl$u20$$BP$mut$u20$T$GT$7is_null17haa8f0b209e790601E
00000000008c2ed0 T _ZN4core3ptr7mut_ptr31_$LT$impl$u20$$BP$mut$u20$T$GT$6offset17h276f29face433024E
00000000008c2f20 T _ZN4core3ptr7mut_ptr31_$LT$impl$u20$$BP$mut$u20$T$GT$6offset17h8ee92d74a84a146aE
00000000008c2f60 T _ZN4core3ptr7mut_ptr31_$LT$impl$u20$$BP$mut$u20$T$GT$3add17h2e98879a7508197cE
00000000008c2fa0 T _ZN4core3ptr7mut_ptr31_$LT$impl$u20$$BP$mut$u20$T$GT$3add17h3aa9865f549b2afdE
00000000008c2fe0 T _ZN50_$LT$T$u20$as$u20$core..convert..Into$LT$U$GT$$GT$4into17h2ce444f1606350b7E
00000000008c3010 T _ZN50_$LT$T$u20$as$u20$core..convert..Into$LT$U$GT$$GT$4into17h439bc43da8683a40E
00000000008c3040 T _ZN50_$LT$T$u20$as$u20$core..convert..From$LT$T$GT$$GT$4from17h32d455db8afc676eE
00000000008c3060 T _ZN50_$LT$T$u20$as$u20$core..convert..From$LT$T$GT$$GT$4from17h4e04e44fbc09921bE
00000000008c3080 T _ZN50_$LT$T$u20$as$u20$core..convert..From$LT$T$GT$$GT$4from17h4e9aaaa411f6cb85E
00000000008c30a0 T _ZN53_$LT$T$u20$as$u20$core..convert..TryInto$LT$U$GT$$GT$8try_into17h8823e5c4a31b4459E
00000000008c30d0 T _ZN53_$LT$T$u20$as$u20$core..convert..TryInto$LT$U$GT$$GT$8try_into17hd4b00d90de302981E
00000000008c3110 T _ZN53_$LT$T$u20$as$u20$core..convert..TryFrom$LT$U$GT$$GT$8try_from17h3331fa184633cc97E
00000000008c3150 T _ZN53_$LT$T$u20$as$u20$core..convert..TryFrom$LT$U$GT$$GT$8try_from17hf1117d1ae8d99352E
00000000008c3190 T _ZN64_$LT$core..convert..Infallible$u20$as$u20$core..clone..Clone$GT$5clone17h14fea410c8c0cce8E
00000000008c31b0 T _ZN62_$LT$core..convert..Infallible$u20$as$u20$core..fmt..Debug$GT$3fmt17hc4e6f93b2d3cb36aE
00000000008c31e0 T _ZN64_$LT$core..convert..Infallible$u20$as$u20$core..fmt..Display$GT$3fmt17hc797324afa9e49c4E
00000000008c3210 T _ZN66_$LT$core..convert..Infallible$u20$as$u20$core..cmp..PartialEq$GT$2eq17h77905b5e815236c4E
00000000008c3240 T _ZN67_$LT$core..convert..Infallible$u20$as$u20$core..cmp..PartialOrd$GT$11partial_cmp17h09605f56f936a1c4E
00000000008c3270 T _ZN60_$LT$core..convert..Infallible$u20$as$u20$core..cmp..Ord$GT$3cmp17h035c24f2274d42a9E
00000000008c32a0 T _ZN78_$LT$core..convert..Infallible$u20$as$u20$core..convert..From$LT$$u21$$GT$$GT$4from17h712a2515d6dd6c97E
00000000008c32b0 T _ZN64_$LT$core..ops..range..RangeFull$u20$as$u20$core..fmt..Debug$GT$3fmt17h3ed3bc61a4338a6bE
00000000008c3320 T _ZN71_$LT$core..ops..range..Range$LT$Idx$GT$$u20$as$u20$core..fmt..Debug$GT$3fmt17hbf06700335c3dc9bE
00000000008c34b0 T _ZN36_$LT$T$u20$as$u20$core..any..Any$GT$7type_id17h508c1738dc671c7aE
00000000008c34e0 T _ZN4core4char7convert8from_u3217hf5809cd501913ef7E
00000000008c3520 T _ZN4core4char7convert18from_u32_unchecked17he658c896ea200728E
00000000008c3570 T _ZN4core4char7convert14ParseCharError13__description17h527a00d02aa04d4eE
00000000008c35e0 T _ZN74_$LT$core..char..convert..ParseCharError$u20$as$u20$core..fmt..Display$GT$3fmt17h77eef2105a043879E
00000000008c3640 t _ZN4core4char7convert68_$LT$impl$u20$core..convert..TryFrom$LT$u32$GT$$u20$for$u20$char$GT$8try_from17hb74b5e9772ab83ebE
00000000008c36d0 T _ZN76_$LT$core..char..convert..CharTryFromError$u20$as$u20$core..fmt..Display$GT$3fmt17hf5b791602010c886E
00000000008c3720 T _ZN4core4char7convert10from_digit17h53f20b98d2aadec3E
00000000008c3810 T _ZN4core4iter8adapters5chain18Chain$LT$A$C$B$GT$3new17h24fda69e6de50225E
00000000008c3950 T _ZN4core4iter8adapters5chain18Chain$LT$A$C$B$GT$3new17hd89144566a72b961E
00000000008c39e0 T _ZN106_$LT$core..iter..adapters..chain..Chain$LT$A$C$B$GT$$u20$as$u20$core..iter..traits..iterator..Iterator$GT$4next17h7d83d3d947b0c413E
00000000008c3b40 T _ZN106_$LT$core..iter..adapters..chain..Chain$LT$A$C$B$GT$$u20$as$u20$core..iter..traits..iterator..Iterator$GT$8try_fold17h472f9827be16780bE
00000000008c3d10 T _ZN4core4iter5range101_$LT$impl$u20$core..iter..traits..iterator..Iterator$u20$for$u20$core..ops..range..Range$LT$A$GT$$GT$4next17hceefd498f5f537e0E
00000000008c3db0 T _ZN4core4iter5range101_$LT$impl$u20$core..iter..traits..iterator..Iterator$u20$for$u20$core..ops..range..Range$LT$A$GT$$GT$9size_hint17h09264a24f21b5680E
00000000008c3e90 T _ZN4core4iter5range116_$LT$impl$u20$core..iter..traits..double_ended..DoubleEndedIterator$u20$for$u20$core..ops..range..Range$LT$A$GT$$GT$9next_back17h69c84c229e92d4beE
00000000008c3f40 T _ZN63_$LT$I$u20$as$u20$core..iter..traits..collect..IntoIterator$GT$9into_iter17h30ff0358ef94ce15E
00000000008c3f90 T _ZN63_$LT$I$u20$as$u20$core..iter..traits..collect..IntoIterator$GT$9into_iter17ha78074b5335609f3E
00000000008c3fc0 T _ZN4core4iter6traits8iterator8Iterator3rev17h0e3f16e0a260b001E
00000000008c4010 T _ZN74_$LT$core..iter..LoopState$LT$C$C$B$GT$$u20$as$u20$core..ops..try..Try$GT$11into_result17hc71949a10e337af2E
00000000008c4080 T _ZN74_$LT$core..iter..LoopState$LT$C$C$B$GT$$u20$as$u20$core..ops..try..Try$GT$10from_error17h31084911ebdff44eE
00000000008c40c0 T _ZN74_$LT$core..iter..LoopState$LT$C$C$B$GT$$u20$as$u20$core..ops..try..Try$GT$7from_ok17h0cea2512890bc190E
00000000008c4100 T _ZN4core4iter65LoopState$LT$$LT$R$u20$as$u20$core..ops..try..Try$GT$..Ok$C$R$GT$8from_try17hc0b2edd97be85e72E
00000000008c4170 T _ZN4core4iter65LoopState$LT$$LT$R$u20$as$u20$core..ops..try..Try$GT$..Ok$C$R$GT$8into_try17heb26661aa99151d4E
00000000008c41d0 T _ZN4core5panic9PanicInfo20internal_constructor17hc023ade0e47f5d7eE
00000000008c4230 T _ZN4core5panic9PanicInfo7payload17hee79a33efc30f8bfE
00000000008c4260 T _ZN4core5panic9PanicInfo7message17ha3a68244298b1826E
00000000008c4290 T _ZN4core5panic9PanicInfo8location17he81d8b09077887f1E
00000000008c42c0 T _ZN61_$LT$core..panic..PanicInfo$u20$as$u20$core..fmt..Display$GT$3fmt17h7d9de81cc6f15dfcE
00000000008c4610 T _ZN4core5panic8Location6caller17hd835d15180a4039eE
00000000008c4640 T _ZN4core5panic8Location20internal_constructor17h9305e3bff32f0a1dE
00000000008c46b0 T _ZN4core5panic8Location4file17h32076e4f0587e17eE
00000000008c46e0 T _ZN4core5panic8Location4line17h30f73bdc68bdecceE
00000000008c4710 T _ZN4core5panic8Location6column17h9507f97c32f0079aE
00000000008c4740 T _ZN60_$LT$core..panic..Location$u20$as$u20$core..fmt..Display$GT$3fmt17h5602b51cf8110064E
00000000008c48e0 T _ZN4core6result19Result$LT$T$C$E$GT$2ok17h7719736826396d8fE
00000000008c4950 T _ZN4core6result19Result$LT$T$C$E$GT$2ok17hd3d60c99d265a690E
00000000008c49c0 T _ZN4core6result19Result$LT$T$C$E$GT$8and_then17h1ae22a7ca88e5ec1E
00000000008c4a40 T _ZN4core6result19Result$LT$T$C$E$GT$8and_then17h1eae19fc1f0d274eE
00000000008c4ac0 T _ZN4core6result19Result$LT$T$C$E$GT$8and_then17h76bf4b4e85ef702fE
00000000008c4b50 T _ZN4core6result19Result$LT$T$C$E$GT$8and_then17h9ed0c2189bba4996E
00000000008c4bd0 T _ZN4core6result19Result$LT$T$C$E$GT$8and_then17hb20692ff8ed11d59E
00000000008c4c60 T _ZN4core6result19Result$LT$T$C$E$GT$8and_then17hbf2b648702318c85E
00000000008c4cf0 T _ZN4core6result19Result$LT$T$C$E$GT$8and_then17hdcfd539ae2601941E
00000000008c4d70 T _ZN4core6result19Result$LT$T$C$E$GT$8and_then17he30f199e2ffd0e02E
00000000008c4df0 T _ZN4core6result19Result$LT$T$C$E$GT$8and_then17he857a52978394908E
00000000008c4e70 T _ZN4core6result19Result$LT$T$C$E$GT$8and_then17hfc2d92c9ad4ee590E
00000000008c4f00 T _ZN4core6result19Result$LT$T$C$E$GT$8and_then17hfca884ab9ea4516eE
00000000008c4f90 T _ZN4core6result19Result$LT$T$C$E$GT$14unwrap_or_else17h1e53c5aa2ad0a8d0E
00000000008c5000 T _ZN4core6result19Result$LT$T$C$E$GT$14unwrap_or_else17hecb0505a6bd16c77E
00000000008c5060 T _ZN4core6result19Result$LT$T$C$E$GT$6unwrap17hbb59b5cddd632461E
00000000008c50c0 T _ZN4core6result13unwrap_failed17h0961b4d9262319a3E
00000000008c5210 T _ZN73_$LT$core..result..Result$LT$T$C$E$GT$$u20$as$u20$core..ops..try..Try$GT$11into_result17h018cf84a6a901186E
00000000008c5240 T _ZN73_$LT$core..result..Result$LT$T$C$E$GT$$u20$as$u20$core..ops..try..Try$GT$11into_result17h02341c19297a068bE
00000000008c5270 T _ZN73_$LT$core..result..Result$LT$T$C$E$GT$$u20$as$u20$core..ops..try..Try$GT$11into_result17h0e43e015bc6a1254E
00000000008c52b0 T _ZN73_$LT$core..result..Result$LT$T$C$E$GT$$u20$as$u20$core..ops..try..Try$GT$11into_result17h32c884584a0f6e55E
00000000008c5300 T _ZN73_$LT$core..result..Result$LT$T$C$E$GT$$u20$as$u20$core..ops..try..Try$GT$11into_result17h3a393b67aa9d6481E
00000000008c5340 T _ZN73_$LT$core..result..Result$LT$T$C$E$GT$$u20$as$u20$core..ops..try..Try$GT$11into_result17h4ab3cf7dc9921feeE
00000000008c5380 T _ZN73_$LT$core..result..Result$LT$T$C$E$GT$$u20$as$u20$core..ops..try..Try$GT$11into_result17h51a82ef5e5788dfaE
00000000008c53b0 T _ZN73_$LT$core..result..Result$LT$T$C$E$GT$$u20$as$u20$core..ops..try..Try$GT$11into_result17h647dd34ebc4db90bE
00000000008c53f0 T _ZN73_$LT$core..result..Result$LT$T$C$E$GT$$u20$as$u20$core..ops..try..Try$GT$11into_result17h6e86373e2e5df67bE
00000000008c5440 T _ZN73_$LT$core..result..Result$LT$T$C$E$GT$$u20$as$u20$core..ops..try..Try$GT$11into_result17h8ec81d5b2c0bb79aE
00000000008c5480 T _ZN73_$LT$core..result..Result$LT$T$C$E$GT$$u20$as$u20$core..ops..try..Try$GT$11into_result17ha5ab2d5c011b6552E
00000000008c54b0 T _ZN73_$LT$core..result..Result$LT$T$C$E$GT$$u20$as$u20$core..ops..try..Try$GT$11into_result17ha63297f77a2c9580E
00000000008c54f0 T _ZN73_$LT$core..result..Result$LT$T$C$E$GT$$u20$as$u20$core..ops..try..Try$GT$11into_result17hba118592ecc0c7f1E
00000000008c5520 T _ZN73_$LT$core..result..Result$LT$T$C$E$GT$$u20$as$u20$core..ops..try..Try$GT$11into_result17hd7a74af41e42b386E
00000000008c5560 T _ZN73_$LT$core..result..Result$LT$T$C$E$GT$$u20$as$u20$core..ops..try..Try$GT$11into_result17he219a841fd93adb4E
00000000008c55a0 T _ZN73_$LT$core..result..Result$LT$T$C$E$GT$$u20$as$u20$core..ops..try..Try$GT$11into_result17he5346b831430cd1bE
00000000008c55c0 T _ZN73_$LT$core..result..Result$LT$T$C$E$GT$$u20$as$u20$core..ops..try..Try$GT$7from_ok17h52208615dc4135b9E
00000000008c55e0 T _ZN73_$LT$core..result..Result$LT$T$C$E$GT$$u20$as$u20$core..ops..try..Try$GT$7from_ok17h8197f7c2f82cd198E
00000000008c5610 T _ZN73_$LT$core..result..Result$LT$T$C$E$GT$$u20$as$u20$core..ops..try..Try$GT$10from_error17h0969c999152decabE
00000000008c5650 T _ZN73_$LT$core..result..Result$LT$T$C$E$GT$$u20$as$u20$core..ops..try..Try$GT$10from_error17h2051070bb30e3452E
00000000008c5680 T _ZN73_$LT$core..result..Result$LT$T$C$E$GT$$u20$as$u20$core..ops..try..Try$GT$10from_error17h53de6140df49419eE
00000000008c56c0 T _ZN73_$LT$core..result..Result$LT$T$C$E$GT$$u20$as$u20$core..ops..try..Try$GT$10from_error17h7144b8737f400536E
00000000008c5720 T _ZN73_$LT$core..result..Result$LT$T$C$E$GT$$u20$as$u20$core..ops..try..Try$GT$10from_error17h8ef6ded7f2c73764E
00000000008c5750 T _ZN73_$LT$core..result..Result$LT$T$C$E$GT$$u20$as$u20$core..ops..try..Try$GT$10from_error17h96539a95421735daE
00000000008c5780 T _ZN73_$LT$core..result..Result$LT$T$C$E$GT$$u20$as$u20$core..ops..try..Try$GT$10from_error17h975e1ec5959a02dfE
00000000008c57a0 T _ZN73_$LT$core..result..Result$LT$T$C$E$GT$$u20$as$u20$core..ops..try..Try$GT$10from_error17hbfb8ffce1782ff25E
00000000008c57e0 T _ZN73_$LT$core..result..Result$LT$T$C$E$GT$$u20$as$u20$core..ops..try..Try$GT$10from_error17hc1a5dd9fb1ddb2a2E
00000000008c5810 T _ZN73_$LT$core..result..Result$LT$T$C$E$GT$$u20$as$u20$core..ops..try..Try$GT$10from_error17hcbf31d88d7a50885E
00000000008c5830 T _ZN73_$LT$core..result..Result$LT$T$C$E$GT$$u20$as$u20$core..ops..try..Try$GT$10from_error17hddceedd96b81c172E
00000000008c5870 T _ZN73_$LT$core..result..Result$LT$T$C$E$GT$$u20$as$u20$core..ops..try..Try$GT$10from_error17he05282f26c2655feE
00000000008c58b0 T _ZN73_$LT$core..result..Result$LT$T$C$E$GT$$u20$as$u20$core..ops..try..Try$GT$10from_error17he4156514c00a592dE
00000000008c5910 T _ZN73_$LT$core..result..Result$LT$T$C$E$GT$$u20$as$u20$core..ops..try..Try$GT$10from_error17he8f27d5604efef76E
00000000008c5940 T _ZN73_$LT$core..result..Result$LT$T$C$E$GT$$u20$as$u20$core..ops..try..Try$GT$10from_error17heb76a691cccc0f19E
00000000008c5970 T _ZN73_$LT$core..result..Result$LT$T$C$E$GT$$u20$as$u20$core..ops..try..Try$GT$10from_error17hf74e2ccb028fc71eE
00000000008c59a0 T _ZN73_$LT$core..result..Result$LT$T$C$E$GT$$u20$as$u20$core..ops..try..Try$GT$10from_error17hf85e573ea781a2caE
00000000008c59e0 T _ZN4core5slice29_$LT$impl$u20$$u5b$T$u5d$$GT$3len17h441aa58dd921995cE
00000000008c5a20 T _ZN4core5slice29_$LT$impl$u20$$u5b$T$u5d$$GT$3len17h944fa59c153d926aE
00000000008c5a60 T _ZN4core5slice29_$LT$impl$u20$$u5b$T$u5d$$GT$6as_ptr17h0a1bfd660061023aE
00000000008c5a90 T _ZN4core5slice29_$LT$impl$u20$$u5b$T$u5d$$GT$6as_ptr17h0a84a41993423635E
00000000008c5ac0 T _ZN4core5slice29_$LT$impl$u20$$u5b$T$u5d$$GT$10as_mut_ptr17h089c5d2f31949b89E
00000000008c5af0 T _ZN4core5slice29_$LT$impl$u20$$u5b$T$u5d$$GT$4iter17h757938470f107095E
00000000008c5be0 T _ZN4core5slice29_$LT$impl$u20$$u5b$T$u5d$$GT$8iter_mut17hda0eec2527c11423E
00000000008c5cc0 T _ZN4core5slice74_$LT$impl$u20$core..ops..index..Index$LT$I$GT$$u20$for$u20$$u5b$T$u5d$$GT$5index17h3272ade2176a9efeE
00000000008c5d20 T _ZN99_$LT$core..ops..range..Range$LT$usize$GT$$u20$as$u20$core..slice..SliceIndex$LT$$u5b$T$u5d$$GT$$GT$3get17h5cdf4e2898e1de5dE
00000000008c5de0 T _ZN99_$LT$core..ops..range..Range$LT$usize$GT$$u20$as$u20$core..slice..SliceIndex$LT$$u5b$T$u5d$$GT$$GT$13get_unchecked17h70f4f065e8f86314E
00000000008c5e90 T _ZN99_$LT$core..ops..range..Range$LT$usize$GT$$u20$as$u20$core..slice..SliceIndex$LT$$u5b$T$u5d$$GT$$GT$13get_unchecked17hb49f9b8ad2407fabE
00000000008c5f40 T _ZN99_$LT$core..ops..range..Range$LT$usize$GT$$u20$as$u20$core..slice..SliceIndex$LT$$u5b$T$u5d$$GT$$GT$13get_unchecked17hc07877ce4b538baaE
00000000008c5ff0 T _ZN99_$LT$core..ops..range..Range$LT$usize$GT$$u20$as$u20$core..slice..SliceIndex$LT$$u5b$T$u5d$$GT$$GT$13get_unchecked17hf34db7c5488cfb9cE
00000000008c60a0 T _ZN99_$LT$core..ops..range..Range$LT$usize$GT$$u20$as$u20$core..slice..SliceIndex$LT$$u5b$T$u5d$$GT$$GT$17get_unchecked_mut17h2177864f5e5f9070E
00000000008c6150 T _ZN99_$LT$core..ops..range..Range$LT$usize$GT$$u20$as$u20$core..slice..SliceIndex$LT$$u5b$T$u5d$$GT$$GT$17get_unchecked_mut17hf40c784fb5d45121E
00000000008c6200 T _ZN99_$LT$core..ops..range..Range$LT$usize$GT$$u20$as$u20$core..slice..SliceIndex$LT$$u5b$T$u5d$$GT$$GT$5index17ha9861b3f44eb65d3E
00000000008c62d0 T _ZN99_$LT$core..ops..range..Range$LT$usize$GT$$u20$as$u20$core..slice..SliceIndex$LT$$u5b$T$u5d$$GT$$GT$5index17hacf19327281fc85aE
00000000008c63a0 T _ZN99_$LT$core..ops..range..Range$LT$usize$GT$$u20$as$u20$core..slice..SliceIndex$LT$$u5b$T$u5d$$GT$$GT$5index17hb558a90303ac5e0bE
00000000008c6470 T _ZN99_$LT$core..ops..range..Range$LT$usize$GT$$u20$as$u20$core..slice..SliceIndex$LT$$u5b$T$u5d$$GT$$GT$5index17hea463b6888fa2032E
00000000008c6540 T _ZN99_$LT$core..ops..range..Range$LT$usize$GT$$u20$as$u20$core..slice..SliceIndex$LT$$u5b$T$u5d$$GT$$GT$9index_mut17h69dfadb591e87b02E
00000000008c6610 T _ZN99_$LT$core..ops..range..Range$LT$usize$GT$$u20$as$u20$core..slice..SliceIndex$LT$$u5b$T$u5d$$GT$$GT$9index_mut17h7001e5a83bbefa94E
00000000008c66e0 T _ZN101_$LT$core..ops..range..RangeTo$LT$usize$GT$$u20$as$u20$core..slice..SliceIndex$LT$$u5b$T$u5d$$GT$$GT$5index17h4e06be0da9fdaacfE
00000000008c6750 T _ZN101_$LT$core..ops..range..RangeTo$LT$usize$GT$$u20$as$u20$core..slice..SliceIndex$LT$$u5b$T$u5d$$GT$$GT$5index17h68501610e5022882E
00000000008c67c0 T _ZN101_$LT$core..ops..range..RangeTo$LT$usize$GT$$u20$as$u20$core..slice..SliceIndex$LT$$u5b$T$u5d$$GT$$GT$5index17hf360691c6ff93855E
00000000008c6830 T _ZN101_$LT$core..ops..range..RangeTo$LT$usize$GT$$u20$as$u20$core..slice..SliceIndex$LT$$u5b$T$u5d$$GT$$GT$9index_mut17h2ef7c649b04f02a3E
00000000008c68a0 T _ZN101_$LT$core..ops..range..RangeTo$LT$usize$GT$$u20$as$u20$core..slice..SliceIndex$LT$$u5b$T$u5d$$GT$$GT$9index_mut17h7b74443e14027650E
00000000008c6910 T _ZN103_$LT$core..ops..range..RangeFrom$LT$usize$GT$$u20$as$u20$core..slice..SliceIndex$LT$$u5b$T$u5d$$GT$$GT$5index17hdc8d116f59a6036bE
00000000008c69a0 T _ZN103_$LT$core..ops..range..RangeFrom$LT$usize$GT$$u20$as$u20$core..slice..SliceIndex$LT$$u5b$T$u5d$$GT$$GT$5index17he721a3fdc9497c0fE
00000000008c6a30 T _ZN103_$LT$core..ops..range..RangeFrom$LT$usize$GT$$u20$as$u20$core..slice..SliceIndex$LT$$u5b$T$u5d$$GT$$GT$5index17hf19e4497152edca0E
00000000008c6ac0 T _ZN103_$LT$core..ops..range..RangeFrom$LT$usize$GT$$u20$as$u20$core..slice..SliceIndex$LT$$u5b$T$u5d$$GT$$GT$9index_mut17h55256fbf9d8dc79aE
00000000008c6b50 T _ZN90_$LT$core..ops..range..RangeFull$u20$as$u20$core..slice..SliceIndex$LT$$u5b$T$u5d$$GT$$GT$5index17hbab861f5b5e9c493E
00000000008c6b90 T _ZN90_$LT$core..ops..range..RangeFull$u20$as$u20$core..slice..SliceIndex$LT$$u5b$T$u5d$$GT$$GT$5index17heac5d5250839fe38E
00000000008c6bd0 T _ZN90_$LT$core..ops..range..RangeFull$u20$as$u20$core..slice..SliceIndex$LT$$u5b$T$u5d$$GT$$GT$9index_mut17h4c0aee47dfb0daccE
00000000008c6c10 T _ZN90_$LT$core..ops..range..RangeFull$u20$as$u20$core..slice..SliceIndex$LT$$u5b$T$u5d$$GT$$GT$9index_mut17hd6d19329883e42dfE
00000000008c6c50 t _ZN4core3str6traits101_$LT$impl$u20$core..slice..SliceIndex$LT$str$GT$$u20$for$u20$core..ops..range..Range$LT$usize$GT$$GT$3get17hbffd6a66748f29a9E
00000000008c6d40 T _ZN4core3str6traits101_$LT$impl$u20$core..slice..SliceIndex$LT$str$GT$$u20$for$u20$core..ops..range..Range$LT$usize$GT$$GT$13get_unchecked17h2a70ef1df0597e87E
00000000008c6e20 T _ZN4core3str6traits101_$LT$impl$u20$core..slice..SliceIndex$LT$str$GT$$u20$for$u20$core..ops..range..Range$LT$usize$GT$$GT$5index17ha21a210c02a3f865E
00000000008c6ef0 T _ZN4core3str6traits103_$LT$impl$u20$core..slice..SliceIndex$LT$str$GT$$u20$for$u20$core..ops..range..RangeTo$LT$usize$GT$$GT$3get17h3d5a1e5168d9ff87E
00000000008c6f80 t _ZN4core3str6traits103_$LT$impl$u20$core..slice..SliceIndex$LT$str$GT$$u20$for$u20$core..ops..range..RangeTo$LT$usize$GT$$GT$13get_unchecked17h3cc24b77817cbe41E
00000000008c7000 T _ZN4core3str6traits103_$LT$impl$u20$core..slice..SliceIndex$LT$str$GT$$u20$for$u20$core..ops..range..RangeTo$LT$usize$GT$$GT$5index17h59ed7c678bbe1698E
00000000008c7090 t _ZN4core3str6traits105_$LT$impl$u20$core..slice..SliceIndex$LT$str$GT$$u20$for$u20$core..ops..range..RangeFrom$LT$usize$GT$$GT$3get17h4343124d3efc77a2E
00000000008c7120 t _ZN4core3str6traits105_$LT$impl$u20$core..slice..SliceIndex$LT$str$GT$$u20$for$u20$core..ops..range..RangeFrom$LT$usize$GT$$GT$13get_unchecked17hf95fb2f599a6f023E
00000000008c7200 T _ZN4core3str6traits105_$LT$impl$u20$core..slice..SliceIndex$LT$str$GT$$u20$for$u20$core..ops..range..RangeFrom$LT$usize$GT$$GT$5index17h2369e02fc019f1d1E
00000000008c72e0 t _ZN4core4time8Duration11checked_add17hc813ad673ef56831E
00000000008c7490 t _ZN4core4time8Duration11checked_sub17hefcb10f6818b09caE
00000000008c7670 t _ZN4core4time8Duration11checked_mul17h053bbf00534ec884E
00000000008c77f0 T _ZN4core4time8Duration11checked_mul28_$u7b$$u7b$closure$u7d$$u7d$17hdc340d8c7bb6285dE
00000000008c7840 t _ZN4core4time8Duration11checked_div17h3d456dee35651668E
00000000008c7ab0 T _ZN62_$LT$core..time..Duration$u20$as$u20$core..ops..arith..Add$GT$3add17h7eaaac4934c9a8b3E
00000000008c7b40 T _ZN68_$LT$core..time..Duration$u20$as$u20$core..ops..arith..AddAssign$GT$10add_assign17h766c2e418062eea7E
00000000008c7bb0 T _ZN62_$LT$core..time..Duration$u20$as$u20$core..ops..arith..Sub$GT$3sub17h90a8ea1e004e3ff8E
00000000008c7c40 T _ZN68_$LT$core..time..Duration$u20$as$u20$core..ops..arith..SubAssign$GT$10sub_assign17h3032184ec293c850E
00000000008c7cb0 T _ZN73_$LT$core..time..Duration$u20$as$u20$core..ops..arith..Mul$LT$u32$GT$$GT$3mul17h763ac7585ac2f2afE
00000000008c7d30 T _ZN4core4time83_$LT$impl$u20$core..ops..arith..Mul$LT$core..time..Duration$GT$$u20$for$u20$u32$GT$3mul17h3c86c44112617939E
00000000008c7d80 T _ZN79_$LT$core..time..Duration$u20$as$u20$core..ops..arith..MulAssign$LT$u32$GT$$GT$10mul_assign17h5ab3692bd292155eE
00000000008c7dd0 T _ZN73_$LT$core..time..Duration$u20$as$u20$core..ops..arith..Div$LT$u32$GT$$GT$3div17h43bab1af2e6626a9E
00000000008c7e50 T _ZN79_$LT$core..time..Duration$u20$as$u20$core..ops..arith..DivAssign$LT$u32$GT$$GT$10div_assign17h1765f1b0f9f1cd7fE
00000000008c7ea0 T _ZN57_$LT$core..time..Duration$u20$as$u20$core..fmt..Debug$GT$3fmt17h8c230772b46b9126E
00000000008c8290 t _ZN57_$LT$core..time..Duration$u20$as$u20$core..fmt..Debug$GT$3fmt11fmt_decimal17h0d638929a14e727bE
00000000008c8ad0 T _ZN57_$LT$core..time..Duration$u20$as$u20$core..fmt..Debug$GT$3fmt11fmt_decimal28_$u7b$$u7b$closure$u7d$$u7d$17h9b2d9345f6ab3d9cE
00000000008c8b10 T _ZN73_$LT$core..ops..range..Range$LT$Idx$GT$$u20$as$u20$core..clone..Clone$GT$5clone17hd640ada6ee8da273E
00000000008c8b80 T _ZN72_$LT$core..char..convert..ParseCharError$u20$as$u20$core..fmt..Debug$GT$3fmt17h81f8581021877d46E
00000000008c8c30 T _ZN71_$LT$core..char..convert..CharErrorKind$u20$as$u20$core..fmt..Debug$GT$3fmt17h2212a659a3b6437cE
00000000008c8ce0 T _ZN74_$LT$core..char..convert..CharTryFromError$u20$as$u20$core..fmt..Debug$GT$3fmt17h8dea02bed488f5acE
00000000008c8d70 T _ZN84_$LT$core..iter..adapters..chain..Chain$LT$A$C$B$GT$$u20$as$u20$core..fmt..Debug$GT$3fmt17h74b082b1d4d347e0E
00000000008c8e80 T _ZN86_$LT$core..iter..adapters..chain..Chain$LT$A$C$B$GT$$u20$as$u20$core..clone..Clone$GT$5clone17hbab81efceb7436c9E
00000000008c8f40 t _ZN49_$LT$usize$u20$as$u20$core..iter..range..Step$GT$13steps_between17hec708021ca0975e5E
00000000008c8fd0 t _ZN49_$LT$usize$u20$as$u20$core..iter..range..Step$GT$16backward_checked17h56221754d9ece17aE
00000000008c9030 t _ZN49_$LT$usize$u20$as$u20$core..iter..range..Step$GT$17forward_unchecked17hd85e3e979751e38fE
00000000008c9070 t _ZN49_$LT$usize$u20$as$u20$core..iter..range..Step$GT$8backward17h1970e9e6c7f2c008E
00000000008c90f0 T _ZN59_$LT$core..panic..PanicInfo$u20$as$u20$core..fmt..Debug$GT$3fmt17h0786d9d1942a72aaE
00000000008c9280 T _ZN58_$LT$core..panic..Location$u20$as$u20$core..fmt..Debug$GT$3fmt17h1ac659f44eaf2b07E
00000000008c9410 T _ZN42_$LT$$RF$T$u20$as$u20$core..fmt..Debug$GT$3fmt17h09cf43a14c4958dcE
00000000008c9460 T _ZN42_$LT$$RF$T$u20$as$u20$core..fmt..Debug$GT$3fmt17h7a51ab3e25acc93cE
00000000008c94b0 T _ZN42_$LT$$RF$T$u20$as$u20$core..fmt..Debug$GT$3fmt17h920a9d51aa334283E
00000000008c9500 T _ZN42_$LT$$RF$T$u20$as$u20$core..fmt..Debug$GT$3fmt17hc8f9f87fb732915cE
00000000008c9550 T _ZN59_$LT$core..future..ResumeTy$u20$as$u20$core..fmt..Debug$GT$3fmt17haf7fe1f28aec9de3E
00000000008c95e0 T _ZN4core3num7dec2flt9algorithm12power_of_ten17h79712b732813ef98E
00000000008c9790 T _ZN4core3num7dec2flt9algorithm10make_ratio17h29b03463e4128322E
00000000008c9ab0 T _ZN4core3num9diy_float2Fp3mul17ha436c59407e1d021E
00000000008c9ed0 T _ZN4core3num9diy_float2Fp9normalize17hbfedbc4dda9f2be9E
00000000008ca1c0 T _ZN4core3num9diy_float2Fp12normalize_to17hb9f4cdeac9760fe9E
00000000008ca530 T _ZN67_$LT$f32$u20$as$u20$core..num..flt2dec..decoder..DecodableFloat$GT$18min_pos_norm_value17he1698aa052c69d9eE
00000000008ca550 T _ZN67_$LT$f64$u20$as$u20$core..num..flt2dec..decoder..DecodableFloat$GT$18min_pos_norm_value17h02a6cbb07e96945fE
00000000008ca570 T _ZN4core3num7flt2dec7decoder6decode17h8ddb62bf4bb583e4E
00000000008ca8e0 T _ZN4core3num7flt2dec7decoder6decode17hc9f8ce662c02a7d4E
00000000008cac50 T _ZN79_$LT$core..fmt..builders..PadAdapterState$u20$as$u20$core..default..Default$GT$7default17h125cdc7ef233ba0aE
00000000008cac70 t _ZN4core3fmt8builders10PadAdapter4wrap17h352b7724efdb940eE
00000000008cace0 T _ZN4core3fmt8builders10PadAdapter4wrap28_$u7b$$u7b$closure$u7d$$u7d$17h96c7e25ebc92a9ecE
00000000008cada0 T _ZN68_$LT$core..fmt..builders..PadAdapter$u20$as$u20$core..fmt..Write$GT$9write_str17he7744aeb60d4fc3eE
00000000008cb050 T _ZN4core3fmt8builders16debug_struct_new17hfe8e1f1f04eecd64E
00000000008cb0d0 T _ZN4core3fmt8builders11DebugStruct5field17h935865dff11e3537E
00000000008cb170 T _ZN4core3fmt8builders11DebugStruct5field28_$u7b$$u7b$closure$u7d$$u7d$17h2a7df3236a01f8b7E
00000000008cb5d0 T _ZN4core3fmt8builders11DebugStruct21finish_non_exhaustive17hde5f9273c7a89c50E
00000000008cb630 T _ZN4core3fmt8builders11DebugStruct21finish_non_exhaustive28_$u7b$$u7b$closure$u7d$$u7d$17hd3f0b5dd8b45423eE
00000000008cb9b0 T _ZN4core3fmt8builders11DebugStruct6finish17he51d0193f7b1d262E
00000000008cba20 T _ZN4core3fmt8builders11DebugStruct6finish28_$u7b$$u7b$closure$u7d$$u7d$17hd88d3f83cf73ec91E
00000000008cbab0 t _ZN4core3fmt8builders11DebugStruct9is_pretty17h4d4649b34cb2939fE
00000000008cbaf0 T _ZN4core3fmt8builders15debug_tuple_new17h9ccc0044c572d464E
00000000008cbb90 T _ZN4core3fmt8builders10DebugTuple5field17h60ebd4f7fcbd7e0aE
00000000008cbc50 T _ZN4core3fmt8builders10DebugTuple5field28_$u7b$$u7b$closure$u7d$$u7d$17h6ef81bb27efdb4adE
00000000008cbee0 T _ZN4core3fmt8builders10DebugTuple6finish17hbfe2226103c63a38E
00000000008cbf50 T _ZN4core3fmt8builders10DebugTuple6finish28_$u7b$$u7b$closure$u7d$$u7d$17hcb3e228b59514df2E
00000000008cc060 t _ZN4core3fmt8builders10DebugTuple9is_pretty17ha41a604d0f09367fE
00000000008cc0a0 t _ZN4core3fmt8builders10DebugInner5entry17haadfa4ef2469333eE
00000000008cc120 T _ZN4core3fmt8builders10DebugInner5entry28_$u7b$$u7b$closure$u7d$$u7d$17h1ceabdd8663a509cE
00000000008cc390 t _ZN4core3fmt8builders10DebugInner9is_pretty17he42274cead8188f0E
00000000008cc3d0 T _ZN4core3fmt8builders13debug_set_new17h319857a807657480E
00000000008cc450 T _ZN4core3fmt8builders8DebugSet5entry17h08270528e58200abE
00000000008cc4a0 T _ZN4core3fmt8builders8DebugSet6finish17hf5e27f3a998cb10aE
00000000008cc4f0 T _ZN4core3fmt8builders8DebugSet6finish28_$u7b$$u7b$closure$u7d$$u7d$17hbc1e8a9ac8aad42eE
00000000008cc540 T _ZN4core3fmt8builders14debug_list_new17hcbc855f0aac029d2E
00000000008cc5c0 T _ZN4core3fmt8builders9DebugList5entry17ha93a09f0ea4d0d41E
00000000008cc610 T _ZN4core3fmt8builders9DebugList7entries17h30443632f09e2966E
00000000008cc6d0 T _ZN4core3fmt8builders9DebugList7entries17h8142dd26de899c7dE
00000000008cc790 T _ZN4core3fmt8builders9DebugList7entries17h9b9a40a98c118c57E
00000000008cc850 T _ZN4core3fmt8builders9DebugList6finish17hea71631a37b51795E
00000000008cc8a0 T _ZN4core3fmt8builders9DebugList6finish28_$u7b$$u7b$closure$u7d$$u7d$17h863df1c804789949E
00000000008cc8f0 T _ZN4core3fmt8builders13debug_map_new17h777c08f4018a0d58E
00000000008cc980 T _ZN4core3fmt8builders8DebugMap5entry17h0b63159bd1215944E
00000000008cca00 T _ZN4core3fmt8builders8DebugMap3key17hc581ffc0410af8caE
00000000008cca80 T _ZN4core3fmt8builders8DebugMap3key28_$u7b$$u7b$closure$u7d$$u7d$17h505adf4b413226d5E
00000000008cce30 T _ZN4core3fmt8builders8DebugMap5value17hef0116107f9221d2E
00000000008cceb0 T _ZN4core3fmt8builders8DebugMap5value28_$u7b$$u7b$closure$u7d$$u7d$17h527288546409d9b0E
00000000008cd0c0 T _ZN4core3fmt8builders8DebugMap6finish17h09033a408e490c7dE
00000000008cd110 T _ZN4core3fmt8builders8DebugMap6finish28_$u7b$$u7b$closure$u7d$$u7d$17h4d85542cdd468508E
00000000008cd190 t _ZN4core3fmt8builders8DebugMap9is_pretty17h12b8f3dd74ecd84cE
00000000008cd1d0 T _ZN4core3fmt5Write10write_char17h6ac6e2b45760bf27E
00000000008cd250 T _ZN4core3fmt5Write9write_fmt17h74a1f78bb4217951E
00000000008cd2d0 T _ZN50_$LT$$RF$mut$u20$W$u20$as$u20$core..fmt..Write$GT$9write_str17he665be9141ea864cE
00000000008cd320 T _ZN50_$LT$$RF$mut$u20$W$u20$as$u20$core..fmt..Write$GT$10write_char17h58afd5d881132a9fE
00000000008cd360 T _ZN50_$LT$$RF$mut$u20$W$u20$as$u20$core..fmt..Write$GT$9write_fmt17h4c15f840354407d4E
00000000008cd3c0 T _ZN54_$LT$$BP$const$u20$T$u20$as$u20$core..fmt..Pointer$GT$3fmt17h30cfdc7361ae3b58E
00000000008cd560 T _ZN54_$LT$$BP$const$u20$T$u20$as$u20$core..fmt..Pointer$GT$3fmt17hdffd99b99aa81b03E
00000000008cd700 T _ZN52_$LT$$BP$mut$u20$T$u20$as$u20$core..fmt..Pointer$GT$3fmt17haab22112f1f98b1bE
00000000008cd750 T _ZN52_$LT$$BP$const$u20$T$u20$as$u20$core..fmt..Debug$GT$3fmt17haefcb278f6bcd410E
00000000008cd7a0 T _ZN4core4task4wake8RawWaker3new17hcc348d69f21c7558E
00000000008cd7e0 T _ZN4core4task4wake14RawWakerVTable3new17hb2802e52f56b1cefE
00000000008cd850 T _ZN62_$LT$core..task..wake..Context$u20$as$u20$core..fmt..Debug$GT$3fmt17hb65b784e2fcb5bfaE
00000000008cd8f0 T _ZN60_$LT$core..task..wake..Waker$u20$as$u20$core..fmt..Debug$GT$3fmt17h5eeb2fdf163facf7E
00000000008cd9e0 T _ZN69_$LT$core..alloc..layout..LayoutErr$u20$as$u20$core..fmt..Display$GT$3fmt17hca67267228f22fb6E
00000000008cda30 T _ZN61_$LT$core..num..diy_float..Fp$u20$as$u20$core..fmt..Debug$GT$3fmt17h327dacc5374a2af4E
00000000008cdb40 T _ZN73_$LT$core..num..flt2dec..decoder..Decoded$u20$as$u20$core..fmt..Debug$GT$3fmt17h7455dfc25edc49d2E
00000000008cddc0 T _ZN77_$LT$core..num..flt2dec..decoder..FullDecoded$u20$as$u20$core..fmt..Debug$GT$3fmt17h0b2688c60f0b481cE
00000000008cdf70 T _ZN42_$LT$$RF$T$u20$as$u20$core..fmt..Debug$GT$3fmt17h06b6d204a8042571E
00000000008cdfc0 T _ZN42_$LT$$RF$T$u20$as$u20$core..fmt..Debug$GT$3fmt17h829238c5cf03d9eaE
00000000008ce010 T _ZN42_$LT$$RF$T$u20$as$u20$core..fmt..Debug$GT$3fmt17hd425a9101df73804E
00000000008ce060 T _ZN42_$LT$$RF$T$u20$as$u20$core..fmt..Debug$GT$3fmt17he318ef5cb7d1a32aE
00000000008ce0b0 T _ZN63_$LT$core..task..wake..RawWaker$u20$as$u20$core..fmt..Debug$GT$3fmt17heb1c0ce36a0df68cE
00000000008ce1c0 T _ZN69_$LT$core..task..wake..RawWakerVTable$u20$as$u20$core..fmt..Debug$GT$3fmt17h6438d4691fe3564bE
00000000008ce3c0 T _ZN64_$LT$core..alloc..layout..Layout$u20$as$u20$core..fmt..Debug$GT$3fmt17he62f18d6f33a2100E
00000000008ce4d0 T _ZN67_$LT$core..alloc..layout..LayoutErr$u20$as$u20$core..fmt..Debug$GT$3fmt17h44b9cce2a0a6efccE
00000000008ce580 T _ZN77_$LT$core..core_arch..x86..cpuid..CpuidResult$u20$as$u20$core..fmt..Debug$GT$3fmt17hb557fac67951ecc1E
00000000008ce780 T _ZN84_$LT$core..char..EscapeUnicode$u20$as$u20$core..iter..traits..iterator..Iterator$GT$4next17hb71d705c6cf1e417E
00000000008ce930 T _ZN84_$LT$core..char..EscapeUnicode$u20$as$u20$core..iter..traits..iterator..Iterator$GT$4last17h9c6d8f5dd64cb93eE
00000000008ce970 t _ZN95_$LT$core..char..EscapeUnicode$u20$as$u20$core..iter..traits..exact_size..ExactSizeIterator$GT$3len17h23a7a5aba62fd246E
00000000008cea20 T _ZN64_$LT$core..char..EscapeUnicode$u20$as$u20$core..fmt..Display$GT$3fmt17hbf738fabd262b408E
00000000008ceb10 T _ZN84_$LT$core..char..EscapeDefault$u20$as$u20$core..iter..traits..iterator..Iterator$GT$4next17h6ab47956f786709bE
00000000008cebe0 t _ZN84_$LT$core..char..EscapeDefault$u20$as$u20$core..iter..traits..iterator..Iterator$GT$9size_hint17h96e646bdcd04d03aE
00000000008cec50 T _ZN84_$LT$core..char..EscapeDefault$u20$as$u20$core..iter..traits..iterator..Iterator$GT$3nth17hdc42f2ba99bcc5f9E
00000000008cee40 T _ZN84_$LT$core..char..EscapeDefault$u20$as$u20$core..iter..traits..iterator..Iterator$GT$4last17h503dc9cc81d5d88cE
00000000008ceee0 T _ZN95_$LT$core..char..EscapeDefault$u20$as$u20$core..iter..traits..exact_size..ExactSizeIterator$GT$3len17hf86cc7553aeb3651E
00000000008cef60 T _ZN64_$LT$core..char..EscapeDefault$u20$as$u20$core..fmt..Display$GT$3fmt17h65897f3dfbaeb9e5E
00000000008cf060 T _ZN82_$LT$core..char..EscapeDebug$u20$as$u20$core..iter..traits..iterator..Iterator$GT$4next17h6a3b218d99e7b27eE
00000000008cf090 T _ZN82_$LT$core..char..EscapeDebug$u20$as$u20$core..iter..traits..iterator..Iterator$GT$9size_hint17hf451a46dc1236f09E
00000000008cf0d0 T _ZN62_$LT$core..char..EscapeDebug$u20$as$u20$core..fmt..Display$GT$3fmt17hd0cdd8fb83394ac4E
00000000008cf120 T _ZN82_$LT$core..char..ToLowercase$u20$as$u20$core..iter..traits..iterator..Iterator$GT$4next17h71e9b485b64ff677E
00000000008cf150 T _ZN82_$LT$core..char..ToLowercase$u20$as$u20$core..iter..traits..iterator..Iterator$GT$9size_hint17h53cb90c3c9890e6bE
00000000008cf190 T _ZN82_$LT$core..char..ToUppercase$u20$as$u20$core..iter..traits..iterator..Iterator$GT$4next17haf26feec31287509E
00000000008cf1c0 T _ZN82_$LT$core..char..ToUppercase$u20$as$u20$core..iter..traits..iterator..Iterator$GT$9size_hint17h5e37fb2d06426852E
00000000008cf200 T _ZN4core4char15CaseMappingIter3new17hbe31b082f6b13404E
00000000008cf290 T _ZN86_$LT$core..char..CaseMappingIter$u20$as$u20$core..iter..traits..iterator..Iterator$GT$4next17he8040fe6ce84156aE
00000000008cf360 T _ZN86_$LT$core..char..CaseMappingIter$u20$as$u20$core..iter..traits..iterator..Iterator$GT$9size_hint17h5e71bad1b07dad51E
